libKPim5MessageComposer.so.5:_ZN13MessageHelper10initHeaderERK14QSharedPointerIN5KMime7MessageEEPKN19KIdentityManagement15IdentityManagerEj
libKPim5MessageComposer.so.5:_ZN13MessageHelper16extractAddrSpecsERK14QSharedPointerIN5KMime7MessageEERK10QByteArray
libKPim5MessageComposer.so.5:_ZN15MessageComposer10EncryptJob10setContentEPN5KMime7ContentE
libKPim5MessageComposer.so.5:_ZN15MessageComposer10EncryptJob10slotResultEP4KJob
libKPim5MessageComposer.so.5:_ZN15MessageComposer10EncryptJob11qt_metacallEN11QMetaObject4CallEiPPv
libKPim5MessageComposer.so.5:_ZN15MessageComposer10EncryptJob11qt_metacastEPKc
libKPim5MessageComposer.so.5:_ZN15MessageComposer10EncryptJob12setGnupgHomeERK7QString
libKPim5MessageComposer.so.5:_ZN15MessageComposer10EncryptJob13setRecipientsERK11QStringList
libKPim5MessageComposer.so.5:_ZN15MessageComposer10EncryptJob17setEncryptionKeysERKSt6vectorIN5GpgME3KeyESaIS3_EE
libKPim5MessageComposer.so.5:_ZN15MessageComposer10EncryptJob18setSkeletonMessageEPN5KMime7MessageE
libKPim5MessageComposer.so.5:_ZN15MessageComposer10EncryptJob19setProtectedHeadersEb
libKPim5MessageComposer.so.5:_ZN15MessageComposer10EncryptJob22setCryptoMessageFormatEN4Kleo19CryptoMessageFormatE
libKPim5MessageComposer.so.5:_ZN15MessageComposer10EncryptJob28setProtectedHeadersObvoscateEb
libKPim5MessageComposer.so.5:_ZN15MessageComposer10EncryptJob7doStartEv
libKPim5MessageComposer.so.5:_ZN15MessageComposer10EncryptJob7processEv
libKPim5MessageComposer.so.5:_ZN15MessageComposer10EncryptJobC1EP7QObject
libKPim5MessageComposer.so.5:_ZN15MessageComposer10EncryptJobC2EP7QObject
libKPim5MessageComposer.so.5:_ZN15MessageComposer10EncryptJobD0Ev
libKPim5MessageComposer.so.5:_ZN15MessageComposer10EncryptJobD1Ev
libKPim5MessageComposer.so.5:_ZN15MessageComposer10EncryptJobD2Ev
libKPim5MessageComposer.so.5:_ZN15MessageComposer10GlobalPart11qt_metacallEN11QMetaObject4CallEiPPv
libKPim5MessageComposer.so.5:_ZN15MessageComposer10GlobalPart11qt_metacastEPKc
libKPim5MessageComposer.so.5:_ZN15MessageComposer10GlobalPart11setCharsetsERK7QVectorI10QByteArrayE
libKPim5MessageComposer.so.5:_ZN15MessageComposer10GlobalPart13setGuiEnabledEb
libKPim5MessageComposer.so.5:_ZN15MessageComposer10GlobalPart14set8BitAllowedEb
libKPim5MessageComposer.so.5:_ZN15MessageComposer10GlobalPart15setMDNRequestedEb
libKPim5MessageComposer.so.5:_ZN15MessageComposer10GlobalPart21setParentWidgetForGuiEP7QWidget
libKPim5MessageComposer.so.5:_ZN15MessageComposer10GlobalPart25setFallbackCharsetEnabledEb
libKPim5MessageComposer.so.5:_ZN15MessageComposer10GlobalPart30setRequestDeleveryConfirmationEb
libKPim5MessageComposer.so.5:_ZN15MessageComposer10GlobalPartC1EP7QObject
libKPim5MessageComposer.so.5:_ZN15MessageComposer10GlobalPartC2EP7QObject
libKPim5MessageComposer.so.5:_ZN15MessageComposer10GlobalPartD0Ev
libKPim5MessageComposer.so.5:_ZN15MessageComposer10GlobalPartD1Ev
libKPim5MessageComposer.so.5:_ZN15MessageComposer10GlobalPartD2Ev
libKPim5MessageComposer.so.5:_ZN15MessageComposer11MainTextJob11qt_metacallEN11QMetaObject4CallEiPPv
libKPim5MessageComposer.so.5:_ZN15MessageComposer11MainTextJob11qt_metacastEPKc
libKPim5MessageComposer.so.5:_ZN15MessageComposer11MainTextJob11setTextPartEPNS_8TextPartE
libKPim5MessageComposer.so.5:_ZN15MessageComposer11MainTextJob7doStartEv
libKPim5MessageComposer.so.5:_ZN15MessageComposer11MainTextJob7processEv
libKPim5MessageComposer.so.5:_ZN15MessageComposer11MainTextJobC1EPNS_8TextPartEP7QObject
libKPim5MessageComposer.so.5:_ZN15MessageComposer11MainTextJobC2EPNS_8TextPartEP7QObject
libKPim5MessageComposer.so.5:_ZN15MessageComposer11MainTextJobD0Ev
libKPim5MessageComposer.so.5:_ZN15MessageComposer11MainTextJobD1Ev
libKPim5MessageComposer.so.5:_ZN15MessageComposer11MainTextJobD2Ev
libKPim5MessageComposer.so.5:_ZN15MessageComposer11MessagePart11qt_metacallEN11QMetaObject4CallEiPPv
libKPim5MessageComposer.so.5:_ZN15MessageComposer11MessagePart11qt_metacastEPKc
libKPim5MessageComposer.so.5:_ZN15MessageComposer11MessagePartC1EP7QObject
libKPim5MessageComposer.so.5:_ZN15MessageComposer11MessagePartC2EP7QObject
libKPim5MessageComposer.so.5:_ZN15MessageComposer11MessagePartD0Ev
libKPim5MessageComposer.so.5:_ZN15MessageComposer11MessagePartD1Ev
libKPim5MessageComposer.so.5:_ZN15MessageComposer11MessagePartD2Ev
libKPim5MessageComposer.so.5:_ZN15MessageComposer12ImageScaling11resizeImageEv
libKPim5MessageComposer.so.5:_ZN15MessageComposer12ImageScaling11setMimetypeERK10QByteArray
libKPim5MessageComposer.so.5:_ZN15MessageComposer12ImageScaling15generateNewNameEv
libKPim5MessageComposer.so.5:_ZN15MessageComposer12ImageScaling17loadImageFromDataERK10QByteArray
libKPim5MessageComposer.so.5:_ZN15MessageComposer12ImageScaling7setNameERK7QString
libKPim5MessageComposer.so.5:_ZN15MessageComposer12ImageScalingC1Ev
libKPim5MessageComposer.so.5:_ZN15MessageComposer12ImageScalingC2Ev
libKPim5MessageComposer.so.5:_ZN15MessageComposer12ImageScalingD1Ev
libKPim5MessageComposer.so.5:_ZN15MessageComposer12ImageScalingD2Ev
libKPim5MessageComposer.so.5:_ZN15MessageComposer12MultipartJob11qt_metacallEN11QMetaObject4CallEiPPv
libKPim5MessageComposer.so.5:_ZN15MessageComposer12MultipartJob11qt_metacastEPKc
libKPim5MessageComposer.so.5:_ZN15MessageComposer12MultipartJob19setMultipartSubtypeERK10QByteArray
libKPim5MessageComposer.so.5:_ZN15MessageComposer12MultipartJob7processEv
libKPim5MessageComposer.so.5:_ZN15MessageComposer12MultipartJobC1EP7QObject
libKPim5MessageComposer.so.5:_ZN15MessageComposer12MultipartJobC2EP7QObject
libKPim5MessageComposer.so.5:_ZN15MessageComposer12MultipartJobD0Ev
libKPim5MessageComposer.so.5:_ZN15MessageComposer12MultipartJobD1Ev
libKPim5MessageComposer.so.5:_ZN15MessageComposer12MultipartJobD2Ev
libKPim5MessageComposer.so.5:_ZN15MessageComposer12PluginEditor11qt_metacallEN11QMetaObject4CallEiPPv
libKPim5MessageComposer.so.5:_ZN15MessageComposer12PluginEditor11qt_metacastEPKc
libKPim5MessageComposer.so.5:_ZN15MessageComposer12PluginEditor8setOrderEi
libKPim5MessageComposer.so.5:_ZN15MessageComposer12PluginEditorC1EP7QObject
libKPim5MessageComposer.so.5:_ZN15MessageComposer12PluginEditorC2EP7QObject
libKPim5MessageComposer.so.5:_ZN15MessageComposer12PluginEditorD0Ev
libKPim5MessageComposer.so.5:_ZN15MessageComposer12PluginEditorD1Ev
libKPim5MessageComposer.so.5:_ZN15MessageComposer12PluginEditorD2Ev
libKPim5MessageComposer.so.5:_ZN15MessageComposer12SendLaterJob11qt_metacallEN11QMetaObject4CallEiPPv
libKPim5MessageComposer.so.5:_ZN15MessageComposer12SendLaterJob11qt_metacastEPKc
libKPim5MessageComposer.so.5:_ZN15MessageComposer12SendLaterJob5startEv
libKPim5MessageComposer.so.5:_ZN15MessageComposer12SendLaterJobC1EP7QObject
libKPim5MessageComposer.so.5:_ZN15MessageComposer12SendLaterJobC2EP7QObject
libKPim5MessageComposer.so.5:_ZN15MessageComposer13AkonadiSender11qt_metacallEN11QMetaObject4CallEiPPv
libKPim5MessageComposer.so.5:_ZN15MessageComposer13AkonadiSender11qt_metacastEPKc
libKPim5MessageComposer.so.5:_ZN15MessageComposer13AkonadiSender12doSendQueuedEi
libKPim5MessageComposer.so.5:_ZN15MessageComposer13AkonadiSender6doSendERK14QSharedPointerIN5KMime7MessageEEs
libKPim5MessageComposer.so.5:_ZN15MessageComposer13AkonadiSenderC1EP7QObject
libKPim5MessageComposer.so.5:_ZN15MessageComposer13AkonadiSenderC2EP7QObject
libKPim5MessageComposer.so.5:_ZN15MessageComposer13AkonadiSenderD0Ev
libKPim5MessageComposer.so.5:_ZN15MessageComposer13AkonadiSenderD1Ev
libKPim5MessageComposer.so.5:_ZN15MessageComposer13AkonadiSenderD2Ev
libKPim5MessageComposer.so.5:_ZN15MessageComposer13AttachmentJob11qt_metacallEN11QMetaObject4CallEiPPv
libKPim5MessageComposer.so.5:_ZN15MessageComposer13AttachmentJob11qt_metacastEPKc
libKPim5MessageComposer.so.5:_ZN15MessageComposer13AttachmentJob17setAttachmentPartERK14QSharedPointerIN11MessageCore14AttachmentPartEE
libKPim5MessageComposer.so.5:_ZN15MessageComposer13AttachmentJob7doStartEv
libKPim5MessageComposer.so.5:_ZN15MessageComposer13AttachmentJob7processEv
libKPim5MessageComposer.so.5:_ZN15MessageComposer13AttachmentJobC1E14QSharedPointerIN11MessageCore14AttachmentPartEEP7QObject
libKPim5MessageComposer.so.5:_ZN15MessageComposer13AttachmentJobC2E14QSharedPointerIN11MessageCore14AttachmentPartEEP7QObject
libKPim5MessageComposer.so.5:_ZN15MessageComposer13AttachmentJobD0Ev
libKPim5MessageComposer.so.5:_ZN15MessageComposer13AttachmentJobD1Ev
libKPim5MessageComposer.so.5:_ZN15MessageComposer13AttachmentJobD2Ev
libKPim5MessageComposer.so.5:_ZN15MessageComposer13SendLaterInfo10setSubjectERK7QString
libKPim5MessageComposer.so.5:_ZN15MessageComposer13SendLaterInfo11setDateTimeERK9QDateTime
libKPim5MessageComposer.so.5:_ZN15MessageComposer13SendLaterInfo13setRecurrenceEb
libKPim5MessageComposer.so.5:_ZN15MessageComposer13SendLaterInfo17setRecurrenceUnitENS0_14RecurrenceUnitE
libKPim5MessageComposer.so.5:_ZN15MessageComposer13SendLaterInfo19setLastDateTimeSendERK9QDateTime
libKPim5MessageComposer.so.5:_ZN15MessageComposer13SendLaterInfo22setRecurrenceEachValueEi
libKPim5MessageComposer.so.5:_ZN15MessageComposer13SendLaterInfo5setToERK7QString
libKPim5MessageComposer.so.5:_ZN15MessageComposer13SendLaterInfo9setItemIdEx
libKPim5MessageComposer.so.5:_ZN15MessageComposer13SendLaterUtil21sentLaterAgentEnabledEv
libKPim5MessageComposer.so.5:_ZN15MessageComposer13SendLaterUtil27sentLaterAgentWasRegisteredEv
libKPim5MessageComposer.so.5:_ZN15MessageComposer13SinglepartJob11contentTypeEv
libKPim5MessageComposer.so.5:_ZN15MessageComposer13SinglepartJob11qt_metacallEN11QMetaObject4CallEiPPv
libKPim5MessageComposer.so.5:_ZN15MessageComposer13SinglepartJob11qt_metacastEPKc
libKPim5MessageComposer.so.5:_ZN15MessageComposer13SinglepartJob18contentDescriptionEv
libKPim5MessageComposer.so.5:_ZN15MessageComposer13SinglepartJob18contentDispositionEv
libKPim5MessageComposer.so.5:_ZN15MessageComposer13SinglepartJob23contentTransferEncodingEv
libKPim5MessageComposer.so.5:_ZN15MessageComposer13SinglepartJob7processEv
libKPim5MessageComposer.so.5:_ZN15MessageComposer13SinglepartJob7setDataERK10QByteArray
libKPim5MessageComposer.so.5:_ZN15MessageComposer13SinglepartJob9contentIDEv
libKPim5MessageComposer.so.5:_ZN15MessageComposer13SinglepartJobC1EP7QObject
libKPim5MessageComposer.so.5:_ZN15MessageComposer13SinglepartJobC2EP7QObject
libKPim5MessageComposer.so.5:_ZN15MessageComposer13SinglepartJobD0Ev
libKPim5MessageComposer.so.5:_ZN15MessageComposer13SinglepartJobD1Ev
libKPim5MessageComposer.so.5:_ZN15MessageComposer13SinglepartJobD2Ev
libKPim5MessageComposer.so.5:_ZN15MessageComposer14ContentJobBase10slotResultEP4KJob
libKPim5MessageComposer.so.5:_ZN15MessageComposer14ContentJobBase11qt_metacallEN11QMetaObject4CallEiPPv
libKPim5MessageComposer.so.5:_ZN15MessageComposer14ContentJobBase11qt_metacastEPKc
libKPim5MessageComposer.so.5:_ZN15MessageComposer14ContentJobBase12appendSubjobEPS0_
libKPim5MessageComposer.so.5:_ZN15MessageComposer14ContentJobBase15setExtraContentEPN5KMime7ContentE
libKPim5MessageComposer.so.5:_ZN15MessageComposer14ContentJobBase5startEv
libKPim5MessageComposer.so.5:_ZN15MessageComposer14ContentJobBase7doStartEv
libKPim5MessageComposer.so.5:_ZN15MessageComposer14ContentJobBase9addSubjobEP4KJob
libKPim5MessageComposer.so.5:_ZN15MessageComposer14ContentJobBaseC1EP7QObject
libKPim5MessageComposer.so.5:_ZN15MessageComposer14ContentJobBaseC1ERNS_21ContentJobBasePrivateEP7QObject
libKPim5MessageComposer.so.5:_ZN15MessageComposer14ContentJobBaseC2EP7QObject
libKPim5MessageComposer.so.5:_ZN15MessageComposer14ContentJobBaseC2ERNS_21ContentJobBasePrivateEP7QObject
libKPim5MessageComposer.so.5:_ZN15MessageComposer14ContentJobBaseD0Ev
libKPim5MessageComposer.so.5:_ZN15MessageComposer14ContentJobBaseD1Ev
libKPim5MessageComposer.so.5:_ZN15MessageComposer14ContentJobBaseD2Ev
libKPim5MessageComposer.so.5:_ZN15MessageComposer14SignEncryptJob10setContentEPN5KMime7ContentE
libKPim5MessageComposer.so.5:_ZN15MessageComposer14SignEncryptJob10slotResultEP4KJob
libKPim5MessageComposer.so.5:_ZN15MessageComposer14SignEncryptJob11origContentEv
libKPim5MessageComposer.so.5:_ZN15MessageComposer14SignEncryptJob11qt_metacallEN11QMetaObject4CallEiPPv
libKPim5MessageComposer.so.5:_ZN15MessageComposer14SignEncryptJob11qt_metacastEPKc
libKPim5MessageComposer.so.5:_ZN15MessageComposer14SignEncryptJob13setRecipientsERK11QStringList
libKPim5MessageComposer.so.5:_ZN15MessageComposer14SignEncryptJob14setSigningKeysERKSt6vectorIN5GpgME3KeyESaIS3_EE
libKPim5MessageComposer.so.5:_ZN15MessageComposer14SignEncryptJob17setEncryptionKeysERKSt6vectorIN5GpgME3KeyESaIS3_EE
libKPim5MessageComposer.so.5:_ZN15MessageComposer14SignEncryptJob18setSkeletonMessageEPN5KMime7MessageE
libKPim5MessageComposer.so.5:_ZN15MessageComposer14SignEncryptJob19setProtectedHeadersEb
libKPim5MessageComposer.so.5:_ZN15MessageComposer14SignEncryptJob22setCryptoMessageFormatEN4Kleo19CryptoMessageFormatE
libKPim5MessageComposer.so.5:_ZN15MessageComposer14SignEncryptJob28setProtectedHeadersObvoscateEb
libKPim5MessageComposer.so.5:_ZN15MessageComposer14SignEncryptJob7doStartEv
libKPim5MessageComposer.so.5:_ZN15MessageComposer14SignEncryptJob7processEv
libKPim5MessageComposer.so.5:_ZN15MessageComposer14SignEncryptJobC1EP7QObject
libKPim5MessageComposer.so.5:_ZN15MessageComposer14SignEncryptJobC2EP7QObject
libKPim5MessageComposer.so.5:_ZN15MessageComposer14SignEncryptJobD0Ev
libKPim5MessageComposer.so.5:_ZN15MessageComposer14SignEncryptJobD1Ev
libKPim5MessageComposer.so.5:_ZN15MessageComposer14SignEncryptJobD2Ev
libKPim5MessageComposer.so.5:_ZN15MessageComposer14TransparentJob10setContentEPN5KMime7ContentE
libKPim5MessageComposer.so.5:_ZN15MessageComposer14TransparentJob11qt_metacallEN11QMetaObject4CallEiPPv
libKPim5MessageComposer.so.5:_ZN15MessageComposer14TransparentJob11qt_metacastEPKc
libKPim5MessageComposer.so.5:_ZN15MessageComposer14TransparentJob7processEv
libKPim5MessageComposer.so.5:_ZN15MessageComposer14TransparentJobC1EP7QObject
libKPim5MessageComposer.so.5:_ZN15MessageComposer14TransparentJobC2EP7QObject
libKPim5MessageComposer.so.5:_ZN15MessageComposer14TransparentJobD0Ev
libKPim5MessageComposer.so.5:_ZN15MessageComposer14TransparentJobD1Ev
libKPim5MessageComposer.so.5:_ZN15MessageComposer14TransparentJobD2Ev
libKPim5MessageComposer.so.5:_ZN15MessageComposer15AttachmentModel11qt_metacallEN11QMetaObject4CallEiPPv
libKPim5MessageComposer.so.5:_ZN15MessageComposer15AttachmentModel11qt_metacastEPKc
libKPim5MessageComposer.so.5:_ZN15MessageComposer15AttachmentModel11setModifiedEb
libKPim5MessageComposer.so.5:_ZN15MessageComposer15AttachmentModel11signEnabledEb
libKPim5MessageComposer.so.5:_ZN15MessageComposer15AttachmentModel12dropMimeDataEPK9QMimeDataN2Qt10DropActionEiiRK11QModelIndex
libKPim5MessageComposer.so.5:_ZN15MessageComposer15AttachmentModel13addAttachmentERK14QSharedPointerIN11MessageCore14AttachmentPartEE
libKPim5MessageComposer.so.5:_ZN15MessageComposer15AttachmentModel14encryptEnabledEb
libKPim5MessageComposer.so.5:_ZN15MessageComposer15AttachmentModel14setSignEnabledEb
libKPim5MessageComposer.so.5:_ZN15MessageComposer15AttachmentModel15setSignSelectedEb
libKPim5MessageComposer.so.5:_ZN15MessageComposer15AttachmentModel16removeAttachmentERK14QSharedPointerIN11MessageCore14AttachmentPartEE
libKPim5MessageComposer.so.5:_ZN15MessageComposer15AttachmentModel16updateAttachmentERK14QSharedPointerIN11MessageCore14AttachmentPartEE
libKPim5MessageComposer.so.5:_ZN15MessageComposer15AttachmentModel17attachmentRemovedE14QSharedPointerIN11MessageCore14AttachmentPartEE
libKPim5MessageComposer.so.5:_ZN15MessageComposer15AttachmentModel17replaceAttachmentERK14QSharedPointerIN11MessageCore14AttachmentPartEES6_
libKPim5MessageComposer.so.5:_ZN15MessageComposer15AttachmentModel17setEncryptEnabledEb
libKPim5MessageComposer.so.5:_ZN15MessageComposer15AttachmentModel18autoDisplayEnabledEb
libKPim5MessageComposer.so.5:_ZN15MessageComposer15AttachmentModel18setEncryptSelectedEb
libKPim5MessageComposer.so.5:_ZN15MessageComposer15AttachmentModel19attachUrlsRequestedERK5QListI4QUrlE
libKPim5MessageComposer.so.5:_ZN15MessageComposer15AttachmentModel20attachItemsRequesterERK7QVectorIN7Akonadi4ItemEE
libKPim5MessageComposer.so.5:_ZN15MessageComposer15AttachmentModel21setAutoDisplayEnabledEb
libKPim5MessageComposer.so.5:_ZN15MessageComposer15AttachmentModel22AttachmentModelPrivateC1EPS0_
libKPim5MessageComposer.so.5:_ZN15MessageComposer15AttachmentModel22AttachmentModelPrivateC2EPS0_
libKPim5MessageComposer.so.5:_ZN15MessageComposer15AttachmentModel22AttachmentModelPrivateD1Ev
libKPim5MessageComposer.so.5:_ZN15MessageComposer15AttachmentModel22AttachmentModelPrivateD2Ev
libKPim5MessageComposer.so.5:_ZN15MessageComposer15AttachmentModel27attachmentCompressRequestedE14QSharedPointerIN11MessageCore14AttachmentPartEEb
libKPim5MessageComposer.so.5:_ZN15MessageComposer15AttachmentModel7setDataERK11QModelIndexRK8QVarianti
libKPim5MessageComposer.so.5:_ZN15MessageComposer15AttachmentModelC1EP7QObject
libKPim5MessageComposer.so.5:_ZN15MessageComposer15AttachmentModelC2EP7QObject
libKPim5MessageComposer.so.5:_ZN15MessageComposer15AttachmentModelD0Ev
libKPim5MessageComposer.so.5:_ZN15MessageComposer15AttachmentModelD1Ev
libKPim5MessageComposer.so.5:_ZN15MessageComposer15AttachmentModelD2Ev
libKPim5MessageComposer.so.5:_ZN15MessageComposer15MDNAdviceDialog11qt_metacallEN11QMetaObject4CallEiPPv
libKPim5MessageComposer.so.5:_ZN15MessageComposer15MDNAdviceDialog11qt_metacastEPKc
libKPim5MessageComposer.so.5:_ZN15MessageComposer15MDNAdviceDialogC1ERK7QStringbP7QWidget
libKPim5MessageComposer.so.5:_ZN15MessageComposer15MDNAdviceDialogC2ERK7QStringbP7QWidget
libKPim5MessageComposer.so.5:_ZN15MessageComposer15MDNAdviceDialogD0Ev
libKPim5MessageComposer.so.5:_ZN15MessageComposer15MDNAdviceDialogD1Ev
libKPim5MessageComposer.so.5:_ZN15MessageComposer15MDNAdviceDialogD2Ev
libKPim5MessageComposer.so.5:_ZN15MessageComposer15MDNAdviceHelper11qt_metacallEN11QMetaObject4CallEiPPv
libKPim5MessageComposer.so.5:_ZN15MessageComposer15MDNAdviceHelper11qt_metacastEPKc
libKPim5MessageComposer.so.5:_ZN15MessageComposer15MDNAdviceHelper14mdnMessageTextEPKc
libKPim5MessageComposer.so.5:_ZN15MessageComposer15MDNAdviceHelper18checkAndSetMDNInfoERKN7Akonadi4ItemEN5KMime3MDN15DispositionTypeEb
libKPim5MessageComposer.so.5:_ZN15MessageComposer15MDNAdviceHelper22dispositionToSentStateEN5KMime3MDN15DispositionTypeE
libKPim5MessageComposer.so.5:_ZN15MessageComposer15RecipientLineNG11analyzeLineERK7QString
libKPim5MessageComposer.so.5:_ZN15MessageComposer15RecipientLineNG11eventFilterEP7QObjectP6QEvent
libKPim5MessageComposer.so.5:_ZN15MessageComposer15RecipientLineNG11fixTabOrderEP7QWidget
libKPim5MessageComposer.so.5:_ZN15MessageComposer15RecipientLineNG11iconClickedEv
libKPim5MessageComposer.so.5:_ZN15MessageComposer15RecipientLineNG11qt_metacallEN11QMetaObject4CallEiPPv
libKPim5MessageComposer.so.5:_ZN15MessageComposer15RecipientLineNG11qt_metacastEPKc
libKPim5MessageComposer.so.5:_ZN15MessageComposer15RecipientLineNG12addRecipientEPS0_RK7QString
libKPim5MessageComposer.so.5:_ZN15MessageComposer15RecipientLineNG12countChangedEv
libKPim5MessageComposer.so.5:_ZN15MessageComposer15RecipientLineNG12typeModifiedEPS0_
libKPim5MessageComposer.so.5:_ZN15MessageComposer15RecipientLineNG13activeChangedEv
libKPim5MessageComposer.so.5:_ZN15MessageComposer15RecipientLineNG13clearModifiedEv
libKPim5MessageComposer.so.5:_ZN15MessageComposer15RecipientLineNG14setColumnWidthEi
libKPim5MessageComposer.so.5:_ZN15MessageComposer15RecipientLineNG16setRecipientTypeENS_9Recipient4TypeE
libKPim5MessageComposer.so.5:_ZN15MessageComposer15RecipientLineNG16slotTypeModifiedEv
libKPim5MessageComposer.so.5:_ZN15MessageComposer15RecipientLineNG17setCompletionModeEN11KCompletion14CompletionModeE
libKPim5MessageComposer.so.5:_ZN15MessageComposer15RecipientLineNG19slotEditingFinishedEv
libKPim5MessageComposer.so.5:_ZN15MessageComposer15RecipientLineNG20setEnableIndexSearchEb
libKPim5MessageComposer.so.5:_ZN15MessageComposer15RecipientLineNG22setEnableAkonadiSearchEb
libKPim5MessageComposer.so.5:_ZN15MessageComposer15RecipientLineNG22setRecentAddressConfigEP7KConfig
libKPim5MessageComposer.so.5:_ZN15MessageComposer15RecipientLineNG5clearEv
libKPim5MessageComposer.so.5:_ZN15MessageComposer15RecipientLineNG7setDataERK14QSharedPointerIN4KPIM19MultiplyingLineDataEE
libKPim5MessageComposer.so.5:_ZN15MessageComposer15RecipientLineNG7setIconERK5QIconRK7QString
libKPim5MessageComposer.so.5:_ZN15MessageComposer15RecipientLineNG8activateEv
libKPim5MessageComposer.so.5:_ZN15MessageComposer15RecipientLineNGC1EP7QWidget
libKPim5MessageComposer.so.5:_ZN15MessageComposer15RecipientLineNGC2EP7QWidget
libKPim5MessageComposer.so.5:_ZN15MessageComposer15SendLaterDialog11qt_metacallEN11QMetaObject4CallEiPPv
libKPim5MessageComposer.so.5:_ZN15MessageComposer15SendLaterDialog11qt_metacastEPKc
libKPim5MessageComposer.so.5:_ZN15MessageComposer15SendLaterDialog4infoEv
libKPim5MessageComposer.so.5:_ZN15MessageComposer15SendLaterDialogC1EPNS_13SendLaterInfoEP7QWidget
libKPim5MessageComposer.so.5:_ZN15MessageComposer15SendLaterDialogC2EPNS_13SendLaterInfoEP7QWidget
libKPim5MessageComposer.so.5:_ZN15MessageComposer15SendLaterDialogD0Ev
libKPim5MessageComposer.so.5:_ZN15MessageComposer15SendLaterDialogD1Ev
libKPim5MessageComposer.so.5:_ZN15MessageComposer15SendLaterDialogD2Ev
libKPim5MessageComposer.so.5:_ZN15MessageComposer16AliasesExpandJob11qt_metacallEN11QMetaObject4CallEiPPv
libKPim5MessageComposer.so.5:_ZN15MessageComposer16AliasesExpandJob11qt_metacastEPKc
libKPim5MessageComposer.so.5:_ZN15MessageComposer16AliasesExpandJob5startEv
libKPim5MessageComposer.so.5:_ZN15MessageComposer16AliasesExpandJobC1ERK7QStringS3_P7QObject
libKPim5MessageComposer.so.5:_ZN15MessageComposer16AliasesExpandJobC2ERK7QStringS3_P7QObject
libKPim5MessageComposer.so.5:_ZN15MessageComposer16AliasesExpandJobD0Ev
libKPim5MessageComposer.so.5:_ZN15MessageComposer16AliasesExpandJobD1Ev
libKPim5MessageComposer.so.5:_ZN15MessageComposer16AliasesExpandJobD2Ev
libKPim5MessageComposer.so.5:_ZN15MessageComposer16ComposerLineEdit11qt_metacallEN11QMetaObject4CallEiPPv
libKPim5MessageComposer.so.5:_ZN15MessageComposer16ComposerLineEdit11qt_metacastEPKc
libKPim5MessageComposer.so.5:_ZN15MessageComposer16ComposerLineEdit13keyPressEventEP9QKeyEvent
libKPim5MessageComposer.so.5:_ZN15MessageComposer16ComposerLineEdit7focusUpEv
libKPim5MessageComposer.so.5:_ZN15MessageComposer16ComposerLineEdit9focusDownEv
libKPim5MessageComposer.so.5:_ZN15MessageComposer16ComposerLineEditC1EbP7QWidget
libKPim5MessageComposer.so.5:_ZN15MessageComposer16ComposerLineEditC2EbP7QWidget
libKPim5MessageComposer.so.5:_ZN15MessageComposer16ComposerLineEditD0Ev
libKPim5MessageComposer.so.5:_ZN15MessageComposer16ComposerLineEditD1Ev
libKPim5MessageComposer.so.5:_ZN15MessageComposer16ComposerLineEditD2Ev
libKPim5MessageComposer.so.5:_ZN15MessageComposer16ComposerViewBase10enableHtmlEv
libKPim5MessageComposer.so.5:_ZN15MessageComposer16ComposerViewBase10setMessageERK14QSharedPointerIN5KMime7MessageEEb
libKPim5MessageComposer.so.5:_ZN15MessageComposer16ComposerViewBase10setSubjectERK7QString
libKPim5MessageComposer.so.5:_ZN15MessageComposer16ComposerViewBase11disableHtmlENS0_12ConfirmationE
libKPim5MessageComposer.so.5:_ZN15MessageComposer16ComposerViewBase11qt_metacallEN11QMetaObject4CallEiPPv
libKPim5MessageComposer.so.5:_ZN15MessageComposer16ComposerViewBase11qt_metacastEPKc
libKPim5MessageComposer.so.5:_ZN15MessageComposer16ComposerViewBase11saveMessageERK14QSharedPointerIN5KMime7MessageEENS_13MessageSender6SaveInE
libKPim5MessageComposer.so.5:_ZN15MessageComposer16ComposerViewBase11setCharsetsERK7QVectorI10QByteArrayE
libKPim5MessageComposer.so.5:_ZN15MessageComposer16ComposerViewBase11setFccComboEPN7Akonadi18CollectionComboBoxE
libKPim5MessageComposer.so.5:_ZN15MessageComposer16ComposerViewBase12fillComposerEPNS_8ComposerE
libKPim5MessageComposer.so.5:_ZN15MessageComposer16ComposerViewBase12fillComposerEPNS_8ComposerENS0_18RecipientExpansionEb
libKPim5MessageComposer.so.5:_ZN15MessageComposer16ComposerViewBase12fillInfoPartEPNS_8InfoPartENS0_18RecipientExpansionE
libKPim5MessageComposer.so.5:_ZN15MessageComposer16ComposerViewBase12initAutoSaveEv
libKPim5MessageComposer.so.5:_ZN15MessageComposer16ComposerViewBase12queueMessageERK14QSharedPointerIN5KMime7MessageEEPNS_8ComposerE
libKPim5MessageComposer.so.5:_ZN15MessageComposer16ComposerViewBase13addAttachmentERK4QUrlRK7QStringb
libKPim5MessageComposer.so.5:_ZN15MessageComposer16ComposerViewBase13addAttachmentERK7QStringS3_S3_RK10QByteArrayS6_
libKPim5MessageComposer.so.5:_ZN15MessageComposer16ComposerViewBase13clearFollowUpEv
libKPim5MessageComposer.so.5:_ZN15MessageComposer16ComposerViewBase13collectImagesEPN5KMime7ContentE
libKPim5MessageComposer.so.5:_ZN15MessageComposer16ComposerViewBase13expiryCheckerEv
libKPim5MessageComposer.so.5:_ZN15MessageComposer16ComposerViewBase13identityComboEv
libKPim5MessageComposer.so.5:_ZN15MessageComposer16ComposerViewBase13setDictionaryEPN6Sonnet18DictionaryComboBoxE
libKPim5MessageComposer.so.5:_ZN15MessageComposer16ComposerViewBase14fillGlobalPartEPNS_10GlobalPartE
libKPim5MessageComposer.so.5:_ZN15MessageComposer16ComposerViewBase14updateAutoSaveEv
libKPim5MessageComposer.so.5:_ZN15MessageComposer16ComposerViewBase14updateTemplateERK14QSharedPointerIN5KMime7MessageEE
libKPim5MessageComposer.so.5:_ZN15MessageComposer16ComposerViewBase15attachmentModelEv
libKPim5MessageComposer.so.5:_ZN15MessageComposer16ComposerViewBase15autoSaveMessageEv
libKPim5MessageComposer.so.5:_ZN15MessageComposer16ComposerViewBase15cleanupAutoSaveEv
libKPim5MessageComposer.so.5:_ZN15MessageComposer16ComposerViewBase15identityChangedERKN19KIdentityManagement8IdentityES4_b
libKPim5MessageComposer.so.5:_ZN15MessageComposer16ComposerViewBase15identityManagerEv
libKPim5MessageComposer.so.5:_ZN15MessageComposer16ComposerViewBase15readyForSendingEv
libKPim5MessageComposer.so.5:_ZN15MessageComposer16ComposerViewBase15setCustomHeaderERK4QMapI10QByteArray7QStringE
libKPim5MessageComposer.so.5:_ZN15MessageComposer16ComposerViewBase15setFollowUpDateERK5QDate
libKPim5MessageComposer.so.5:_ZN15MessageComposer16ComposerViewBase15setMDNRequestedEb
libKPim5MessageComposer.so.5:_ZN15MessageComposer16ComposerViewBase15slotQueueResultEP4KJob
libKPim5MessageComposer.so.5:_ZN15MessageComposer16ComposerViewBase15slotSaveMessageEP4KJob
libKPim5MessageComposer.so.5:_ZN15MessageComposer16ComposerViewBase16addKeysToContextERK7QStringRK7QVectorI5QPairI11QStringListSt6vectorIN5GpgME3KeyESaIS9_EEEERKSt3mapI10QByteArrayS1_St4lessISH_ESaISt4pairIKSH_S1_EEE
libKPim5MessageComposer.so.5:_ZN15MessageComposer16ComposerViewBase16addSendLaterItemERKN7Akonadi4ItemE
libKPim5MessageComposer.so.5:_ZN15MessageComposer16ComposerViewBase16recipientsEditorEv
libKPim5MessageComposer.so.5:_ZN15MessageComposer16ComposerViewBase16saveMailSettingsEv
libKPim5MessageComposer.so.5:_ZN15MessageComposer16ComposerViewBase16sentSuccessfullyEx
libKPim5MessageComposer.so.5:_ZN15MessageComposer16ComposerViewBase16setCryptoOptionsEbbN4Kleo19CryptoMessageFormatEb
libKPim5MessageComposer.so.5:_ZN15MessageComposer16ComposerViewBase16setIdentityComboEPN19KIdentityManagement13IdentityComboE
libKPim5MessageComposer.so.5:_ZN15MessageComposer16ComposerViewBase16setSendLaterInfoEPNS_13SendLaterInfoE
libKPim5MessageComposer.so.5:_ZN15MessageComposer16ComposerViewBase16tooManyRecipientEb
libKPim5MessageComposer.so.5:_ZN15MessageComposer16ComposerViewBase16updateRecipientsERKN19KIdentityManagement8IdentityES4_NS_9Recipient4TypeE
libKPim5MessageComposer.so.5:_ZN15MessageComposer16ComposerViewBase17addAttachmentPartEPN5KMime7ContentE
libKPim5MessageComposer.so.5:_ZN15MessageComposer16ComposerViewBase17setTransportComboEPN13MailTransport17TransportComboBoxE
libKPim5MessageComposer.so.5:_ZN15MessageComposer16ComposerViewBase18setAttachmentModelEPNS_15AttachmentModelE
libKPim5MessageComposer.so.5:_ZN15MessageComposer16ComposerViewBase18setIdentityManagerEPN19KIdentityManagement15IdentityManagerE
libKPim5MessageComposer.so.5:_ZN15MessageComposer16ComposerViewBase19addFollowupReminderERK7QString
libKPim5MessageComposer.so.5:_ZN15MessageComposer16ComposerViewBase19saveRecentAddressesERK14QSharedPointerIN5KMime7MessageEE
libKPim5MessageComposer.so.5:_ZN15MessageComposer16ComposerViewBase19setAutoSaveFileNameERK7QString
libKPim5MessageComposer.so.5:_ZN15MessageComposer16ComposerViewBase19setAutoSaveIntervalEi
libKPim5MessageComposer.so.5:_ZN15MessageComposer16ComposerViewBase19setRecipientsEditorEPNS_16RecipientsEditorE
libKPim5MessageComposer.so.5:_ZN15MessageComposer16ComposerViewBase19signatureControllerEv
libKPim5MessageComposer.so.5:_ZN15MessageComposer16ComposerViewBase19writeAutoSaveToDiskERK14QSharedPointerIN5KMime7MessageEE
libKPim5MessageComposer.so.5:_ZN15MessageComposer16ComposerViewBase20attachmentControllerEv
libKPim5MessageComposer.so.5:_ZN15MessageComposer16ComposerViewBase20slotCreateItemResultEP4KJob
libKPim5MessageComposer.so.5:_ZN15MessageComposer16ComposerViewBase21hasMissingAttachmentsERK11QStringList
libKPim5MessageComposer.so.5:_ZN15MessageComposer16ComposerViewBase21setFollowUpCollectionERKN7Akonadi10CollectionE
libKPim5MessageComposer.so.5:_ZN15MessageComposer16ComposerViewBase21setParentWidgetForGuiEP7QWidget
libKPim5MessageComposer.so.5:_ZN15MessageComposer16ComposerViewBase21slotSendComposeResultEP4KJob
libKPim5MessageComposer.so.5:_ZN15MessageComposer16ComposerViewBase22determineWhetherToSignEbPN4Kleo11KeyResolverEbRbS4_
libKPim5MessageComposer.so.5:_ZN15MessageComposer16ComposerViewBase22generateCryptoMessagesERb
libKPim5MessageComposer.so.5:_ZN15MessageComposer16ComposerViewBase22setSignatureControllerEPNS_19SignatureControllerE
libKPim5MessageComposer.so.5:_ZN15MessageComposer16ComposerViewBase23setAkonadiLookupEnabledEb
libKPim5MessageComposer.so.5:_ZN15MessageComposer16ComposerViewBase23setAttachmentControllerEPNS_24AttachmentControllerBaseE
libKPim5MessageComposer.so.5:_ZN15MessageComposer16ComposerViewBase24slotEmailAddressResolvedEP4KJob
libKPim5MessageComposer.so.5:_ZN15MessageComposer16ComposerViewBase25determineWhetherToEncryptEbPN4Kleo11KeyResolverEbbRbS4_
libKPim5MessageComposer.so.5:_ZN15MessageComposer16ComposerViewBase25slotAutoSaveComposeResultEP4KJob
libKPim5MessageComposer.so.5:_ZN15MessageComposer16ComposerViewBase26checkForMissingAttachmentsERK11QStringList
libKPim5MessageComposer.so.5:_ZN15MessageComposer16ComposerViewBase28markAllAttachmentsForSigningEb
libKPim5MessageComposer.so.5:_ZN15MessageComposer16ComposerViewBase28slotFccCollectionCheckResultEP4KJob
libKPim5MessageComposer.so.5:_ZN15MessageComposer16ComposerViewBase30setRequestDeleveryConfirmationEb
libKPim5MessageComposer.so.5:_ZN15MessageComposer16ComposerViewBase31markAllAttachmentsForEncryptionEb
libKPim5MessageComposer.so.5:_ZN15MessageComposer16ComposerViewBase4sendENS_13MessageSender10SendMethodENS1_6SaveInEb
libKPim5MessageComposer.so.5:_ZN15MessageComposer16ComposerViewBase6failedERK7QStringNS0_10FailedTypeE
libKPim5MessageComposer.so.5:_ZN15MessageComposer16ComposerViewBase6setFccERKN7Akonadi10CollectionE
libKPim5MessageComposer.so.5:_ZN15MessageComposer16ComposerViewBase7setFromERK7QString
libKPim5MessageComposer.so.5:_ZN15MessageComposer16ComposerViewBase8modifiedEb
libKPim5MessageComposer.so.5:_ZN15MessageComposer16ComposerViewBase9setEditorEPNS_18RichTextComposerNgE
libKPim5MessageComposer.so.5:_ZN15MessageComposer16ComposerViewBase9setUrgentEb
libKPim5MessageComposer.so.5:_ZN15MessageComposer16ComposerViewBaseC1EP7QObjectP7QWidget
libKPim5MessageComposer.so.5:_ZN15MessageComposer16ComposerViewBaseC2EP7QObjectP7QWidget
libKPim5MessageComposer.so.5:_ZN15MessageComposer16ComposerViewBaseD0Ev
libKPim5MessageComposer.so.5:_ZN15MessageComposer16ComposerViewBaseD1Ev
libKPim5MessageComposer.so.5:_ZN15MessageComposer16ComposerViewBaseD2Ev
libKPim5MessageComposer.so.5:_ZN15MessageComposer16FollowUpReminder21isAvailableAndEnabledEv
libKPim5MessageComposer.so.5:_ZN15MessageComposer16MessageFactoryNG11qt_metacallEN11QMetaObject4CallEiPPv
libKPim5MessageComposer.so.5:_ZN15MessageComposer16MessageFactoryNG11qt_metacastEPKc
libKPim5MessageComposer.so.5:_ZN15MessageComposer16MessageFactoryNG11setTemplateERK7QString
libKPim5MessageComposer.so.5:_ZN15MessageComposer16MessageFactoryNG12MDNRequestedERK14QSharedPointerIN5KMime7MessageEE
libKPim5MessageComposer.so.5:_ZN15MessageComposer16MessageFactoryNG12createResendEv
libKPim5MessageComposer.so.5:_ZN15MessageComposer16MessageFactoryNG12setSelectionERK7QString
libKPim5MessageComposer.so.5:_ZN15MessageComposer16MessageFactoryNG14createRedirectERK7QStringS3_S3_iS3_i
libKPim5MessageComposer.so.5:_ZN15MessageComposer16MessageFactoryNG14setReplyAsHtmlEb
libKPim5MessageComposer.so.5:_ZN15MessageComposer16MessageFactoryNG15createReplyDoneERKNS0_12MessageReplyE
libKPim5MessageComposer.so.5:_ZN15MessageComposer16MessageFactoryNG16createReplyAsyncEv
libKPim5MessageComposer.so.5:_ZN15MessageComposer16MessageFactoryNG16setReplyStrategyENS_13ReplyStrategyE
libKPim5MessageComposer.so.5:_ZN15MessageComposer16MessageFactoryNG17createForwardDoneERK14QSharedPointerIN5KMime7MessageEE
libKPim5MessageComposer.so.5:_ZN15MessageComposer16MessageFactoryNG17setFolderIdentityEj
libKPim5MessageComposer.so.5:_ZN15MessageComposer16MessageFactoryNG18MDNReturnPathEmptyERK14QSharedPointerIN5KMime7MessageEE
libKPim5MessageComposer.so.5:_ZN15MessageComposer16MessageFactoryNG18createForwardAsyncEv
libKPim5MessageComposer.so.5:_ZN15MessageComposer16MessageFactoryNG18setIdentityManagerEPN19KIdentityManagement15IdentityManagerE
libKPim5MessageComposer.so.5:_ZN15MessageComposer16MessageFactoryNG19MDNMDNUnknownOptionERK14QSharedPointerIN5KMime7MessageEE
libKPim5MessageComposer.so.5:_ZN15MessageComposer16MessageFactoryNG21createAttachedForwardERK7QVectorIN7Akonadi4ItemEE
libKPim5MessageComposer.so.5:_ZN15MessageComposer16MessageFactoryNG21createDeliveryReceiptEv
libKPim5MessageComposer.so.5:_ZN15MessageComposer16MessageFactoryNG22putRepliesInSameFolderEx
libKPim5MessageComposer.so.5:_ZN15MessageComposer16MessageFactoryNG23createForwardDigestMIMEERK7QVectorIN7Akonadi4ItemEE
libKPim5MessageComposer.so.5:_ZN15MessageComposer16MessageFactoryNG23setMailingListAddressesERK7QVectorIN5KMime5Types7MailboxEE
libKPim5MessageComposer.so.5:_ZN15MessageComposer16MessageFactoryNG27MDNReturnPathNotInRecieptToERK14QSharedPointerIN5KMime7MessageEE
libKPim5MessageComposer.so.5:_ZN15MessageComposer16MessageFactoryNG28MDNConfirmMultipleRecipientsERK14QSharedPointerIN5KMime7MessageEE
libKPim5MessageComposer.so.5:_ZN15MessageComposer16MessageFactoryNG8setQuoteEb
libKPim5MessageComposer.so.5:_ZN15MessageComposer16MessageFactoryNG9createMDNEN5KMime3MDN10ActionModeENS2_15DispositionTypeENS2_11SendingModeEiRK7QVectorINS2_19DispositionModifierEE
libKPim5MessageComposer.so.5:_ZN15MessageComposer16MessageFactoryNGC1ERK14QSharedPointerIN5KMime7MessageEExRKN7Akonadi10CollectionEP7QObject
libKPim5MessageComposer.so.5:_ZN15MessageComposer16MessageFactoryNGC2ERK14QSharedPointerIN5KMime7MessageEExRKN7Akonadi10CollectionEP7QObject
libKPim5MessageComposer.so.5:_ZN15MessageComposer16MessageFactoryNGD0Ev
libKPim5MessageComposer.so.5:_ZN15MessageComposer16MessageFactoryNGD1Ev
libKPim5MessageComposer.so.5:_ZN15MessageComposer16MessageFactoryNGD2Ev
libKPim5MessageComposer.so.5:_ZN15MessageComposer16PluginActionType18actionXmlExtensionENS0_4TypeE
libKPim5MessageComposer.so.5:_ZN15MessageComposer16PluginActionTypeC1EP7QActionNS0_4TypeE
libKPim5MessageComposer.so.5:_ZN15MessageComposer16PluginActionTypeC1Ev
libKPim5MessageComposer.so.5:_ZN15MessageComposer16PluginActionTypeC2EP7QActionNS0_4TypeE
libKPim5MessageComposer.so.5:_ZN15MessageComposer16PluginActionTypeC2Ev
libKPim5MessageComposer.so.5:_ZN15MessageComposer16PluginEditorBase11qt_metacallEN11QMetaObject4CallEiPPv
libKPim5MessageComposer.so.5:_ZN15MessageComposer16PluginEditorBase11qt_metacastEPKc
libKPim5MessageComposer.so.5:_ZN15MessageComposer16PluginEditorBase12setIsEnabledEb
libKPim5MessageComposer.so.5:_ZN15MessageComposer16PluginEditorBase13configChangedEv
libKPim5MessageComposer.so.5:_ZN15MessageComposer16PluginEditorBase17emitConfigChangedEv
libKPim5MessageComposer.so.5:_ZN15MessageComposer16PluginEditorBase19showConfigureDialogEP7QWidget
libKPim5MessageComposer.so.5:_ZN15MessageComposer16PluginEditorBaseC1EP7QObject
libKPim5MessageComposer.so.5:_ZN15MessageComposer16PluginEditorBaseC2EP7QObject
libKPim5MessageComposer.so.5:_ZN15MessageComposer16PluginEditorBaseD0Ev
libKPim5MessageComposer.so.5:_ZN15MessageComposer16PluginEditorBaseD1Ev
libKPim5MessageComposer.so.5:_ZN15MessageComposer16PluginEditorBaseD2Ev
libKPim5MessageComposer.so.5:_ZN15MessageComposer16PluginEditorInit11qt_metacallEN11QMetaObject4CallEiPPv
libKPim5MessageComposer.so.5:_ZN15MessageComposer16PluginEditorInit11qt_metacastEPKc
libKPim5MessageComposer.so.5:_ZN15MessageComposer16PluginEditorInitC1EP7QObject
libKPim5MessageComposer.so.5:_ZN15MessageComposer16PluginEditorInitC2EP7QObject
libKPim5MessageComposer.so.5:_ZN15MessageComposer16PluginEditorInitD0Ev
libKPim5MessageComposer.so.5:_ZN15MessageComposer16PluginEditorInitD1Ev
libKPim5MessageComposer.so.5:_ZN15MessageComposer16PluginEditorInitD2Ev
libKPim5MessageComposer.so.5:_ZN15MessageComposer16RecipientsEditor11eventFilterEP7QObjectP6QEvent
libKPim5MessageComposer.so.5:_ZN15MessageComposer16RecipientsEditor11qt_metacallEN11QMetaObject4CallEiPPv
libKPim5MessageComposer.so.5:_ZN15MessageComposer16RecipientsEditor11qt_metacastEPKc
libKPim5MessageComposer.so.5:_ZN15MessageComposer16RecipientsEditor12addRecipientEPNS_15RecipientLineNGERK7QString
libKPim5MessageComposer.so.5:_ZN15MessageComposer16RecipientsEditor12addRecipientERK7QStringNS_9Recipient4TypeE
libKPim5MessageComposer.so.5:_ZN15MessageComposer16RecipientsEditor13slotLineAddedEPN4KPIM15MultiplyingLineE
libKPim5MessageComposer.so.5:_ZN15MessageComposer16RecipientsEditor15removeRecipientERK7QStringNS_9Recipient4TypeE
libKPim5MessageComposer.so.5:_ZN15MessageComposer16RecipientsEditor15slotLineDeletedEi
libKPim5MessageComposer.so.5:_ZN15MessageComposer16RecipientsEditor16selectRecipientsEv
libKPim5MessageComposer.so.5:_ZN15MessageComposer16RecipientsEditor18setRecipientStringERK7QVectorIN5KMime5Types7MailboxEENS_9Recipient4TypeE
libKPim5MessageComposer.so.5:_ZN15MessageComposer16RecipientsEditor18slotCalculateTotalEv
libKPim5MessageComposer.so.5:_ZN15MessageComposer16RecipientsEditor19slotPickedRecipientERKNS_9RecipientERb
libKPim5MessageComposer.so.5:_ZN15MessageComposer16RecipientsEditor20saveDistributionListEv
libKPim5MessageComposer.so.5:_ZN15MessageComposer16RecipientsEditor22setRecentAddressConfigEP7KConfig
libKPim5MessageComposer.so.5:_ZN15MessageComposer16RecipientsEditor24focusInRecipientLineEditEv
libKPim5MessageComposer.so.5:_ZN15MessageComposer16RecipientsEditorC1EP7QWidget
libKPim5MessageComposer.so.5:_ZN15MessageComposer16RecipientsEditorC1EPNS_20RecipientLineFactoryEP7QWidget
libKPim5MessageComposer.so.5:_ZN15MessageComposer16RecipientsEditorC2EP7QWidget
libKPim5MessageComposer.so.5:_ZN15MessageComposer16RecipientsEditorC2EPNS_20RecipientLineFactoryEP7QWidget
libKPim5MessageComposer.so.5:_ZN15MessageComposer16RecipientsEditorD0Ev
libKPim5MessageComposer.so.5:_ZN15MessageComposer16RecipientsEditorD1Ev
libKPim5MessageComposer.so.5:_ZN15MessageComposer16RecipientsEditorD2Ev
libKPim5MessageComposer.so.5:_ZN15MessageComposer17ContactPreference17fillFromAddresseeERKN9KContacts9AddresseeE
libKPim5MessageComposer.so.5:_ZN15MessageComposer17ContactPreferenceC1Ev
libKPim5MessageComposer.so.5:_ZN15MessageComposer17ContactPreferenceC2Ev
libKPim5MessageComposer.so.5:_ZN15MessageComposer17InsertTextFileJob11qt_metacallEN11QMetaObject4CallEiPPv
libKPim5MessageComposer.so.5:_ZN15MessageComposer17InsertTextFileJob11qt_metacastEPKc
libKPim5MessageComposer.so.5:_ZN15MessageComposer17InsertTextFileJob11setEncodingERK7QString
libKPim5MessageComposer.so.5:_ZN15MessageComposer17InsertTextFileJob12slotFileDataEPN3KIO3JobERK10QByteArray
libKPim5MessageComposer.so.5:_ZN15MessageComposer17InsertTextFileJob18slotGetJobFinishedEP4KJob
libKPim5MessageComposer.so.5:_ZN15MessageComposer17InsertTextFileJob5startEv
libKPim5MessageComposer.so.5:_ZN15MessageComposer17InsertTextFileJobC1EP9QTextEditRK4QUrl
libKPim5MessageComposer.so.5:_ZN15MessageComposer17InsertTextFileJobC2EP9QTextEditRK4QUrl
libKPim5MessageComposer.so.5:_ZN15MessageComposer17InsertTextFileJobD0Ev
libKPim5MessageComposer.so.5:_ZN15MessageComposer17InsertTextFileJobD1Ev
libKPim5MessageComposer.so.5:_ZN15MessageComposer17InsertTextFileJobD2Ev
libKPim5MessageComposer.so.5:_ZN15MessageComposer17RecipientLineEdit11leftPressedEv
libKPim5MessageComposer.so.5:_ZN15MessageComposer17RecipientLineEdit11qt_metacallEN11QMetaObject4CallEiPPv
libKPim5MessageComposer.so.5:_ZN15MessageComposer17RecipientLineEdit11qt_metacastEPKc
libKPim5MessageComposer.so.5:_ZN15MessageComposer17RecipientLineEdit12rightPressedEv
libKPim5MessageComposer.so.5:_ZN15MessageComposer17RecipientLineEdit13keyPressEventEP9QKeyEvent
libKPim5MessageComposer.so.5:_ZN15MessageComposer17RecipientLineEdit8deleteMeEv
libKPim5MessageComposer.so.5:_ZN15MessageComposer17RecipientLineEditC1EP7QWidget
libKPim5MessageComposer.so.5:_ZN15MessageComposer17RecipientLineEditC2EP7QWidget
libKPim5MessageComposer.so.5:_ZN15MessageComposer18ImageScalingWidget10loadConfigEv
libKPim5MessageComposer.so.5:_ZN15MessageComposer18ImageScalingWidget11qt_metacallEN11QMetaObject4CallEiPPv
libKPim5MessageComposer.so.5:_ZN15MessageComposer18ImageScalingWidget11qt_metacastEPKc
libKPim5MessageComposer.so.5:_ZN15MessageComposer18ImageScalingWidget11writeConfigEv
libKPim5MessageComposer.so.5:_ZN15MessageComposer18ImageScalingWidget14resetToDefaultEv
libKPim5MessageComposer.so.5:_ZN15MessageComposer18ImageScalingWidget7changedEv
libKPim5MessageComposer.so.5:_ZN15MessageComposer18ImageScalingWidgetC1EP7QWidget
libKPim5MessageComposer.so.5:_ZN15MessageComposer18ImageScalingWidgetC2EP7QWidget
libKPim5MessageComposer.so.5:_ZN15MessageComposer18ImageScalingWidgetD0Ev
libKPim5MessageComposer.so.5:_ZN15MessageComposer18ImageScalingWidgetD1Ev
libKPim5MessageComposer.so.5:_ZN15MessageComposer18ImageScalingWidgetD2Ev
libKPim5MessageComposer.so.5:_ZN15MessageComposer18RichTextComposerNg11qt_metacallEN11QMetaObject4CallEiPPv
libKPim5MessageComposer.so.5:_ZN15MessageComposer18RichTextComposerNg11qt_metacastEPKc
libKPim5MessageComposer.so.5:_ZN15MessageComposer18RichTextComposerNg15insertSignatureERKN19KIdentityManagement9SignatureENS2_9PlacementE6QFlagsINS2_13AddedTextFlagEE
libKPim5MessageComposer.so.5:_ZN15MessageComposer18RichTextComposerNg16convertPlainTextEPNS_8TextPartE
libKPim5MessageComposer.so.5:_ZN15MessageComposer18RichTextComposerNg17processModifyTextEP9QKeyEvent
libKPim5MessageComposer.so.5:_ZN15MessageComposer18RichTextComposerNg17setAutocorrectionEPN22TextAutoCorrectionCore14AutoCorrectionE
libKPim5MessageComposer.so.5:_ZN15MessageComposer18RichTextComposerNg19forceAutoCorrectionEb
libKPim5MessageComposer.so.5:_ZN15MessageComposer18RichTextComposerNg20fillComposerTextPartEPNS_8TextPartE
libKPim5MessageComposer.so.5:_ZN15MessageComposer18RichTextComposerNg25setAutocorrectionLanguageERK7QString
libKPim5MessageComposer.so.5:_ZN15MessageComposer18RichTextComposerNgC1EP7QWidget
libKPim5MessageComposer.so.5:_ZN15MessageComposer18RichTextComposerNgC2EP7QWidget
libKPim5MessageComposer.so.5:_ZN15MessageComposer18RichTextComposerNgD0Ev
libKPim5MessageComposer.so.5:_ZN15MessageComposer18RichTextComposerNgD1Ev
libKPim5MessageComposer.so.5:_ZN15MessageComposer18RichTextComposerNgD2Ev
libKPim5MessageComposer.so.5:_ZN15MessageComposer18SendLaterCreateJob11qt_metacallEN11QMetaObject4CallEiPPv
libKPim5MessageComposer.so.5:_ZN15MessageComposer18SendLaterCreateJob11qt_metacastEPKc
libKPim5MessageComposer.so.5:_ZN15MessageComposer18SendLaterCreateJob6doCallEP44OrgFreedesktopAkonadiSendLaterAgentInterface
libKPim5MessageComposer.so.5:_ZN15MessageComposer18SendLaterCreateJobC1ERKNS_13SendLaterInfoEP7QObject
libKPim5MessageComposer.so.5:_ZN15MessageComposer18SendLaterCreateJobC2ERKNS_13SendLaterInfoEP7QObject
libKPim5MessageComposer.so.5:_ZN15MessageComposer18SendLaterRemoveJob11qt_metacallEN11QMetaObject4CallEiPPv
libKPim5MessageComposer.so.5:_ZN15MessageComposer18SendLaterRemoveJob11qt_metacastEPKc
libKPim5MessageComposer.so.5:_ZN15MessageComposer18SendLaterRemoveJob6doCallEP44OrgFreedesktopAkonadiSendLaterAgentInterface
libKPim5MessageComposer.so.5:_ZN15MessageComposer18SendLaterRemoveJobC1ExP7QObject
libKPim5MessageComposer.so.5:_ZN15MessageComposer18SendLaterRemoveJobC2ExP7QObject
libKPim5MessageComposer.so.5:_ZN15MessageComposer18SkeletonMessageJob11qt_metacallEN11QMetaObject4CallEiPPv
libKPim5MessageComposer.so.5:_ZN15MessageComposer18SkeletonMessageJob11qt_metacastEPKc
libKPim5MessageComposer.so.5:_ZN15MessageComposer18SkeletonMessageJob11setInfoPartEPNS_8InfoPartE
libKPim5MessageComposer.so.5:_ZN15MessageComposer18SkeletonMessageJob13setGlobalPartEPNS_10GlobalPartE
libKPim5MessageComposer.so.5:_ZN15MessageComposer18SkeletonMessageJob5startEv
libKPim5MessageComposer.so.5:_ZN15MessageComposer18SkeletonMessageJobC1EPNS_8InfoPartEPNS_10GlobalPartEP7QObject
libKPim5MessageComposer.so.5:_ZN15MessageComposer18SkeletonMessageJobC2EPNS_8InfoPartEPNS_10GlobalPartEP7QObject
libKPim5MessageComposer.so.5:_ZN15MessageComposer18SkeletonMessageJobD0Ev
libKPim5MessageComposer.so.5:_ZN15MessageComposer18SkeletonMessageJobD1Ev
libKPim5MessageComposer.so.5:_ZN15MessageComposer18SkeletonMessageJobD2Ev
libKPim5MessageComposer.so.5:_ZN15MessageComposer19AutocryptHeadersJob10setContentEPN5KMime7ContentE
libKPim5MessageComposer.so.5:_ZN15MessageComposer19AutocryptHeadersJob11qt_metacallEN11QMetaObject4CallEiPPv
libKPim5MessageComposer.so.5:_ZN15MessageComposer19AutocryptHeadersJob11qt_metacastEPKc
libKPim5MessageComposer.so.5:_ZN15MessageComposer19AutocryptHeadersJob12setGnupgHomeERK7QString
libKPim5MessageComposer.so.5:_ZN15MessageComposer19AutocryptHeadersJob12setSenderKeyERKN5GpgME3KeyE
libKPim5MessageComposer.so.5:_ZN15MessageComposer19AutocryptHeadersJob13setGossipKeysERKSt6vectorIN5GpgME3KeyESaIS3_EE
libKPim5MessageComposer.so.5:_ZN15MessageComposer19AutocryptHeadersJob18setPreferEncryptedEb
libKPim5MessageComposer.so.5:_ZN15MessageComposer19AutocryptHeadersJob18setSkeletonMessageEPN5KMime7MessageE
libKPim5MessageComposer.so.5:_ZN15MessageComposer19AutocryptHeadersJob7processEv
libKPim5MessageComposer.so.5:_ZN15MessageComposer19AutocryptHeadersJobC1EP7QObject
libKPim5MessageComposer.so.5:_ZN15MessageComposer19AutocryptHeadersJobC2EP7QObject
libKPim5MessageComposer.so.5:_ZN15MessageComposer19AutocryptHeadersJobD0Ev
libKPim5MessageComposer.so.5:_ZN15MessageComposer19AutocryptHeadersJobD1Ev
libKPim5MessageComposer.so.5:_ZN15MessageComposer19AutocryptHeadersJobD2Ev
libKPim5MessageComposer.so.5:_ZN15MessageComposer19DraftSignatureState11removeStateEv
libKPim5MessageComposer.so.5:_ZN15MessageComposer19DraftSignatureState8setStateEb
libKPim5MessageComposer.so.5:_ZN15MessageComposer19DraftSignatureStateC1ERK14QSharedPointerIN5KMime7MessageEE
libKPim5MessageComposer.so.5:_ZN15MessageComposer19DraftSignatureStateC2ERK14QSharedPointerIN5KMime7MessageEE
libKPim5MessageComposer.so.5:_ZN15MessageComposer19MDNWarningWidgetJob11qt_metacallEN11QMetaObject4CallEiPPv
libKPim5MessageComposer.so.5:_ZN15MessageComposer19MDNWarningWidgetJob11qt_metacastEPKc
libKPim5MessageComposer.so.5:_ZN15MessageComposer19MDNWarningWidgetJob11showMdnInfoERK5QPairI7QStringbEN5KMime3MDN11SendingModeE
libKPim5MessageComposer.so.5:_ZN15MessageComposer19MDNWarningWidgetJob5startEv
libKPim5MessageComposer.so.5:_ZN15MessageComposer19MDNWarningWidgetJob7setItemERKN7Akonadi4ItemE
libKPim5MessageComposer.so.5:_ZN15MessageComposer19MDNWarningWidgetJobC1EP7QObject
libKPim5MessageComposer.so.5:_ZN15MessageComposer19MDNWarningWidgetJobC2EP7QObject
libKPim5MessageComposer.so.5:_ZN15MessageComposer19MDNWarningWidgetJobD0Ev
libKPim5MessageComposer.so.5:_ZN15MessageComposer19MDNWarningWidgetJobD1Ev
libKPim5MessageComposer.so.5:_ZN15MessageComposer19MDNWarningWidgetJobD2Ev
libKPim5MessageComposer.so.5:_ZN15MessageComposer19PluginEditorManager11qt_metacallEN11QMetaObject4CallEiPPv
libKPim5MessageComposer.so.5:_ZN15MessageComposer19PluginEditorManager11qt_metacastEPKc
libKPim5MessageComposer.so.5:_ZN15MessageComposer19PluginEditorManager20pluginFromIdentifierERK7QString
libKPim5MessageComposer.so.5:_ZN15MessageComposer19PluginEditorManager4selfEv
libKPim5MessageComposer.so.5:_ZN15MessageComposer19PluginEditorManagerC1EP7QObject
libKPim5MessageComposer.so.5:_ZN15MessageComposer19PluginEditorManagerC2EP7QObject
libKPim5MessageComposer.so.5:_ZN15MessageComposer19PluginEditorManagerD0Ev
libKPim5MessageComposer.so.5:_ZN15MessageComposer19PluginEditorManagerD1Ev
libKPim5MessageComposer.so.5:_ZN15MessageComposer19PluginEditorManagerD2Ev
libKPim5MessageComposer.so.5:_ZN15MessageComposer19PluginGrammarAction10setBlockIdEi
libKPim5MessageComposer.so.5:_ZN15MessageComposer19PluginGrammarAction11setInfoUrlsERK11QStringList
libKPim5MessageComposer.so.5:_ZN15MessageComposer19PluginGrammarAction14setReplacementERK7QString
libKPim5MessageComposer.so.5:_ZN15MessageComposer19PluginGrammarAction14setSuggestionsERK11QStringList
libKPim5MessageComposer.so.5:_ZN15MessageComposer19PluginGrammarAction8setStartEi
libKPim5MessageComposer.so.5:_ZN15MessageComposer19PluginGrammarAction9setLengthEi
libKPim5MessageComposer.so.5:_ZN15MessageComposer19PluginGrammarActionC1Ev
libKPim5MessageComposer.so.5:_ZN15MessageComposer19PluginGrammarActionC2Ev
libKPim5MessageComposer.so.5:_ZN15MessageComposer19ProtectedHeadersJob10setContentEPN5KMime7ContentE
libKPim5MessageComposer.so.5:_ZN15MessageComposer19ProtectedHeadersJob11qt_metacallEN11QMetaObject4CallEiPPv
libKPim5MessageComposer.so.5:_ZN15MessageComposer19ProtectedHeadersJob11qt_metacastEPKc
libKPim5MessageComposer.so.5:_ZN15MessageComposer19ProtectedHeadersJob12setObvoscateEb
libKPim5MessageComposer.so.5:_ZN15MessageComposer19ProtectedHeadersJob18setSkeletonMessageEPN5KMime7MessageE
libKPim5MessageComposer.so.5:_ZN15MessageComposer19ProtectedHeadersJob7doStartEv
libKPim5MessageComposer.so.5:_ZN15MessageComposer19ProtectedHeadersJob7processEv
libKPim5MessageComposer.so.5:_ZN15MessageComposer19ProtectedHeadersJobC1EP7QObject
libKPim5MessageComposer.so.5:_ZN15MessageComposer19ProtectedHeadersJobC2EP7QObject
libKPim5MessageComposer.so.5:_ZN15MessageComposer19ProtectedHeadersJobD0Ev
libKPim5MessageComposer.so.5:_ZN15MessageComposer19ProtectedHeadersJobD1Ev
libKPim5MessageComposer.so.5:_ZN15MessageComposer19ProtectedHeadersJobD2Ev
libKPim5MessageComposer.so.5:_ZN15MessageComposer19SignatureController10cleanSpaceEv
libKPim5MessageComposer.so.5:_ZN15MessageComposer19SignatureController10enableHtmlEv
libKPim5MessageComposer.so.5:_ZN15MessageComposer19SignatureController11qt_metacallEN11QMetaObject4CallEiPPv
libKPim5MessageComposer.so.5:_ZN15MessageComposer19SignatureController11qt_metacastEPKc
libKPim5MessageComposer.so.5:_ZN15MessageComposer19SignatureController14applySignatureERKN19KIdentityManagement9SignatureE
libKPim5MessageComposer.so.5:_ZN15MessageComposer19SignatureController14signatureAddedEv
libKPim5MessageComposer.so.5:_ZN15MessageComposer19SignatureController15appendSignatureEv
libKPim5MessageComposer.so.5:_ZN15MessageComposer19SignatureController16prependSignatureEv
libKPim5MessageComposer.so.5:_ZN15MessageComposer19SignatureController16setIdentityComboEPN19KIdentityManagement13IdentityComboE
libKPim5MessageComposer.so.5:_ZN15MessageComposer19SignatureController23insertSignatureAtCursorEv
libKPim5MessageComposer.so.5:_ZN15MessageComposer19SignatureController6resumeEv
libKPim5MessageComposer.so.5:_ZN15MessageComposer19SignatureController7suspendEv
libKPim5MessageComposer.so.5:_ZN15MessageComposer19SignatureController9setEditorEPNS_18RichTextComposerNgE
libKPim5MessageComposer.so.5:_ZN15MessageComposer19SignatureControllerC1EP7QObject
libKPim5MessageComposer.so.5:_ZN15MessageComposer19SignatureControllerC2EP7QObject
libKPim5MessageComposer.so.5:_ZN15MessageComposer19SignatureControllerD0Ev
libKPim5MessageComposer.so.5:_ZN15MessageComposer19SignatureControllerD1Ev
libKPim5MessageComposer.so.5:_ZN15MessageComposer19SignatureControllerD2Ev
libKPim5MessageComposer.so.5:_ZN15MessageComposer20DraftEncryptionState11removeStateEv
libKPim5MessageComposer.so.5:_ZN15MessageComposer20DraftEncryptionState8setStateEb
libKPim5MessageComposer.so.5:_ZN15MessageComposer20DraftEncryptionStateC1ERK14QSharedPointerIN5KMime7MessageEE
libKPim5MessageComposer.so.5:_ZN15MessageComposer20DraftEncryptionStateC2ERK14QSharedPointerIN5KMime7MessageEE
libKPim5MessageComposer.so.5:_ZN15MessageComposer20RecipientLineFactory11qt_metacallEN11QMetaObject4CallEiPPv
libKPim5MessageComposer.so.5:_ZN15MessageComposer20RecipientLineFactory11qt_metacastEPKc
libKPim5MessageComposer.so.5:_ZN15MessageComposer20RecipientLineFactory17maximumRecipientsEv
libKPim5MessageComposer.so.5:_ZN15MessageComposer20RecipientLineFactory7newLineEP7QWidget
libKPim5MessageComposer.so.5:_ZN15MessageComposer20RecipientLineFactoryC1EP7QObject
libKPim5MessageComposer.so.5:_ZN15MessageComposer20RecipientLineFactoryC2EP7QObject
libKPim5MessageComposer.so.5:_ZN15MessageComposer21ComposerViewInterfaceC1EPNS_16ComposerViewBaseE
libKPim5MessageComposer.so.5:_ZN15MessageComposer21ComposerViewInterfaceC2EPNS_16ComposerViewBaseE
libKPim5MessageComposer.so.5:_ZN15MessageComposer21ComposerViewInterfaceD1Ev
libKPim5MessageComposer.so.5:_ZN15MessageComposer21ComposerViewInterfaceD2Ev
libKPim5MessageComposer.so.5:_ZN15MessageComposer21PluginEditorInterface10insertTextERK7QString
libKPim5MessageComposer.so.5:_ZN15MessageComposer21PluginEditorInterface11qt_metacallEN11QMetaObject4CallEiPPv
libKPim5MessageComposer.so.5:_ZN15MessageComposer21PluginEditorInterface11qt_metacastEPKc
libKPim5MessageComposer.so.5:_ZN15MessageComposer21PluginEditorInterface13setActionTypeENS_16PluginActionTypeE
libKPim5MessageComposer.so.5:_ZN15MessageComposer21PluginEditorInterface17setRichTextEditorEPN12KPIMTextEdit14RichTextEditorE
libKPim5MessageComposer.so.5:_ZN15MessageComposer21PluginEditorInterface18setStatusBarWidgetEP7QWidget
libKPim5MessageComposer.so.5:_ZN15MessageComposer21PluginEditorInterface19emitPluginActivatedEPS0_
libKPim5MessageComposer.so.5:_ZN15MessageComposer21PluginEditorInterface19setNeedSelectedTextEb
libKPim5MessageComposer.so.5:_ZN15MessageComposer21PluginEditorInterface20setApplyOnFieldTypesE6QFlagsINS0_16ApplyOnFieldTypeEE
libKPim5MessageComposer.so.5:_ZN15MessageComposer21PluginEditorInterface20setComposerInterfaceEPNS_23PluginComposerInterfaceE
libKPim5MessageComposer.so.5:_ZN15MessageComposer21PluginEditorInterface22processProcessKeyEventEP9QKeyEvent
libKPim5MessageComposer.so.5:_ZN15MessageComposer21PluginEditorInterfaceC1EP7QObject
libKPim5MessageComposer.so.5:_ZN15MessageComposer21PluginEditorInterfaceC2EP7QObject
libKPim5MessageComposer.so.5:_ZN15MessageComposer21PluginEditorInterfaceD0Ev
libKPim5MessageComposer.so.5:_ZN15MessageComposer21PluginEditorInterfaceD1Ev
libKPim5MessageComposer.so.5:_ZN15MessageComposer21PluginEditorInterfaceD2Ev
libKPim5MessageComposer.so.5:_ZN15MessageComposer22AttachmentClipBoardJob11qt_metacallEN11QMetaObject4CallEiPPv
libKPim5MessageComposer.so.5:_ZN15MessageComposer22AttachmentClipBoardJob11qt_metacastEPKc
libKPim5MessageComposer.so.5:_ZN15MessageComposer22AttachmentClipBoardJob7doStartEv
libKPim5MessageComposer.so.5:_ZN15MessageComposer22AttachmentClipBoardJobC1EP7QObject
libKPim5MessageComposer.so.5:_ZN15MessageComposer22AttachmentClipBoardJobC2EP7QObject
libKPim5MessageComposer.so.5:_ZN15MessageComposer22AttachmentClipBoardJobD0Ev
libKPim5MessageComposer.so.5:_ZN15MessageComposer22AttachmentClipBoardJobD1Ev
libKPim5MessageComposer.so.5:_ZN15MessageComposer22AttachmentClipBoardJobD2Ev
libKPim5MessageComposer.so.5:_ZN15MessageComposer22EmailAddressResolveJob10setReplyToERK11QStringList
libKPim5MessageComposer.so.5:_ZN15MessageComposer22EmailAddressResolveJob11qt_metacallEN11QMetaObject4CallEiPPv
libKPim5MessageComposer.so.5:_ZN15MessageComposer22EmailAddressResolveJob11qt_metacastEPKc
libKPim5MessageComposer.so.5:_ZN15MessageComposer22EmailAddressResolveJob20setDefaultDomainNameERK7QString
libKPim5MessageComposer.so.5:_ZN15MessageComposer22EmailAddressResolveJob5setCcERK11QStringList
libKPim5MessageComposer.so.5:_ZN15MessageComposer22EmailAddressResolveJob5setToERK11QStringList
libKPim5MessageComposer.so.5:_ZN15MessageComposer22EmailAddressResolveJob5startEv
libKPim5MessageComposer.so.5:_ZN15MessageComposer22EmailAddressResolveJob6setBccERK11QStringList
libKPim5MessageComposer.so.5:_ZN15MessageComposer22EmailAddressResolveJob7setFromERK7QString
libKPim5MessageComposer.so.5:_ZN15MessageComposer22EmailAddressResolveJobC1EP7QObject
libKPim5MessageComposer.so.5:_ZN15MessageComposer22EmailAddressResolveJobC2EP7QObject
libKPim5MessageComposer.so.5:_ZN15MessageComposer22EmailAddressResolveJobD0Ev
libKPim5MessageComposer.so.5:_ZN15MessageComposer22EmailAddressResolveJobD1Ev
libKPim5MessageComposer.so.5:_ZN15MessageComposer22EmailAddressResolveJobD2Ev
libKPim5MessageComposer.so.5:_ZN15MessageComposer23MessageComposerSettings11qt_metacallEN11QMetaObject4CallEiPPv
libKPim5MessageComposer.so.5:_ZN15MessageComposer23MessageComposerSettings11qt_metacastEPKc
libKPim5MessageComposer.so.5:_ZN15MessageComposer23MessageComposerSettings11requestSyncEv
libKPim5MessageComposer.so.5:_ZN15MessageComposer23MessageComposerSettings11slotSyncNowEv
libKPim5MessageComposer.so.5:_ZN15MessageComposer23MessageComposerSettings4selfEv
libKPim5MessageComposer.so.5:_ZN15MessageComposer23MessageComposerSettingsC1Ev
libKPim5MessageComposer.so.5:_ZN15MessageComposer23MessageComposerSettingsC2Ev
libKPim5MessageComposer.so.5:_ZN15MessageComposer23MessageComposerSettingsD0Ev
libKPim5MessageComposer.so.5:_ZN15MessageComposer23MessageComposerSettingsD1Ev
libKPim5MessageComposer.so.5:_ZN15MessageComposer23MessageComposerSettingsD2Ev
libKPim5MessageComposer.so.5:_ZN15MessageComposer23PluginComposerInterface11attachmentsEv
libKPim5MessageComposer.so.5:_ZN15MessageComposer23PluginComposerInterface19setComposerViewBaseEPNS_16ComposerViewBaseE
libKPim5MessageComposer.so.5:_ZN15MessageComposer23PluginComposerInterfaceC1Ev
libKPim5MessageComposer.so.5:_ZN15MessageComposer23PluginComposerInterfaceC2Ev
libKPim5MessageComposer.so.5:_ZN15MessageComposer23PluginComposerInterfaceD1Ev
libKPim5MessageComposer.so.5:_ZN15MessageComposer23PluginComposerInterfaceD2Ev
libKPim5MessageComposer.so.5:_ZN15MessageComposer23PluginEditorConvertText11qt_metacallEN11QMetaObject4CallEiPPv
libKPim5MessageComposer.so.5:_ZN15MessageComposer23PluginEditorConvertText11qt_metacastEPKc
libKPim5MessageComposer.so.5:_ZN15MessageComposer23PluginEditorConvertTextC1EP7QObject
libKPim5MessageComposer.so.5:_ZN15MessageComposer23PluginEditorConvertTextC2EP7QObject
libKPim5MessageComposer.so.5:_ZN15MessageComposer23PluginEditorConvertTextD0Ev
libKPim5MessageComposer.so.5:_ZN15MessageComposer23PluginEditorConvertTextD1Ev
libKPim5MessageComposer.so.5:_ZN15MessageComposer23PluginEditorConvertTextD2Ev
libKPim5MessageComposer.so.5:_ZN15MessageComposer23PluginEditorInitManager11qt_metacallEN11QMetaObject4CallEiPPv
libKPim5MessageComposer.so.5:_ZN15MessageComposer23PluginEditorInitManager11qt_metacastEPKc
libKPim5MessageComposer.so.5:_ZN15MessageComposer23PluginEditorInitManager20pluginFromIdentifierERK7QString
libKPim5MessageComposer.so.5:_ZN15MessageComposer23PluginEditorInitManager4selfEv
libKPim5MessageComposer.so.5:_ZN15MessageComposer23PluginEditorInitManagerC1EP7QObject
libKPim5MessageComposer.so.5:_ZN15MessageComposer23PluginEditorInitManagerC2EP7QObject
libKPim5MessageComposer.so.5:_ZN15MessageComposer23PluginEditorInitManagerD0Ev
libKPim5MessageComposer.so.5:_ZN15MessageComposer23PluginEditorInitManagerD1Ev
libKPim5MessageComposer.so.5:_ZN15MessageComposer23PluginEditorInitManagerD2Ev
libKPim5MessageComposer.so.5:_ZN15MessageComposer24AttachmentControllerBase11addOwnVcardEb
libKPim5MessageComposer.so.5:_ZN15MessageComposer24AttachmentControllerBase11qt_metacallEN11QMetaObject4CallEiPPv
libKPim5MessageComposer.so.5:_ZN15MessageComposer24AttachmentControllerBase11qt_metacastEPKc
libKPim5MessageComposer.so.5:_ZN15MessageComposer24AttachmentControllerBase12fileAttachedEv
libKPim5MessageComposer.so.5:_ZN15MessageComposer24AttachmentControllerBase13addAttachmentERK14QSharedPointerIN11MessageCore14AttachmentPartEE
libKPim5MessageComposer.so.5:_ZN15MessageComposer24AttachmentControllerBase13addAttachmentERK4QUrl
libKPim5MessageComposer.so.5:_ZN15MessageComposer24AttachmentControllerBase13createActionsEv
libKPim5MessageComposer.so.5:_ZN15MessageComposer24AttachmentControllerBase14actionsCreatedEv
libKPim5MessageComposer.so.5:_ZN15MessageComposer24AttachmentControllerBase14addAttachmentsERK5QListI4QUrlE
libKPim5MessageComposer.so.5:_ZN15MessageComposer24AttachmentControllerBase14editAttachmentE14QSharedPointerIN11MessageCore14AttachmentPartEENS_13EditorWatcher14OpenWithOptionE
libKPim5MessageComposer.so.5:_ZN15MessageComposer24AttachmentControllerBase14openAttachmentERK14QSharedPointerIN11MessageCore14AttachmentPartEE
libKPim5MessageComposer.so.5:_ZN15MessageComposer24AttachmentControllerBase14setSignEnabledEb
libKPim5MessageComposer.so.5:_ZN15MessageComposer24AttachmentControllerBase14showAttachmentEPN5KMime7ContentERK10QByteArray
libKPim5MessageComposer.so.5:_ZN15MessageComposer24AttachmentControllerBase14viewAttachmentERK14QSharedPointerIN11MessageCore14AttachmentPartEE
libKPim5MessageComposer.so.5:_ZN15MessageComposer24AttachmentControllerBase15exportPublicKeyERK7QString
libKPim5MessageComposer.so.5:_ZN15MessageComposer24AttachmentControllerBase15showAttachVcardEv
libKPim5MessageComposer.so.5:_ZN15MessageComposer24AttachmentControllerBase15showContextMenuEv
libKPim5MessageComposer.so.5:_ZN15MessageComposer24AttachmentControllerBase16refreshSelectionEv
libKPim5MessageComposer.so.5:_ZN15MessageComposer24AttachmentControllerBase16saveAttachmentAsERK14QSharedPointerIN11MessageCore14AttachmentPartEE
libKPim5MessageComposer.so.5:_ZN15MessageComposer24AttachmentControllerBase16setSelectedPartsERK5QListI14QSharedPointerIN11MessageCore14AttachmentPartEEE
libKPim5MessageComposer.so.5:_ZN15MessageComposer24AttachmentControllerBase17attachMyPublicKeyEv
libKPim5MessageComposer.so.5:_ZN15MessageComposer24AttachmentControllerBase17setAttachOwnVcardEb
libKPim5MessageComposer.so.5:_ZN15MessageComposer24AttachmentControllerBase17setEncryptEnabledEb
libKPim5MessageComposer.so.5:_ZN15MessageComposer24AttachmentControllerBase18compressAttachmentERK14QSharedPointerIN11MessageCore14AttachmentPartEEb
libKPim5MessageComposer.so.5:_ZN15MessageComposer24AttachmentControllerBase18editAttachmentWithERK14QSharedPointerIN11MessageCore14AttachmentPartEE
libKPim5MessageComposer.so.5:_ZN15MessageComposer24AttachmentControllerBase19showAttachClipBoardEv
libKPim5MessageComposer.so.5:_ZN15MessageComposer24AttachmentControllerBase20addAttachmentUrlSyncERK4QUrl
libKPim5MessageComposer.so.5:_ZN15MessageComposer24AttachmentControllerBase20attachmentPropertiesERK14QSharedPointerIN11MessageCore14AttachmentPartEE
libKPim5MessageComposer.so.5:_ZN15MessageComposer24AttachmentControllerBase21byteArrayToRemoteFileERK10QByteArrayRK4QUrlb
libKPim5MessageComposer.so.5:_ZN15MessageComposer24AttachmentControllerBase21enableAttachPublicKeyEb
libKPim5MessageComposer.so.5:_ZN15MessageComposer24AttachmentControllerBase21selectedAllAttachmentEv
libKPim5MessageComposer.so.5:_ZN15MessageComposer24AttachmentControllerBase22setIdentityHasOwnVcardEb
libKPim5MessageComposer.so.5:_ZN15MessageComposer24AttachmentControllerBase23enableAttachMyPublicKeyEb
libKPim5MessageComposer.so.5:_ZN15MessageComposer24AttachmentControllerBase25showAttachPublicKeyDialogEv
libKPim5MessageComposer.so.5:_ZN15MessageComposer24AttachmentControllerBase27showAddAttachmentFileDialogEv
libKPim5MessageComposer.so.5:_ZN15MessageComposer24AttachmentControllerBase31AttachmentControllerBasePrivate13loadJobResultEP4KJob
libKPim5MessageComposer.so.5:_ZN15MessageComposer24AttachmentControllerBase31AttachmentControllerBasePrivate15updateJobResultEP4KJob
libKPim5MessageComposer.so.5:_ZN15MessageComposer24AttachmentControllerBase31AttachmentControllerBasePrivate16reloadAttachmentEv
libKPim5MessageComposer.so.5:_ZN15MessageComposer24AttachmentControllerBase31AttachmentControllerBasePrivate17attachmentRemovedERK14QSharedPointerIN11MessageCore14AttachmentPartEE
libKPim5MessageComposer.so.5:_ZN15MessageComposer24AttachmentControllerBase31AttachmentControllerBasePrivate17compressJobResultEP4KJob
libKPim5MessageComposer.so.5:_ZN15MessageComposer24AttachmentControllerBase31AttachmentControllerBasePrivate18createOpenWithMenuEP5QMenuRK14QSharedPointerIN11MessageCore14AttachmentPartEE
libKPim5MessageComposer.so.5:_ZN15MessageComposer24AttachmentControllerBase31AttachmentControllerBasePrivate22attachClipBoardElementEP4KJob
libKPim5MessageComposer.so.5:_ZN15MessageComposer24AttachmentControllerBase31AttachmentControllerBasePrivate22editSelectedAttachmentEv
libKPim5MessageComposer.so.5:_ZN15MessageComposer24AttachmentControllerBase31AttachmentControllerBasePrivate23openSelectedAttachmentsEv
libKPim5MessageComposer.so.5:_ZN15MessageComposer24AttachmentControllerBase31AttachmentControllerBasePrivate23viewSelectedAttachmentsEv
libKPim5MessageComposer.so.5:_ZN15MessageComposer24AttachmentControllerBase31AttachmentControllerBasePrivate24attachPublicKeyJobResultEP4KJob
libKPim5MessageComposer.so.5:_ZN15MessageComposer24AttachmentControllerBase31AttachmentControllerBasePrivate24saveSelectedAttachmentAsEv
libKPim5MessageComposer.so.5:_ZN15MessageComposer24AttachmentControllerBase31AttachmentControllerBasePrivate25removeSelectedAttachmentsEv
libKPim5MessageComposer.so.5:_ZN15MessageComposer24AttachmentControllerBase31AttachmentControllerBasePrivate26attachVcardFromAddressBookEP4KJob
libKPim5MessageComposer.so.5:_ZN15MessageComposer24AttachmentControllerBase31AttachmentControllerBasePrivate26editSelectedAttachmentWithEv
libKPim5MessageComposer.so.5:_ZN15MessageComposer24AttachmentControllerBase31AttachmentControllerBasePrivate28selectedAttachmentPropertiesEv
libKPim5MessageComposer.so.5:_ZN15MessageComposer24AttachmentControllerBase31AttachmentControllerBasePrivate28slotAttachmentContentCreatedEP4KJob
libKPim5MessageComposer.so.5:_ZN15MessageComposer24AttachmentControllerBase31AttachmentControllerBasePrivate8editDoneEPNS_13EditorWatcherE
libKPim5MessageComposer.so.5:_ZN15MessageComposer24AttachmentControllerBase31AttachmentControllerBasePrivateC1EPS0_
libKPim5MessageComposer.so.5:_ZN15MessageComposer24AttachmentControllerBase31AttachmentControllerBasePrivateC2EPS0_
libKPim5MessageComposer.so.5:_ZN15MessageComposer24AttachmentControllerBase31AttachmentControllerBasePrivateD1Ev
libKPim5MessageComposer.so.5:_ZN15MessageComposer24AttachmentControllerBase31AttachmentControllerBasePrivateD2Ev
libKPim5MessageComposer.so.5:_ZN15MessageComposer24AttachmentControllerBase42showAddAttachmentCompressedDirectoryDialogEv
libKPim5MessageComposer.so.5:_ZN15MessageComposer24AttachmentControllerBase8openWithERK28QExplicitlySharedDataPointerI8KServiceE
libKPim5MessageComposer.so.5:_ZN15MessageComposer24AttachmentControllerBaseC1EPNS_15AttachmentModelEP7QWidgetP17KActionCollection
libKPim5MessageComposer.so.5:_ZN15MessageComposer24AttachmentControllerBaseC2EPNS_15AttachmentModelEP7QWidgetP17KActionCollection
libKPim5MessageComposer.so.5:_ZN15MessageComposer24AttachmentControllerBaseD0Ev
libKPim5MessageComposer.so.5:_ZN15MessageComposer24AttachmentControllerBaseD1Ev
libKPim5MessageComposer.so.5:_ZN15MessageComposer24AttachmentControllerBaseD2Ev
libKPim5MessageComposer.so.5:_ZN15MessageComposer24SaveContactPreferenceJob11qt_metacallEN11QMetaObject4CallEiPPv
libKPim5MessageComposer.so.5:_ZN15MessageComposer24SaveContactPreferenceJob11qt_metacastEPKc
libKPim5MessageComposer.so.5:_ZN15MessageComposer24SaveContactPreferenceJob5startEv
libKPim5MessageComposer.so.5:_ZN15MessageComposer24SaveContactPreferenceJobC1ERK7QStringRKNS_17ContactPreferenceEP7QObject
libKPim5MessageComposer.so.5:_ZN15MessageComposer24SaveContactPreferenceJobC2ERK7QStringRKNS_17ContactPreferenceEP7QObject
libKPim5MessageComposer.so.5:_ZN15MessageComposer24SaveContactPreferenceJobD0Ev
libKPim5MessageComposer.so.5:_ZN15MessageComposer24SaveContactPreferenceJobD1Ev
libKPim5MessageComposer.so.5:_ZN15MessageComposer24SaveContactPreferenceJobD2Ev
libKPim5MessageComposer.so.5:_ZN15MessageComposer24removeDraftCryptoHeadersERK14QSharedPointerIN5KMime7MessageEE
libKPim5MessageComposer.so.5:_ZN15MessageComposer25FollowupReminderCreateJob10setSubjectERK7QString
libKPim5MessageComposer.so.5:_ZN15MessageComposer25FollowupReminderCreateJob11qt_metacallEN11QMetaObject4CallEiPPv
libKPim5MessageComposer.so.5:_ZN15MessageComposer25FollowupReminderCreateJob11qt_metacastEPKc
libKPim5MessageComposer.so.5:_ZN15MessageComposer25FollowupReminderCreateJob12setMessageIdERK7QString
libKPim5MessageComposer.so.5:_ZN15MessageComposer25FollowupReminderCreateJob17setCollectionToDoERKN7Akonadi10CollectionE
libKPim5MessageComposer.so.5:_ZN15MessageComposer25FollowupReminderCreateJob17slotCreateNewTodoEP4KJob
libKPim5MessageComposer.so.5:_ZN15MessageComposer25FollowupReminderCreateJob23setFollowUpReminderDateERK5QDate
libKPim5MessageComposer.so.5:_ZN15MessageComposer25FollowupReminderCreateJob24setOriginalMessageItemIdEx
libKPim5MessageComposer.so.5:_ZN15MessageComposer25FollowupReminderCreateJob5setToERK7QString
libKPim5MessageComposer.so.5:_ZN15MessageComposer25FollowupReminderCreateJob5startEv
libKPim5MessageComposer.so.5:_ZN15MessageComposer25FollowupReminderCreateJobC1EP7QObject
libKPim5MessageComposer.so.5:_ZN15MessageComposer25FollowupReminderCreateJobC2EP7QObject
libKPim5MessageComposer.so.5:_ZN15MessageComposer25FollowupReminderCreateJobD0Ev
libKPim5MessageComposer.so.5:_ZN15MessageComposer25FollowupReminderCreateJobD1Ev
libKPim5MessageComposer.so.5:_ZN15MessageComposer25FollowupReminderCreateJobD2Ev
libKPim5MessageComposer.so.5:_ZN15MessageComposer25PluginEditorInitInterface11qt_metacallEN11QMetaObject4CallEiPPv
libKPim5MessageComposer.so.5:_ZN15MessageComposer25PluginEditorInitInterface11qt_metacastEPKc
libKPim5MessageComposer.so.5:_ZN15MessageComposer25PluginEditorInitInterface12reloadConfigEv
libKPim5MessageComposer.so.5:_ZN15MessageComposer25PluginEditorInitInterface15setParentWidgetEP7QWidget
libKPim5MessageComposer.so.5:_ZN15MessageComposer25PluginEditorInitInterface17setRichTextEditorEPN12KPIMTextEdit16RichTextComposerE
libKPim5MessageComposer.so.5:_ZN15MessageComposer25PluginEditorInitInterfaceC1EP7QObject
libKPim5MessageComposer.so.5:_ZN15MessageComposer25PluginEditorInitInterfaceC2EP7QObject
libKPim5MessageComposer.so.5:_ZN15MessageComposer25PluginEditorInitInterfaceD0Ev
libKPim5MessageComposer.so.5:_ZN15MessageComposer25PluginEditorInitInterfaceD1Ev
libKPim5MessageComposer.so.5:_ZN15MessageComposer25PluginEditorInitInterfaceD2Ev
libKPim5MessageComposer.so.5:_ZN15MessageComposer26AttachmentFromPublicKeyJob11qt_metacallEN11QMetaObject4CallEiPPv
libKPim5MessageComposer.so.5:_ZN15MessageComposer26AttachmentFromPublicKeyJob11qt_metacastEPKc
libKPim5MessageComposer.so.5:_ZN15MessageComposer26AttachmentFromPublicKeyJob14setFingerprintERK7QString
libKPim5MessageComposer.so.5:_ZN15MessageComposer26AttachmentFromPublicKeyJob33AttachmentFromPublicKeyJobPrivate12emitGpgErrorERKN5GpgME5ErrorE
libKPim5MessageComposer.so.5:_ZN15MessageComposer26AttachmentFromPublicKeyJob33AttachmentFromPublicKeyJobPrivate12exportResultERKN5GpgME5ErrorERK10QByteArray
libKPim5MessageComposer.so.5:_ZN15MessageComposer26AttachmentFromPublicKeyJob33AttachmentFromPublicKeyJobPrivateC1EPS0_
libKPim5MessageComposer.so.5:_ZN15MessageComposer26AttachmentFromPublicKeyJob33AttachmentFromPublicKeyJobPrivateC2EPS0_
libKPim5MessageComposer.so.5:_ZN15MessageComposer26AttachmentFromPublicKeyJob7doStartEv
libKPim5MessageComposer.so.5:_ZN15MessageComposer26AttachmentFromPublicKeyJobC1ERK7QStringP7QObject
libKPim5MessageComposer.so.5:_ZN15MessageComposer26AttachmentFromPublicKeyJobC2ERK7QStringP7QObject
libKPim5MessageComposer.so.5:_ZN15MessageComposer26AttachmentFromPublicKeyJobD0Ev
libKPim5MessageComposer.so.5:_ZN15MessageComposer26AttachmentFromPublicKeyJobD1Ev
libKPim5MessageComposer.so.5:_ZN15MessageComposer26AttachmentFromPublicKeyJobD2Ev
libKPim5MessageComposer.so.5:_ZN15MessageComposer26ConvertSnippetVariableMenu11qt_metacallEN11QMetaObject4CallEiPPv
libKPim5MessageComposer.so.5:_ZN15MessageComposer26ConvertSnippetVariableMenu11qt_metacastEPKc
libKPim5MessageComposer.so.5:_ZN15MessageComposer26ConvertSnippetVariableMenu14insertVariableENS_27ConvertSnippetVariablesUtil12VariableTypeE
libKPim5MessageComposer.so.5:_ZN15MessageComposer26ConvertSnippetVariableMenuC1EbP7QWidgetP7QObject
libKPim5MessageComposer.so.5:_ZN15MessageComposer26ConvertSnippetVariableMenuC2EbP7QWidgetP7QObject
libKPim5MessageComposer.so.5:_ZN15MessageComposer26ConvertSnippetVariableMenuD0Ev
libKPim5MessageComposer.so.5:_ZN15MessageComposer26ConvertSnippetVariableMenuD1Ev
libKPim5MessageComposer.so.5:_ZN15MessageComposer26ConvertSnippetVariableMenuD2Ev
libKPim5MessageComposer.so.5:_ZN15MessageComposer26ConvertSnippetVariablesJob11qt_metacallEN11QMetaObject4CallEiPPv
libKPim5MessageComposer.so.5:_ZN15MessageComposer26ConvertSnippetVariablesJob11qt_metacastEPKc
libKPim5MessageComposer.so.5:_ZN15MessageComposer26ConvertSnippetVariablesJob13textConvertedERK7QString
libKPim5MessageComposer.so.5:_ZN15MessageComposer26ConvertSnippetVariablesJob16convertVariablesEPNS_21ComposerViewInterfaceERK7QString
libKPim5MessageComposer.so.5:_ZN15MessageComposer26ConvertSnippetVariablesJob16convertVariablesERK7QStringRi5QChar
libKPim5MessageComposer.so.5:_ZN15MessageComposer26ConvertSnippetVariablesJob16getNameFromEmailERK7QString
libKPim5MessageComposer.so.5:_ZN15MessageComposer26ConvertSnippetVariablesJob20getLastNameFromEmailERK7QString
libKPim5MessageComposer.so.5:_ZN15MessageComposer26ConvertSnippetVariablesJob21getFirstNameFromEmailERK7QString
libKPim5MessageComposer.so.5:_ZN15MessageComposer26ConvertSnippetVariablesJob24setComposerViewInterfaceEPNS_21ComposerViewInterfaceE
libKPim5MessageComposer.so.5:_ZN15MessageComposer26ConvertSnippetVariablesJob5startEv
libKPim5MessageComposer.so.5:_ZN15MessageComposer26ConvertSnippetVariablesJob7setTextERK7QString
libKPim5MessageComposer.so.5:_ZN15MessageComposer26ConvertSnippetVariablesJobC1EP7QObject
libKPim5MessageComposer.so.5:_ZN15MessageComposer26ConvertSnippetVariablesJobC2EP7QObject
libKPim5MessageComposer.so.5:_ZN15MessageComposer26ConvertSnippetVariablesJobD0Ev
libKPim5MessageComposer.so.5:_ZN15MessageComposer26ConvertSnippetVariablesJobD1Ev
libKPim5MessageComposer.so.5:_ZN15MessageComposer26ConvertSnippetVariablesJobD2Ev
libKPim5MessageComposer.so.5:_ZN15MessageComposer26PluginEditorGrammarManager11qt_metacallEN11QMetaObject4CallEiPPv
libKPim5MessageComposer.so.5:_ZN15MessageComposer26PluginEditorGrammarManager11qt_metacastEPKc
libKPim5MessageComposer.so.5:_ZN15MessageComposer26PluginEditorGrammarManager20pluginFromIdentifierERK7QString
libKPim5MessageComposer.so.5:_ZN15MessageComposer26PluginEditorGrammarManager4selfEv
libKPim5MessageComposer.so.5:_ZN15MessageComposer26PluginEditorGrammarManagerC1EP7QObject
libKPim5MessageComposer.so.5:_ZN15MessageComposer26PluginEditorGrammarManagerC2EP7QObject
libKPim5MessageComposer.so.5:_ZN15MessageComposer26PluginEditorGrammarManagerD0Ev
libKPim5MessageComposer.so.5:_ZN15MessageComposer26PluginEditorGrammarManagerD1Ev
libKPim5MessageComposer.so.5:_ZN15MessageComposer26PluginEditorGrammarManagerD2Ev
libKPim5MessageComposer.so.5:_ZN15MessageComposer26RichTextComposerSignatures11qt_metacallEN11QMetaObject4CallEiPPv
libKPim5MessageComposer.so.5:_ZN15MessageComposer26RichTextComposerSignatures11qt_metacastEPKc
libKPim5MessageComposer.so.5:_ZN15MessageComposer26RichTextComposerSignatures15cleanWhitespaceERKN19KIdentityManagement9SignatureE
libKPim5MessageComposer.so.5:_ZN15MessageComposer26RichTextComposerSignatures16replaceSignatureERKN19KIdentityManagement9SignatureES4_
libKPim5MessageComposer.so.5:_ZN15MessageComposer26RichTextComposerSignatures33RichTextComposerSignaturesPrivate21cleanWhitespaceHelperERK18QRegularExpressionRK7QStringRKN19KIdentityManagement9SignatureE
libKPim5MessageComposer.so.5:_ZN15MessageComposer26RichTextComposerSignaturesC1EPNS_18RichTextComposerNgEP7QObject
libKPim5MessageComposer.so.5:_ZN15MessageComposer26RichTextComposerSignaturesC2EPNS_18RichTextComposerNgEP7QObject
libKPim5MessageComposer.so.5:_ZN15MessageComposer26RichTextComposerSignaturesD0Ev
libKPim5MessageComposer.so.5:_ZN15MessageComposer26RichTextComposerSignaturesD1Ev
libKPim5MessageComposer.so.5:_ZN15MessageComposer26RichTextComposerSignaturesD2Ev
libKPim5MessageComposer.so.5:_ZN15MessageComposer26StatusBarLabelToggledState11qt_metacallEN11QMetaObject4CallEiPPv
libKPim5MessageComposer.so.5:_ZN15MessageComposer26StatusBarLabelToggledState11qt_metacastEPKc
libKPim5MessageComposer.so.5:_ZN15MessageComposer26StatusBarLabelToggledState13setToggleModeEb
libKPim5MessageComposer.so.5:_ZN15MessageComposer26StatusBarLabelToggledState14setStateStringERK7QStringS3_
libKPim5MessageComposer.so.5:_ZN15MessageComposer26StatusBarLabelToggledState15mousePressEventEP11QMouseEvent
libKPim5MessageComposer.so.5:_ZN15MessageComposer26StatusBarLabelToggledState17toggleModeChangedEb
libKPim5MessageComposer.so.5:_ZN15MessageComposer26StatusBarLabelToggledStateC1EP7QWidget
libKPim5MessageComposer.so.5:_ZN15MessageComposer26StatusBarLabelToggledStateC2EP7QWidget
libKPim5MessageComposer.so.5:_ZN15MessageComposer26StatusBarLabelToggledStateD0Ev
libKPim5MessageComposer.so.5:_ZN15MessageComposer26StatusBarLabelToggledStateD1Ev
libKPim5MessageComposer.so.5:_ZN15MessageComposer26StatusBarLabelToggledStateD2Ev
libKPim5MessageComposer.so.5:_ZN15MessageComposer27ComposerAttachmentInterface12setFileNamesERK11QStringList
libKPim5MessageComposer.so.5:_ZN15MessageComposer27ComposerAttachmentInterface15setNamesAndSizeERK11QStringList
libKPim5MessageComposer.so.5:_ZN15MessageComposer27ComposerAttachmentInterface8setCountEi
libKPim5MessageComposer.so.5:_ZN15MessageComposer27ComposerAttachmentInterface8setNamesERK11QStringList
libKPim5MessageComposer.so.5:_ZN15MessageComposer27ComposerAttachmentInterfaceC1Ev
libKPim5MessageComposer.so.5:_ZN15MessageComposer27ComposerAttachmentInterfaceC2Ev
libKPim5MessageComposer.so.5:_ZN15MessageComposer27ComposerAttachmentInterfaceD1Ev
libKPim5MessageComposer.so.5:_ZN15MessageComposer27ComposerAttachmentInterfaceD2Ev
libKPim5MessageComposer.so.5:_ZN15MessageComposer27ConvertSnippetVariablesUtil10dayOfMonthEv
libKPim5MessageComposer.so.5:_ZN15MessageComposer27ConvertSnippetVariablesUtil10weekNumberEv
libKPim5MessageComposer.so.5:_ZN15MessageComposer27ConvertSnippetVariablesUtil11monthNumberEv
libKPim5MessageComposer.so.5:_ZN15MessageComposer27ConvertSnippetVariablesUtil13monthNameLongEv
libKPim5MessageComposer.so.5:_ZN15MessageComposer27ConvertSnippetVariablesUtil13yearLastMonthEv
libKPim5MessageComposer.so.5:_ZN15MessageComposer27ConvertSnippetVariablesUtil14monthNameShortEv
libKPim5MessageComposer.so.5:_ZN15MessageComposer27ConvertSnippetVariablesUtil15insertDayOfWeekEv
libKPim5MessageComposer.so.5:_ZN15MessageComposer27ConvertSnippetVariablesUtil17dayOfWeekNameLongEv
libKPim5MessageComposer.so.5:_ZN15MessageComposer27ConvertSnippetVariablesUtil17lastMonthNameLongEv
libKPim5MessageComposer.so.5:_ZN15MessageComposer27ConvertSnippetVariablesUtil18dayOfWeekNameShortEv
libKPim5MessageComposer.so.5:_ZN15MessageComposer27ConvertSnippetVariablesUtil23snippetVariableFromEnumENS0_12VariableTypeE
libKPim5MessageComposer.so.5:_ZN15MessageComposer27ConvertSnippetVariablesUtil4yearEv
libKPim5MessageComposer.so.5:_ZN15MessageComposer27ConvertSnippetVariablesUtil8lastYearEv
libKPim5MessageComposer.so.5:_ZN15MessageComposer27ConvertSnippetVariablesUtil8longDateEv
libKPim5MessageComposer.so.5:_ZN15MessageComposer27ConvertSnippetVariablesUtil8longTimeEv
libKPim5MessageComposer.so.5:_ZN15MessageComposer27ConvertSnippetVariablesUtil8nextYearEv
libKPim5MessageComposer.so.5:_ZN15MessageComposer27ConvertSnippetVariablesUtil9dayOfWeekEv
libKPim5MessageComposer.so.5:_ZN15MessageComposer27ConvertSnippetVariablesUtil9shortDateEv
libKPim5MessageComposer.so.5:_ZN15MessageComposer27ConvertSnippetVariablesUtil9shortTimeEv
libKPim5MessageComposer.so.5:_ZN15MessageComposer27MessageComposerSettingsBase4selfEv
libKPim5MessageComposer.so.5:_ZN15MessageComposer27MessageComposerSettingsBaseC1Ev
libKPim5MessageComposer.so.5:_ZN15MessageComposer27MessageComposerSettingsBaseC2Ev
libKPim5MessageComposer.so.5:_ZN15MessageComposer27MessageComposerSettingsBaseD0Ev
libKPim5MessageComposer.so.5:_ZN15MessageComposer27MessageComposerSettingsBaseD1Ev
libKPim5MessageComposer.so.5:_ZN15MessageComposer27MessageComposerSettingsBaseD2Ev
libKPim5MessageComposer.so.5:_ZN15MessageComposer27PluginEditorCheckBeforeSend11qt_metacallEN11QMetaObject4CallEiPPv
libKPim5MessageComposer.so.5:_ZN15MessageComposer27PluginEditorCheckBeforeSend11qt_metacastEPKc
libKPim5MessageComposer.so.5:_ZN15MessageComposer27PluginEditorCheckBeforeSendC1EP7QObject
libKPim5MessageComposer.so.5:_ZN15MessageComposer27PluginEditorCheckBeforeSendC2EP7QObject
libKPim5MessageComposer.so.5:_ZN15MessageComposer27PluginEditorCheckBeforeSendD0Ev
libKPim5MessageComposer.so.5:_ZN15MessageComposer27PluginEditorCheckBeforeSendD1Ev
libKPim5MessageComposer.so.5:_ZN15MessageComposer27PluginEditorCheckBeforeSendD2Ev
libKPim5MessageComposer.so.5:_ZN15MessageComposer29DraftCryptoMessageFormatState11removeStateEv
libKPim5MessageComposer.so.5:_ZN15MessageComposer29DraftCryptoMessageFormatState8setStateEN4Kleo19CryptoMessageFormatE
libKPim5MessageComposer.so.5:_ZN15MessageComposer29DraftCryptoMessageFormatStateC1ERK14QSharedPointerIN5KMime7MessageEE
libKPim5MessageComposer.so.5:_ZN15MessageComposer29DraftCryptoMessageFormatStateC2ERK14QSharedPointerIN5KMime7MessageEE
libKPim5MessageComposer.so.5:_ZN15MessageComposer30PluginEditorConvertTextManager11qt_metacallEN11QMetaObject4CallEiPPv
libKPim5MessageComposer.so.5:_ZN15MessageComposer30PluginEditorConvertTextManager11qt_metacastEPKc
libKPim5MessageComposer.so.5:_ZN15MessageComposer30PluginEditorConvertTextManager20pluginFromIdentifierERK7QString
libKPim5MessageComposer.so.5:_ZN15MessageComposer30PluginEditorConvertTextManager4selfEv
libKPim5MessageComposer.so.5:_ZN15MessageComposer30PluginEditorConvertTextManagerC1EP7QObject
libKPim5MessageComposer.so.5:_ZN15MessageComposer30PluginEditorConvertTextManagerC2EP7QObject
libKPim5MessageComposer.so.5:_ZN15MessageComposer30PluginEditorConvertTextManagerD0Ev
libKPim5MessageComposer.so.5:_ZN15MessageComposer30PluginEditorConvertTextManagerD1Ev
libKPim5MessageComposer.so.5:_ZN15MessageComposer30PluginEditorConvertTextManagerD2Ev
libKPim5MessageComposer.so.5:_ZN15MessageComposer31PluginEditorConfigureBaseWidget11qt_metacallEN11QMetaObject4CallEiPPv
libKPim5MessageComposer.so.5:_ZN15MessageComposer31PluginEditorConfigureBaseWidget11qt_metacastEPKc
libKPim5MessageComposer.so.5:_ZN15MessageComposer31PluginEditorConfigureBaseWidget16configureChangedEv
libKPim5MessageComposer.so.5:_ZN15MessageComposer31PluginEditorConfigureBaseWidgetC1EP7QWidget
libKPim5MessageComposer.so.5:_ZN15MessageComposer31PluginEditorConfigureBaseWidgetC2EP7QWidget
libKPim5MessageComposer.so.5:_ZN15MessageComposer31PluginEditorConfigureBaseWidgetD0Ev
libKPim5MessageComposer.so.5:_ZN15MessageComposer31PluginEditorConfigureBaseWidgetD1Ev
libKPim5MessageComposer.so.5:_ZN15MessageComposer31PluginEditorConfigureBaseWidgetD2Ev
libKPim5MessageComposer.so.5:_ZN15MessageComposer32FollowUpReminderSelectDateDialog11qt_metacallEN11QMetaObject4CallEiPPv
libKPim5MessageComposer.so.5:_ZN15MessageComposer32FollowUpReminderSelectDateDialog11qt_metacastEPKc
libKPim5MessageComposer.so.5:_ZN15MessageComposer32FollowUpReminderSelectDateDialog6acceptEv
libKPim5MessageComposer.so.5:_ZN15MessageComposer32FollowUpReminderSelectDateDialogC1EP7QWidgetP18QAbstractItemModel
libKPim5MessageComposer.so.5:_ZN15MessageComposer32FollowUpReminderSelectDateDialogC2EP7QWidgetP18QAbstractItemModel
libKPim5MessageComposer.so.5:_ZN15MessageComposer32FollowUpReminderSelectDateDialogD0Ev
libKPim5MessageComposer.so.5:_ZN15MessageComposer32FollowUpReminderSelectDateDialogD1Ev
libKPim5MessageComposer.so.5:_ZN15MessageComposer32FollowUpReminderSelectDateDialogD2Ev
libKPim5MessageComposer.so.5:_ZN15MessageComposer32PluginEditorConvertTextInterface11qt_metacallEN11QMetaObject4CallEiPPv
libKPim5MessageComposer.so.5:_ZN15MessageComposer32PluginEditorConvertTextInterface11qt_metacastEPKc
libKPim5MessageComposer.so.5:_ZN15MessageComposer32PluginEditorConvertTextInterface12createActionEP17KActionCollection
libKPim5MessageComposer.so.5:_ZN15MessageComposer32PluginEditorConvertTextInterface12reformatTextEv
libKPim5MessageComposer.so.5:_ZN15MessageComposer32PluginEditorConvertTextInterface12reloadConfigEv
libKPim5MessageComposer.so.5:_ZN15MessageComposer32PluginEditorConvertTextInterface13addActionTypeENS_16PluginActionTypeE
libKPim5MessageComposer.so.5:_ZN15MessageComposer32PluginEditorConvertTextInterface13setActionTypeERK7QVectorINS_16PluginActionTypeEE
libKPim5MessageComposer.so.5:_ZN15MessageComposer32PluginEditorConvertTextInterface14setInitialDataERKNS_32PluginEditorConverterInitialDataE
libKPim5MessageComposer.so.5:_ZN15MessageComposer32PluginEditorConvertTextInterface14textReformatedEv
libKPim5MessageComposer.so.5:_ZN15MessageComposer32PluginEditorConvertTextInterface15setParentWidgetEP7QWidget
libKPim5MessageComposer.so.5:_ZN15MessageComposer32PluginEditorConvertTextInterface17setRichTextEditorEPN12KPIMTextEdit16RichTextComposerE
libKPim5MessageComposer.so.5:_ZN15MessageComposer32PluginEditorConvertTextInterface18setStatusBarWidgetEP7QWidget
libKPim5MessageComposer.so.5:_ZN15MessageComposer32PluginEditorConvertTextInterface23setBeforeConvertingDataERKNS_41PluginEditorConverterBeforeConvertingDataE
libKPim5MessageComposer.so.5:_ZN15MessageComposer32PluginEditorConvertTextInterface26enableDisablePluginActionsEb
libKPim5MessageComposer.so.5:_ZN15MessageComposer32PluginEditorConvertTextInterface9setPluginEPNS_23PluginEditorConvertTextE
libKPim5MessageComposer.so.5:_ZN15MessageComposer32PluginEditorConvertTextInterfaceC1EP7QObject
libKPim5MessageComposer.so.5:_ZN15MessageComposer32PluginEditorConvertTextInterfaceC2EP7QObject
libKPim5MessageComposer.so.5:_ZN15MessageComposer32PluginEditorConvertTextInterfaceD0Ev
libKPim5MessageComposer.so.5:_ZN15MessageComposer32PluginEditorConvertTextInterfaceD1Ev
libKPim5MessageComposer.so.5:_ZN15MessageComposer32PluginEditorConvertTextInterfaceD2Ev
libKPim5MessageComposer.so.5:_ZN15MessageComposer32PluginEditorConverterInitialData13setNewMessageEb
libKPim5MessageComposer.so.5:_ZN15MessageComposer32PluginEditorConverterInitialData9setMewMsgERK14QSharedPointerIN5KMime7MessageEE
libKPim5MessageComposer.so.5:_ZN15MessageComposer32PluginEditorConverterInitialDataC1Ev
libKPim5MessageComposer.so.5:_ZN15MessageComposer32PluginEditorConverterInitialDataC2Ev
libKPim5MessageComposer.so.5:_ZN15MessageComposer33AttachmentVcardFromAddressBookJob11qt_metacallEN11QMetaObject4CallEiPPv
libKPim5MessageComposer.so.5:_ZN15MessageComposer33AttachmentVcardFromAddressBookJob11qt_metacastEPKc
libKPim5MessageComposer.so.5:_ZN15MessageComposer33AttachmentVcardFromAddressBookJob7doStartEv
libKPim5MessageComposer.so.5:_ZN15MessageComposer33AttachmentVcardFromAddressBookJobC1ERKN7Akonadi4ItemEP7QObject
libKPim5MessageComposer.so.5:_ZN15MessageComposer33AttachmentVcardFromAddressBookJobC2ERKN7Akonadi4ItemEP7QObject
libKPim5MessageComposer.so.5:_ZN15MessageComposer33AttachmentVcardFromAddressBookJobD0Ev
libKPim5MessageComposer.so.5:_ZN15MessageComposer33AttachmentVcardFromAddressBookJobD1Ev
libKPim5MessageComposer.so.5:_ZN15MessageComposer33AttachmentVcardFromAddressBookJobD2Ev
libKPim5MessageComposer.so.5:_ZN15MessageComposer33PluginEditorCheckBeforeSendParams10setSubjectERK7QString
libKPim5MessageComposer.so.5:_ZN15MessageComposer33PluginEditorCheckBeforeSendParams11setHtmlMailEb
libKPim5MessageComposer.so.5:_ZN15MessageComposer33PluginEditorCheckBeforeSendParams11setIdentityEj
libKPim5MessageComposer.so.5:_ZN15MessageComposer33PluginEditorCheckBeforeSendParams12setPlainTextERK7QString
libKPim5MessageComposer.so.5:_ZN15MessageComposer33PluginEditorCheckBeforeSendParams14setCcAddressesERK7QString
libKPim5MessageComposer.so.5:_ZN15MessageComposer33PluginEditorCheckBeforeSendParams14setToAddressesERK7QString
libKPim5MessageComposer.so.5:_ZN15MessageComposer33PluginEditorCheckBeforeSendParams14setTransportIdEi
libKPim5MessageComposer.so.5:_ZN15MessageComposer33PluginEditorCheckBeforeSendParams15setBccAddressesERK7QString
libKPim5MessageComposer.so.5:_ZN15MessageComposer33PluginEditorCheckBeforeSendParams16setDefaultDomainERK7QString
libKPim5MessageComposer.so.5:_ZN15MessageComposer33PluginEditorCheckBeforeSendParams16setHasAttachmentEb
libKPim5MessageComposer.so.5:_ZN15MessageComposer33PluginEditorCheckBeforeSendParamsC1ERKS0_
libKPim5MessageComposer.so.5:_ZN15MessageComposer33PluginEditorCheckBeforeSendParamsC1Ev
libKPim5MessageComposer.so.5:_ZN15MessageComposer33PluginEditorCheckBeforeSendParamsC2ERKS0_
libKPim5MessageComposer.so.5:_ZN15MessageComposer33PluginEditorCheckBeforeSendParamsC2Ev
libKPim5MessageComposer.so.5:_ZN15MessageComposer33PluginEditorCheckBeforeSendParamsD1Ev
libKPim5MessageComposer.so.5:_ZN15MessageComposer33PluginEditorCheckBeforeSendParamsD2Ev
libKPim5MessageComposer.so.5:_ZN15MessageComposer33PluginEditorCheckBeforeSendParamsaSERKS0_
libKPim5MessageComposer.so.5:_ZN15MessageComposer34PluginEditorCheckBeforeSendManager11qt_metacallEN11QMetaObject4CallEiPPv
libKPim5MessageComposer.so.5:_ZN15MessageComposer34PluginEditorCheckBeforeSendManager11qt_metacastEPKc
libKPim5MessageComposer.so.5:_ZN15MessageComposer34PluginEditorCheckBeforeSendManager20pluginFromIdentifierERK7QString
libKPim5MessageComposer.so.5:_ZN15MessageComposer34PluginEditorCheckBeforeSendManager4selfEv
libKPim5MessageComposer.so.5:_ZN15MessageComposer34PluginEditorCheckBeforeSendManagerC1EP7QObject
libKPim5MessageComposer.so.5:_ZN15MessageComposer34PluginEditorCheckBeforeSendManagerC2EP7QObject
libKPim5MessageComposer.so.5:_ZN15MessageComposer34PluginEditorCheckBeforeSendManagerD0Ev
libKPim5MessageComposer.so.5:_ZN15MessageComposer34PluginEditorCheckBeforeSendManagerD1Ev
libKPim5MessageComposer.so.5:_ZN15MessageComposer34PluginEditorCheckBeforeSendManagerD2Ev
libKPim5MessageComposer.so.5:_ZN15MessageComposer36PluginEditorCheckBeforeSendInterface11qt_metacallEN11QMetaObject4CallEiPPv
libKPim5MessageComposer.so.5:_ZN15MessageComposer36PluginEditorCheckBeforeSendInterface11qt_metacastEPKc
libKPim5MessageComposer.so.5:_ZN15MessageComposer36PluginEditorCheckBeforeSendInterface12reloadConfigEv
libKPim5MessageComposer.so.5:_ZN15MessageComposer36PluginEditorCheckBeforeSendInterface13setParametersERKNS_33PluginEditorCheckBeforeSendParamsE
libKPim5MessageComposer.so.5:_ZN15MessageComposer36PluginEditorCheckBeforeSendInterface15setParentWidgetEP7QWidget
libKPim5MessageComposer.so.5:_ZN15MessageComposer36PluginEditorCheckBeforeSendInterfaceC1EP7QObject
libKPim5MessageComposer.so.5:_ZN15MessageComposer36PluginEditorCheckBeforeSendInterfaceC2EP7QObject
libKPim5MessageComposer.so.5:_ZN15MessageComposer36PluginEditorCheckBeforeSendInterfaceD0Ev
libKPim5MessageComposer.so.5:_ZN15MessageComposer36PluginEditorCheckBeforeSendInterfaceD1Ev
libKPim5MessageComposer.so.5:_ZN15MessageComposer36PluginEditorCheckBeforeSendInterfaceD2Ev
libKPim5MessageComposer.so.5:_ZN15MessageComposer41PluginEditorConverterBeforeConvertingData10setMessageERK14QSharedPointerIN5KMime7MessageEE
libKPim5MessageComposer.so.5:_ZN15MessageComposer41PluginEditorConverterBeforeConvertingData13setNewMessageEb
libKPim5MessageComposer.so.5:_ZN15MessageComposer41PluginEditorConverterBeforeConvertingDataC1Ev
libKPim5MessageComposer.so.5:_ZN15MessageComposer41PluginEditorConverterBeforeConvertingDataC2Ev
libKPim5MessageComposer.so.5:_ZN15MessageComposer43PluginEditorGrammarCustomToolsViewInterface11qt_metacallEN11QMetaObject4CallEiPPv
libKPim5MessageComposer.so.5:_ZN15MessageComposer43PluginEditorGrammarCustomToolsViewInterface11qt_metacastEPKc
libKPim5MessageComposer.so.5:_ZN15MessageComposer43PluginEditorGrammarCustomToolsViewInterface11replaceTextERKNS_19PluginGrammarActionE
libKPim5MessageComposer.so.5:_ZN15MessageComposer43PluginEditorGrammarCustomToolsViewInterface15setParentWidgetEP7QWidget
libKPim5MessageComposer.so.5:_ZN15MessageComposer43PluginEditorGrammarCustomToolsViewInterface17setRichTextEditorEPN12KPIMTextEdit16RichTextComposerE
libKPim5MessageComposer.so.5:_ZN15MessageComposer43PluginEditorGrammarCustomToolsViewInterfaceC1EP7QWidget
libKPim5MessageComposer.so.5:_ZN15MessageComposer43PluginEditorGrammarCustomToolsViewInterfaceC2EP7QWidget
libKPim5MessageComposer.so.5:_ZN15MessageComposer43PluginEditorGrammarCustomToolsViewInterfaceD0Ev
libKPim5MessageComposer.so.5:_ZN15MessageComposer43PluginEditorGrammarCustomToolsViewInterfaceD1Ev
libKPim5MessageComposer.so.5:_ZN15MessageComposer43PluginEditorGrammarCustomToolsViewInterfaceD2Ev
libKPim5MessageComposer.so.5:_ZN15MessageComposer4Util13selectCharsetERK7QVectorI10QByteArrayERK7QString
libKPim5MessageComposer.so.5:_ZN15MessageComposer4Util14cleanEmailListERK11QStringList
libKPim5MessageComposer.so.5:_ZN15MessageComposer4Util16addCustomHeadersERK14QSharedPointerIN5KMime7MessageEERK4QMapI10QByteArray7QStringE
libKPim5MessageComposer.so.5:_ZN15MessageComposer4Util17findTypeInMessageEPN5KMime7ContentERK10QByteArrayS6_
libKPim5MessageComposer.so.5:_ZN15MessageComposer4Util18AttachmentKeywordsEv
libKPim5MessageComposer.so.5:_ZN15MessageComposer4Util18addLinkInformationERK14QSharedPointerIN5KMime7MessageEExN7Akonadi13MessageStatusE
libKPim5MessageComposer.so.5:_ZN15MessageComposer4Util18getLinkInformationERK14QSharedPointerIN5KMime7MessageEER7QVectorIxERS7_IN7Akonadi13MessageStatusEE
libKPim5MessageComposer.so.5:_ZN15MessageComposer4Util19isStandaloneMessageERKN7Akonadi4ItemE
libKPim5MessageComposer.so.5:_ZN15MessageComposer4Util21cleanedUpHeaderStringERK7QString
libKPim5MessageComposer.so.5:_ZN15MessageComposer4Util21hasMissingAttachmentsERK11QStringListP13QTextDocumentRK7QString
libKPim5MessageComposer.so.5:_ZN15MessageComposer4Util26sendMailDispatcherIsOnlineEP7QWidget
libKPim5MessageComposer.so.5:_ZN15MessageComposer4Util27cleanUpEmailListAndEncodingERK11QStringList
libKPim5MessageComposer.so.5:_ZN15MessageComposer4Util7messageERKN7Akonadi4ItemE
libKPim5MessageComposer.so.5:_ZN15MessageComposer7ItipJob11qt_metacallEN11QMetaObject4CallEiPPv
libKPim5MessageComposer.so.5:_ZN15MessageComposer7ItipJob11qt_metacastEPKc
libKPim5MessageComposer.so.5:_ZN15MessageComposer7ItipJob11setItipPartEPNS_8ItipPartE
libKPim5MessageComposer.so.5:_ZN15MessageComposer7ItipJob7doStartEv
libKPim5MessageComposer.so.5:_ZN15MessageComposer7ItipJob7processEv
libKPim5MessageComposer.so.5:_ZN15MessageComposer7ItipJobC1EPNS_8ItipPartEP7QObject
libKPim5MessageComposer.so.5:_ZN15MessageComposer7ItipJobC2EPNS_8ItipPartEP7QObject
libKPim5MessageComposer.so.5:_ZN15MessageComposer7ItipJobD0Ev
libKPim5MessageComposer.so.5:_ZN15MessageComposer7ItipJobD1Ev
libKPim5MessageComposer.so.5:_ZN15MessageComposer7ItipJobD2Ev
libKPim5MessageComposer.so.5:_ZN15MessageComposer7JobBase10globalPartEv
libKPim5MessageComposer.so.5:_ZN15MessageComposer7JobBase11qt_metacallEN11QMetaObject4CallEiPPv
libKPim5MessageComposer.so.5:_ZN15MessageComposer7JobBase11qt_metacastEPKc
libKPim5MessageComposer.so.5:_ZN15MessageComposer7JobBaseC1EP7QObject
libKPim5MessageComposer.so.5:_ZN15MessageComposer7JobBaseC1ERNS_14JobBasePrivateEP7QObject
libKPim5MessageComposer.so.5:_ZN15MessageComposer7JobBaseC2EP7QObject
libKPim5MessageComposer.so.5:_ZN15MessageComposer7JobBaseC2ERNS_14JobBasePrivateEP7QObject
libKPim5MessageComposer.so.5:_ZN15MessageComposer7JobBaseD0Ev
libKPim5MessageComposer.so.5:_ZN15MessageComposer7JobBaseD1Ev
libKPim5MessageComposer.so.5:_ZN15MessageComposer7JobBaseD2Ev
libKPim5MessageComposer.so.5:_ZN15MessageComposer7SignJob10setContentEPN5KMime7ContentE
libKPim5MessageComposer.so.5:_ZN15MessageComposer7SignJob10slotResultEP4KJob
libKPim5MessageComposer.so.5:_ZN15MessageComposer7SignJob11origContentEv
libKPim5MessageComposer.so.5:_ZN15MessageComposer7SignJob11qt_metacallEN11QMetaObject4CallEiPPv
libKPim5MessageComposer.so.5:_ZN15MessageComposer7SignJob11qt_metacastEPKc
libKPim5MessageComposer.so.5:_ZN15MessageComposer7SignJob14setSigningKeysERKSt6vectorIN5GpgME3KeyESaIS3_EE
libKPim5MessageComposer.so.5:_ZN15MessageComposer7SignJob18setSkeletonMessageEPN5KMime7MessageE
libKPim5MessageComposer.so.5:_ZN15MessageComposer7SignJob19setProtectedHeadersEb
libKPim5MessageComposer.so.5:_ZN15MessageComposer7SignJob22setCryptoMessageFormatEN4Kleo19CryptoMessageFormatE
libKPim5MessageComposer.so.5:_ZN15MessageComposer7SignJob7doStartEv
libKPim5MessageComposer.so.5:_ZN15MessageComposer7SignJob7processEv
libKPim5MessageComposer.so.5:_ZN15MessageComposer7SignJobC1EP7QObject
libKPim5MessageComposer.so.5:_ZN15MessageComposer7SignJobC2EP7QObject
libKPim5MessageComposer.so.5:_ZN15MessageComposer7SignJobD0Ev
libKPim5MessageComposer.so.5:_ZN15MessageComposer7SignJobD1Ev
libKPim5MessageComposer.so.5:_ZN15MessageComposer7SignJobD2Ev
libKPim5MessageComposer.so.5:_ZN15MessageComposer8Composer10slotResultEP4KJob
libKPim5MessageComposer.so.5:_ZN15MessageComposer8Composer11qt_metacallEN11QMetaObject4CallEiPPv
libKPim5MessageComposer.so.5:_ZN15MessageComposer8Composer11qt_metacastEPKc
libKPim5MessageComposer.so.5:_ZN15MessageComposer8Composer11setAutoSaveEb
libKPim5MessageComposer.so.5:_ZN15MessageComposer8Composer11setNoCryptoEb
libKPim5MessageComposer.so.5:_ZN15MessageComposer8Composer12setGnupgHomeERK7QString
libKPim5MessageComposer.so.5:_ZN15MessageComposer8Composer13clearItipPartEv
libKPim5MessageComposer.so.5:_ZN15MessageComposer8Composer13clearTextPartEv
libKPim5MessageComposer.so.5:_ZN15MessageComposer8Composer14setSigningKeysERKSt6vectorIN5GpgME3KeyESaIS3_EE
libKPim5MessageComposer.so.5:_ZN15MessageComposer8Composer17addAttachmentPartE14QSharedPointerIN11MessageCore14AttachmentPartEEb
libKPim5MessageComposer.so.5:_ZN15MessageComposer8Composer17setEncryptionKeysERK7QVectorI5QPairI11QStringListSt6vectorIN5GpgME3KeyESaIS6_EEEE
libKPim5MessageComposer.so.5:_ZN15MessageComposer8Composer17setSignAndEncryptEbb
libKPim5MessageComposer.so.5:_ZN15MessageComposer8Composer18addAttachmentPartsERK5QListI14QSharedPointerIN11MessageCore14AttachmentPartEEEb
libKPim5MessageComposer.so.5:_ZN15MessageComposer8Composer19setAutocryptEnabledEb
libKPim5MessageComposer.so.5:_ZN15MessageComposer8Composer20removeAttachmentPartE14QSharedPointerIN11MessageCore14AttachmentPartEE
libKPim5MessageComposer.so.5:_ZN15MessageComposer8Composer22setMessageCryptoFormatEN4Kleo19CryptoMessageFormatE
libKPim5MessageComposer.so.5:_ZN15MessageComposer8Composer22setSenderEncryptionKeyERKN5GpgME3KeyE
libKPim5MessageComposer.so.5:_ZN15MessageComposer8Composer5startEv
libKPim5MessageComposer.so.5:_ZN15MessageComposer8ComposerC1EP7QObject
libKPim5MessageComposer.so.5:_ZN15MessageComposer8ComposerC2EP7QObject
libKPim5MessageComposer.so.5:_ZN15MessageComposer8ComposerD0Ev
libKPim5MessageComposer.so.5:_ZN15MessageComposer8ComposerD1Ev
libKPim5MessageComposer.so.5:_ZN15MessageComposer8ComposerD2Ev
libKPim5MessageComposer.so.5:_ZN15MessageComposer8InfoPart10bccChangedEv
libKPim5MessageComposer.so.5:_ZN15MessageComposer8InfoPart10fccChangedEv
libKPim5MessageComposer.so.5:_ZN15MessageComposer8InfoPart10setReplyToERK11QStringList
libKPim5MessageComposer.so.5:_ZN15MessageComposer8InfoPart10setSubjectERK7QString
libKPim5MessageComposer.so.5:_ZN15MessageComposer8InfoPart11fromChangedEv
libKPim5MessageComposer.so.5:_ZN15MessageComposer8InfoPart11qt_metacallEN11QMetaObject4CallEiPPv
libKPim5MessageComposer.so.5:_ZN15MessageComposer8InfoPart11qt_metacastEPKc
libKPim5MessageComposer.so.5:_ZN15MessageComposer8InfoPart12setInReplyToERK7QString
libKPim5MessageComposer.so.5:_ZN15MessageComposer8InfoPart12setUserAgentERK7QString
libKPim5MessageComposer.so.5:_ZN15MessageComposer8InfoPart13setReferencesERK7QString
libKPim5MessageComposer.so.5:_ZN15MessageComposer8InfoPart13urgentChangedEv
libKPim5MessageComposer.so.5:_ZN15MessageComposer8InfoPart14replyToChangedEv
libKPim5MessageComposer.so.5:_ZN15MessageComposer8InfoPart14setTransportIdEi
libKPim5MessageComposer.so.5:_ZN15MessageComposer8InfoPart14subjectChangedEv
libKPim5MessageComposer.so.5:_ZN15MessageComposer8InfoPart15setExtraHeadersERK7QVectorIPN5KMime7Headers4BaseEE
libKPim5MessageComposer.so.5:_ZN15MessageComposer8InfoPart16inReplyToChangedEv
libKPim5MessageComposer.so.5:_ZN15MessageComposer8InfoPart16userAgentChangedEv
libKPim5MessageComposer.so.5:_ZN15MessageComposer8InfoPart5setCcERK11QStringList
libKPim5MessageComposer.so.5:_ZN15MessageComposer8InfoPart5setToERK11QStringList
libKPim5MessageComposer.so.5:_ZN15MessageComposer8InfoPart6setBccERK11QStringList
libKPim5MessageComposer.so.5:_ZN15MessageComposer8InfoPart6setFccERK7QString
libKPim5MessageComposer.so.5:_ZN15MessageComposer8InfoPart7setFromERK7QString
libKPim5MessageComposer.so.5:_ZN15MessageComposer8InfoPart9ccChangedEv
libKPim5MessageComposer.so.5:_ZN15MessageComposer8InfoPart9setUrgentEb
libKPim5MessageComposer.so.5:_ZN15MessageComposer8InfoPart9toChangedEv
libKPim5MessageComposer.so.5:_ZN15MessageComposer8InfoPartC1EP7QObject
libKPim5MessageComposer.so.5:_ZN15MessageComposer8InfoPartC2EP7QObject
libKPim5MessageComposer.so.5:_ZN15MessageComposer8InfoPartD0Ev
libKPim5MessageComposer.so.5:_ZN15MessageComposer8InfoPartD1Ev
libKPim5MessageComposer.so.5:_ZN15MessageComposer8InfoPartD2Ev
libKPim5MessageComposer.so.5:_ZN15MessageComposer8ItipPart11qt_metacallEN11QMetaObject4CallEiPPv
libKPim5MessageComposer.so.5:_ZN15MessageComposer8ItipPart11qt_metacastEPKc
libKPim5MessageComposer.so.5:_ZN15MessageComposer8ItipPart13setInvitationERK7QString
libKPim5MessageComposer.so.5:_ZN15MessageComposer8ItipPart17invitationChangedEv
libKPim5MessageComposer.so.5:_ZN15MessageComposer8ItipPart17setInvitationBodyERK7QString
libKPim5MessageComposer.so.5:_ZN15MessageComposer8ItipPart21invitationBodyChangedEv
libKPim5MessageComposer.so.5:_ZN15MessageComposer8ItipPart27setOutlookConformInvitationEb
libKPim5MessageComposer.so.5:_ZN15MessageComposer8ItipPart31outlookConformInvitationChangedEv
libKPim5MessageComposer.so.5:_ZN15MessageComposer8ItipPartC1EP7QObject
libKPim5MessageComposer.so.5:_ZN15MessageComposer8ItipPartC2EP7QObject
libKPim5MessageComposer.so.5:_ZN15MessageComposer8ItipPartD0Ev
libKPim5MessageComposer.so.5:_ZN15MessageComposer8ItipPartD1Ev
libKPim5MessageComposer.so.5:_ZN15MessageComposer8ItipPartD2Ev
libKPim5MessageComposer.so.5:_ZN15MessageComposer8TextPart11qt_metacallEN11QMetaObject4CallEiPPv
libKPim5MessageComposer.so.5:_ZN15MessageComposer8TextPart11qt_metacastEPKc
libKPim5MessageComposer.so.5:_ZN15MessageComposer8TextPart12setCleanHtmlERK7QString
libKPim5MessageComposer.so.5:_ZN15MessageComposer8TextPart16cleanHtmlChangedEv
libKPim5MessageComposer.so.5:_ZN15MessageComposer8TextPart17setCleanPlainTextERK7QString
libKPim5MessageComposer.so.5:_ZN15MessageComposer8TextPart17setEmbeddedImagesERK7QVectorI14QSharedPointerIN12KPIMTextEdit13EmbeddedImageEEE
libKPim5MessageComposer.so.5:_ZN15MessageComposer8TextPart17setWarnBadCharsetEb
libKPim5MessageComposer.so.5:_ZN15MessageComposer8TextPart19setWrappedPlainTextERK7QString
libKPim5MessageComposer.so.5:_ZN15MessageComposer8TextPart19wordWrappingChangedEv
libKPim5MessageComposer.so.5:_ZN15MessageComposer8TextPart21cleanPlainTextChangedEv
libKPim5MessageComposer.so.5:_ZN15MessageComposer8TextPart21embeddedImagesChangedEv
libKPim5MessageComposer.so.5:_ZN15MessageComposer8TextPart21warnBadCharsetChangedEv
libKPim5MessageComposer.so.5:_ZN15MessageComposer8TextPart22setWordWrappingEnabledEb
libKPim5MessageComposer.so.5:_ZN15MessageComposer8TextPart23wrappedPlainTextChangedEv
libKPim5MessageComposer.so.5:_ZN15MessageComposer8TextPartC1EP7QObject
libKPim5MessageComposer.so.5:_ZN15MessageComposer8TextPartC2EP7QObject
libKPim5MessageComposer.so.5:_ZN15MessageComposer8TextPartD0Ev
libKPim5MessageComposer.so.5:_ZN15MessageComposer8TextPartD1Ev
libKPim5MessageComposer.so.5:_ZN15MessageComposer8TextPartD2Ev
libKPim5MessageComposer.so.5:_ZN15MessageComposer9Recipient13allTypeLabelsEv
libKPim5MessageComposer.so.5:_ZN15MessageComposer9Recipient19setEncryptionActionEN4Kleo6ActionE
libKPim5MessageComposer.so.5:_ZN15MessageComposer9Recipient5clearEv
libKPim5MessageComposer.so.5:_ZN15MessageComposer9Recipient6setKeyERKN5GpgME3KeyE
libKPim5MessageComposer.so.5:_ZN15MessageComposer9Recipient7setNameERK7QString
libKPim5MessageComposer.so.5:_ZN15MessageComposer9Recipient7setTypeENS0_4TypeE
libKPim5MessageComposer.so.5:_ZN15MessageComposer9Recipient8idToTypeEi
libKPim5MessageComposer.so.5:_ZN15MessageComposer9Recipient8setEmailERK7QString
libKPim5MessageComposer.so.5:_ZN15MessageComposer9Recipient8typeToIdENS0_4TypeE
libKPim5MessageComposer.so.5:_ZN15MessageComposer9Recipient9typeLabelENS0_4TypeE
libKPim5MessageComposer.so.5:_ZN15MessageComposer9RecipientC1ERK7QStringNS0_4TypeE
libKPim5MessageComposer.so.5:_ZN15MessageComposer9RecipientC2ERK7QStringNS0_4TypeE
libKPim5MessageComposer.so.5:_ZN15MessageComposer9RecipientD0Ev
libKPim5MessageComposer.so.5:_ZN15MessageComposer9RecipientD1Ev
libKPim5MessageComposer.so.5:_ZN15MessageComposer9RecipientD2Ev
libKPim5MessageComposer.so.5:_ZN4Kleo11KeyResolver14resolveAllKeysERbS1_
libKPim5MessageComposer.so.5:_ZN4Kleo11KeyResolver14setSigningKeysERK11QStringList
libKPim5MessageComposer.so.5:_ZN4Kleo11KeyResolver18addToAllSplitInfosERKSt6vectorIN5GpgME3KeyESaIS3_EEj
libKPim5MessageComposer.so.5:_ZN4Kleo11KeyResolver18getEncryptionItemsERK11QStringList
libKPim5MessageComposer.so.5:_ZN4Kleo11KeyResolver19setAutocryptEnabledEb
libKPim5MessageComposer.so.5:_ZN4Kleo11KeyResolver20setEncryptToSelfKeysERK11QStringList
libKPim5MessageComposer.so.5:_ZN4Kleo11KeyResolver20setPrimaryRecipientsERK11QStringList
libKPim5MessageComposer.so.5:_ZN4Kleo11KeyResolver21collapseAllSplitInfosEv
libKPim5MessageComposer.so.5:_ZN4Kleo11KeyResolver21resolveEncryptionKeysEbRb
libKPim5MessageComposer.so.5:_ZN4Kleo11KeyResolver21setContactPreferencesERK7QStringRKN15MessageComposer17ContactPreferenceE
libKPim5MessageComposer.so.5:_ZN4Kleo11KeyResolver21showKeyApprovalDialogERb
libKPim5MessageComposer.so.5:_ZN4Kleo11KeyResolver22setSecondaryRecipientsERK11QStringList
libKPim5MessageComposer.so.5:_ZN4Kleo11KeyResolver23setAkonadiLookupEnabledEb
libKPim5MessageComposer.so.5:_ZN4Kleo11KeyResolver24SigningPreferenceCounterclERKNS0_4ItemE
libKPim5MessageComposer.so.5:_ZN4Kleo11KeyResolver27EncryptionPreferenceCounterclERNS0_4ItemE
libKPim5MessageComposer.so.5:_ZN4Kleo11KeyResolver31resolveSigningKeysForEncryptionEv
libKPim5MessageComposer.so.5:_ZN4Kleo11KeyResolver32resolveSigningKeysForSigningOnlyEv
libKPim5MessageComposer.so.5:_ZN4Kleo11KeyResolver7addKeysERKSt6vectorINS0_4ItemESaIS2_EE
libKPim5MessageComposer.so.5:_ZN4Kleo11KeyResolver7addKeysERKSt6vectorINS0_4ItemESaIS2_EENS_19CryptoMessageFormatE
libKPim5MessageComposer.so.5:_ZN4Kleo11KeyResolverC1EbbbjRKSt10shared_ptrINS_13ExpiryCheckerEE
libKPim5MessageComposer.so.5:_ZN4Kleo11KeyResolverC2EbbbjRKSt10shared_ptrINS_13ExpiryCheckerEE
libKPim5MessageComposer.so.5:_ZN4Kleo11KeyResolverD1Ev
libKPim5MessageComposer.so.5:_ZN4Kleo11KeyResolverD2Ev
libKPim5MessageComposer.so.5:_ZNK15MessageComposer10EncryptJob10metaObjectEv
libKPim5MessageComposer.so.5:_ZNK15MessageComposer10EncryptJob10recipientsEv
libKPim5MessageComposer.so.5:_ZNK15MessageComposer10EncryptJob14encryptionKeysEv
libKPim5MessageComposer.so.5:_ZNK15MessageComposer10GlobalPart10metaObjectEv
libKPim5MessageComposer.so.5:_ZNK15MessageComposer10GlobalPart12MDNRequestedEv
libKPim5MessageComposer.so.5:_ZNK15MessageComposer10GlobalPart12isGuiEnabledEv
libKPim5MessageComposer.so.5:_ZNK15MessageComposer10GlobalPart13is8BitAllowedEv
libKPim5MessageComposer.so.5:_ZNK15MessageComposer10GlobalPart18parentWidgetForGuiEv
libKPim5MessageComposer.so.5:_ZNK15MessageComposer10GlobalPart24isFallbackCharsetEnabledEv
libKPim5MessageComposer.so.5:_ZNK15MessageComposer10GlobalPart27requestDeleveryConfirmationEv
libKPim5MessageComposer.so.5:_ZNK15MessageComposer10GlobalPart8charsetsEb
libKPim5MessageComposer.so.5:_ZNK15MessageComposer11MainTextJob10metaObjectEv
libKPim5MessageComposer.so.5:_ZNK15MessageComposer11MainTextJob8textPartEv
libKPim5MessageComposer.so.5:_ZNK15MessageComposer11MessagePart10metaObjectEv
libKPim5MessageComposer.so.5:_ZNK15MessageComposer12ImageScaling10imageArrayEv
libKPim5MessageComposer.so.5:_ZNK15MessageComposer12ImageScaling8mimetypeEv
libKPim5MessageComposer.so.5:_ZNK15MessageComposer12MultipartJob10metaObjectEv
libKPim5MessageComposer.so.5:_ZNK15MessageComposer12MultipartJob16multipartSubtypeEv
libKPim5MessageComposer.so.5:_ZNK15MessageComposer12PluginEditor10metaObjectEv
libKPim5MessageComposer.so.5:_ZNK15MessageComposer12PluginEditor18canProcessKeyEventEv
libKPim5MessageComposer.so.5:_ZNK15MessageComposer12PluginEditor5orderEv
libKPim5MessageComposer.so.5:_ZNK15MessageComposer12SendLaterJob10metaObjectEv
libKPim5MessageComposer.so.5:_ZNK15MessageComposer13AkonadiSender10metaObjectEv
libKPim5MessageComposer.so.5:_ZNK15MessageComposer13AttachmentJob10metaObjectEv
libKPim5MessageComposer.so.5:_ZNK15MessageComposer13AttachmentJob14attachmentPartEv
libKPim5MessageComposer.so.5:_ZNK15MessageComposer13SendLaterInfo12isRecurrenceEv
libKPim5MessageComposer.so.5:_ZNK15MessageComposer13SendLaterInfo14recurrenceUnitEv
libKPim5MessageComposer.so.5:_ZNK15MessageComposer13SendLaterInfo16lastDateTimeSendEv
libKPim5MessageComposer.so.5:_ZNK15MessageComposer13SendLaterInfo19recurrenceEachValueEv
libKPim5MessageComposer.so.5:_ZNK15MessageComposer13SendLaterInfo2toEv
libKPim5MessageComposer.so.5:_ZNK15MessageComposer13SendLaterInfo6itemIdEv
libKPim5MessageComposer.so.5:_ZNK15MessageComposer13SendLaterInfo7isValidEv
libKPim5MessageComposer.so.5:_ZNK15MessageComposer13SendLaterInfo7subjectEv
libKPim5MessageComposer.so.5:_ZNK15MessageComposer13SendLaterInfo8dateTimeEv
libKPim5MessageComposer.so.5:_ZNK15MessageComposer13SendLaterInfoeqERKS0_
libKPim5MessageComposer.so.5:_ZNK15MessageComposer13SinglepartJob10metaObjectEv
libKPim5MessageComposer.so.5:_ZNK15MessageComposer13SinglepartJob4dataEv
libKPim5MessageComposer.so.5:_ZNK15MessageComposer14ContentJobBase10metaObjectEv
libKPim5MessageComposer.so.5:_ZNK15MessageComposer14ContentJobBase12extraContentEv
libKPim5MessageComposer.so.5:_ZNK15MessageComposer14ContentJobBase7contentEv
libKPim5MessageComposer.so.5:_ZNK15MessageComposer14SignEncryptJob10metaObjectEv
libKPim5MessageComposer.so.5:_ZNK15MessageComposer14SignEncryptJob10recipientsEv
libKPim5MessageComposer.so.5:_ZNK15MessageComposer14SignEncryptJob14encryptionKeysEv
libKPim5MessageComposer.so.5:_ZNK15MessageComposer14TransparentJob10metaObjectEv
libKPim5MessageComposer.so.5:_ZNK15MessageComposer15AttachmentModel10headerDataEiN2Qt11OrientationEi
libKPim5MessageComposer.so.5:_ZNK15MessageComposer15AttachmentModel10isModifiedEv
libKPim5MessageComposer.so.5:_ZNK15MessageComposer15AttachmentModel10metaObjectEv
libKPim5MessageComposer.so.5:_ZNK15MessageComposer15AttachmentModel11attachmentsEv
libKPim5MessageComposer.so.5:_ZNK15MessageComposer15AttachmentModel11columnCountERK11QModelIndex
libKPim5MessageComposer.so.5:_ZNK15MessageComposer15AttachmentModel13isSignEnabledEv
libKPim5MessageComposer.so.5:_ZNK15MessageComposer15AttachmentModel14isSignSelectedEv
libKPim5MessageComposer.so.5:_ZNK15MessageComposer15AttachmentModel16isEncryptEnabledEv
libKPim5MessageComposer.so.5:_ZNK15MessageComposer15AttachmentModel17isEncryptSelectedEv
libKPim5MessageComposer.so.5:_ZNK15MessageComposer15AttachmentModel20isAutoDisplayEnabledEv
libKPim5MessageComposer.so.5:_ZNK15MessageComposer15AttachmentModel20supportedDropActionsEv
libKPim5MessageComposer.so.5:_ZNK15MessageComposer15AttachmentModel4dataERK11QModelIndexi
libKPim5MessageComposer.so.5:_ZNK15MessageComposer15AttachmentModel5flagsERK11QModelIndex
libKPim5MessageComposer.so.5:_ZNK15MessageComposer15AttachmentModel5indexEiiRK11QModelIndex
libKPim5MessageComposer.so.5:_ZNK15MessageComposer15AttachmentModel6parentERK11QModelIndex
libKPim5MessageComposer.so.5:_ZNK15MessageComposer15AttachmentModel8mimeDataERK5QListI11QModelIndexE
libKPim5MessageComposer.so.5:_ZNK15MessageComposer15AttachmentModel8rowCountERK11QModelIndex
libKPim5MessageComposer.so.5:_ZNK15MessageComposer15AttachmentModel9mimeTypesEv
libKPim5MessageComposer.so.5:_ZNK15MessageComposer15MDNAdviceDialog10metaObjectEv
libKPim5MessageComposer.so.5:_ZNK15MessageComposer15MDNAdviceDialog6resultEv
libKPim5MessageComposer.so.5:_ZNK15MessageComposer15MDNAdviceHelper10metaObjectEv
libKPim5MessageComposer.so.5:_ZNK15MessageComposer15RecipientLineNG10isModifiedEv
libKPim5MessageComposer.so.5:_ZNK15MessageComposer15RecipientLineNG10metaObjectEv
libKPim5MessageComposer.so.5:_ZNK15MessageComposer15RecipientLineNG13recipientTypeEv
libKPim5MessageComposer.so.5:_ZNK15MessageComposer15RecipientLineNG15recipientsCountEv
libKPim5MessageComposer.so.5:_ZNK15MessageComposer15RecipientLineNG17canDeleteLineEditEv
libKPim5MessageComposer.so.5:_ZNK15MessageComposer15RecipientLineNG17enableIndexSearchEv
libKPim5MessageComposer.so.5:_ZNK15MessageComposer15RecipientLineNG19enableAkonadiSearchEv
libKPim5MessageComposer.so.5:_ZNK15MessageComposer15RecipientLineNG4dataEv
libKPim5MessageComposer.so.5:_ZNK15MessageComposer15RecipientLineNG6tabOutEv
libKPim5MessageComposer.so.5:_ZNK15MessageComposer15RecipientLineNG7isEmptyEv
libKPim5MessageComposer.so.5:_ZNK15MessageComposer15RecipientLineNG7rawDataEv
libKPim5MessageComposer.so.5:_ZNK15MessageComposer15RecipientLineNG8isActiveEv
libKPim5MessageComposer.so.5:_ZNK15MessageComposer15RecipientLineNG9recipientEv
libKPim5MessageComposer.so.5:_ZNK15MessageComposer15SendLaterDialog10metaObjectEv
libKPim5MessageComposer.so.5:_ZNK15MessageComposer15SendLaterDialog6actionEv
libKPim5MessageComposer.so.5:_ZNK15MessageComposer16AliasesExpandJob10metaObjectEv
libKPim5MessageComposer.so.5:_ZNK15MessageComposer16AliasesExpandJob16emailAddressOnlyEv
libKPim5MessageComposer.so.5:_ZNK15MessageComposer16AliasesExpandJob22emptyDistributionListsEv
libKPim5MessageComposer.so.5:_ZNK15MessageComposer16AliasesExpandJob9addressesEv
libKPim5MessageComposer.so.5:_ZNK15MessageComposer16ComposerLineEdit10metaObjectEv
libKPim5MessageComposer.so.5:_ZNK15MessageComposer16ComposerViewBase10dictionaryEv
libKPim5MessageComposer.so.5:_ZNK15MessageComposer16ComposerViewBase10metaObjectEv
libKPim5MessageComposer.so.5:_ZNK15MessageComposer16ComposerViewBase11isComposingEv
libKPim5MessageComposer.so.5:_ZNK15MessageComposer16ComposerViewBase12followUpDateEv
libKPim5MessageComposer.so.5:_ZNK15MessageComposer16ComposerViewBase13sendLaterInfoEv
libKPim5MessageComposer.so.5:_ZNK15MessageComposer16ComposerViewBase15currentIdentityEv
libKPim5MessageComposer.so.5:_ZNK15MessageComposer16ComposerViewBase16autoSaveIntervalEv
libKPim5MessageComposer.so.5:_ZNK15MessageComposer16ComposerViewBase16autocryptEnabledEv
libKPim5MessageComposer.so.5:_ZNK15MessageComposer16ComposerViewBase17transportComboBoxEv
libKPim5MessageComposer.so.5:_ZNK15MessageComposer16ComposerViewBase18followUpCollectionEv
libKPim5MessageComposer.so.5:_ZNK15MessageComposer16ComposerViewBase20defaultSpecialTargetEv
libKPim5MessageComposer.so.5:_ZNK15MessageComposer16ComposerViewBase27requestDeleveryConfirmationEv
libKPim5MessageComposer.so.5:_ZNK15MessageComposer16ComposerViewBase2ccEv
libKPim5MessageComposer.so.5:_ZNK15MessageComposer16ComposerViewBase2toEv
libKPim5MessageComposer.so.5:_ZNK15MessageComposer16ComposerViewBase31inlineSigningEncryptionSelectedEv
libKPim5MessageComposer.so.5:_ZNK15MessageComposer16ComposerViewBase3bccEv
libKPim5MessageComposer.so.5:_ZNK15MessageComposer16ComposerViewBase3msgEv
libKPim5MessageComposer.so.5:_ZNK15MessageComposer16ComposerViewBase4fromEv
libKPim5MessageComposer.so.5:_ZNK15MessageComposer16ComposerViewBase6editorEv
libKPim5MessageComposer.so.5:_ZNK15MessageComposer16ComposerViewBase7replyToEv
libKPim5MessageComposer.so.5:_ZNK15MessageComposer16ComposerViewBase7subjectEv
libKPim5MessageComposer.so.5:_ZNK15MessageComposer16ComposerViewBase8fccComboEv
libKPim5MessageComposer.so.5:_ZNK15MessageComposer16MessageFactoryNG10metaObjectEv
libKPim5MessageComposer.so.5:_ZNK15MessageComposer16MessageFactoryNG11replyAsHtmlEv
libKPim5MessageComposer.so.5:_ZNK15MessageComposer16PluginActionType4typeEv
libKPim5MessageComposer.so.5:_ZNK15MessageComposer16PluginActionType6actionEv
libKPim5MessageComposer.so.5:_ZNK15MessageComposer16PluginEditorBase10metaObjectEv
libKPim5MessageComposer.so.5:_ZNK15MessageComposer16PluginEditorBase11descriptionEv
libKPim5MessageComposer.so.5:_ZNK15MessageComposer16PluginEditorBase18hasConfigureDialogEv
libKPim5MessageComposer.so.5:_ZNK15MessageComposer16PluginEditorBase9isEnabledEv
libKPim5MessageComposer.so.5:_ZNK15MessageComposer16PluginEditorInit10metaObjectEv
libKPim5MessageComposer.so.5:_ZNK15MessageComposer16RecipientsEditor10activeLineEv
libKPim5MessageComposer.so.5:_ZNK15MessageComposer16RecipientsEditor10metaObjectEv
libKPim5MessageComposer.so.5:_ZNK15MessageComposer16RecipientsEditor10recipientsEv
libKPim5MessageComposer.so.5:_ZNK15MessageComposer16RecipientsEditor15activeRecipientEv
libKPim5MessageComposer.so.5:_ZNK15MessageComposer16RecipientsEditor15recipientStringENS_9Recipient4TypeE
libKPim5MessageComposer.so.5:_ZNK15MessageComposer16RecipientsEditor19recipientStringListENS_9Recipient4TypeE
libKPim5MessageComposer.so.5:_ZNK15MessageComposer16RecipientsEditor6pickerEv
libKPim5MessageComposer.so.5:_ZNK15MessageComposer17ContactPreference13fillAddresseeERN9KContacts9AddresseeE
libKPim5MessageComposer.so.5:_ZNK15MessageComposer17InsertTextFileJob10metaObjectEv
libKPim5MessageComposer.so.5:_ZNK15MessageComposer17RecipientLineEdit10metaObjectEv
libKPim5MessageComposer.so.5:_ZNK15MessageComposer18ImageScalingWidget10metaObjectEv
libKPim5MessageComposer.so.5:_ZNK15MessageComposer18RichTextComposerNg10metaObjectEv
libKPim5MessageComposer.so.5:_ZNK15MessageComposer18RichTextComposerNg11toCleanHtmlEv
libKPim5MessageComposer.so.5:_ZNK15MessageComposer18RichTextComposerNg14autocorrectionEv
libKPim5MessageComposer.so.5:_ZNK15MessageComposer18RichTextComposerNg15fixHtmlFontSizeER7QString
libKPim5MessageComposer.so.5:_ZNK15MessageComposer18RichTextComposerNg17composerSignatureEv
libKPim5MessageComposer.so.5:_ZNK15MessageComposer18SendLaterCreateJob10metaObjectEv
libKPim5MessageComposer.so.5:_ZNK15MessageComposer18SendLaterCreateJob14getErrorStringENS_12SendLaterJob5ErrorERK7QString
libKPim5MessageComposer.so.5:_ZNK15MessageComposer18SendLaterRemoveJob10metaObjectEv
libKPim5MessageComposer.so.5:_ZNK15MessageComposer18SendLaterRemoveJob14getErrorStringENS_12SendLaterJob5ErrorERK7QString
libKPim5MessageComposer.so.5:_ZNK15MessageComposer18SkeletonMessageJob10globalPartEv
libKPim5MessageComposer.so.5:_ZNK15MessageComposer18SkeletonMessageJob10metaObjectEv
libKPim5MessageComposer.so.5:_ZNK15MessageComposer18SkeletonMessageJob7messageEv
libKPim5MessageComposer.so.5:_ZNK15MessageComposer18SkeletonMessageJob8infoPartEv
libKPim5MessageComposer.so.5:_ZNK15MessageComposer19AutocryptHeadersJob10metaObjectEv
libKPim5MessageComposer.so.5:_ZNK15MessageComposer19DraftSignatureState9isDefinedEv
libKPim5MessageComposer.so.5:_ZNK15MessageComposer19DraftSignatureState9signStateEv
libKPim5MessageComposer.so.5:_ZNK15MessageComposer19MDNWarningWidgetJob10metaObjectEv
libKPim5MessageComposer.so.5:_ZNK15MessageComposer19MDNWarningWidgetJob4itemEv
libKPim5MessageComposer.so.5:_ZNK15MessageComposer19MDNWarningWidgetJob8canStartEv
libKPim5MessageComposer.so.5:_ZNK15MessageComposer19PluginEditorManager10metaObjectEv
libKPim5MessageComposer.so.5:_ZNK15MessageComposer19PluginEditorManager11pluginsListEv
libKPim5MessageComposer.so.5:_ZNK15MessageComposer19PluginEditorManager15configGroupNameEv
libKPim5MessageComposer.so.5:_ZNK15MessageComposer19PluginEditorManager15pluginsDataListEv
libKPim5MessageComposer.so.5:_ZNK15MessageComposer19PluginEditorManager22configPrefixSettingKeyEv
libKPim5MessageComposer.so.5:_ZNK15MessageComposer19PluginGrammarAction11replacementEv
libKPim5MessageComposer.so.5:_ZNK15MessageComposer19PluginGrammarAction11suggestionsEv
libKPim5MessageComposer.so.5:_ZNK15MessageComposer19PluginGrammarAction5startEv
libKPim5MessageComposer.so.5:_ZNK15MessageComposer19PluginGrammarAction6lengthEv
libKPim5MessageComposer.so.5:_ZNK15MessageComposer19PluginGrammarAction7blockIdEv
libKPim5MessageComposer.so.5:_ZNK15MessageComposer19PluginGrammarAction8infoUrlsEv
libKPim5MessageComposer.so.5:_ZNK15MessageComposer19ProtectedHeadersJob10metaObjectEv
libKPim5MessageComposer.so.5:_ZNK15MessageComposer19SignatureController10metaObjectEv
libKPim5MessageComposer.so.5:_ZNK15MessageComposer20DraftEncryptionState15encryptionStateEv
libKPim5MessageComposer.so.5:_ZNK15MessageComposer20DraftEncryptionState9isDefinedEv
libKPim5MessageComposer.so.5:_ZNK15MessageComposer20RecipientLineFactory10metaObjectEv
libKPim5MessageComposer.so.5:_ZNK15MessageComposer21ComposerViewInterface11attachmentsEv
libKPim5MessageComposer.so.5:_ZNK15MessageComposer21ComposerViewInterface15insertDayOfWeekEv
libKPim5MessageComposer.so.5:_ZNK15MessageComposer21ComposerViewInterface2ccEv
libKPim5MessageComposer.so.5:_ZNK15MessageComposer21ComposerViewInterface2toEv
libKPim5MessageComposer.so.5:_ZNK15MessageComposer21ComposerViewInterface3bccEv
libKPim5MessageComposer.so.5:_ZNK15MessageComposer21ComposerViewInterface4fromEv
libKPim5MessageComposer.so.5:_ZNK15MessageComposer21ComposerViewInterface7replyToEv
libKPim5MessageComposer.so.5:_ZNK15MessageComposer21ComposerViewInterface7subjectEv
libKPim5MessageComposer.so.5:_ZNK15MessageComposer21ComposerViewInterface8longDateEv
libKPim5MessageComposer.so.5:_ZNK15MessageComposer21ComposerViewInterface8longTimeEv
libKPim5MessageComposer.so.5:_ZNK15MessageComposer21ComposerViewInterface9shortDateEv
libKPim5MessageComposer.so.5:_ZNK15MessageComposer21ComposerViewInterface9shortTimeEv
libKPim5MessageComposer.so.5:_ZNK15MessageComposer21PluginEditorInterface10actionTypeEv
libKPim5MessageComposer.so.5:_ZNK15MessageComposer21PluginEditorInterface10metaObjectEv
libKPim5MessageComposer.so.5:_ZNK15MessageComposer21PluginEditorInterface14richTextEditorEv
libKPim5MessageComposer.so.5:_ZNK15MessageComposer21PluginEditorInterface15statusBarWidgetEv
libKPim5MessageComposer.so.5:_ZNK15MessageComposer21PluginEditorInterface16needSelectedTextEv
libKPim5MessageComposer.so.5:_ZNK15MessageComposer21PluginEditorInterface17applyOnFieldTypesEv
libKPim5MessageComposer.so.5:_ZNK15MessageComposer21PluginEditorInterface17composerInterfaceEv
libKPim5MessageComposer.so.5:_ZNK15MessageComposer22AttachmentClipBoardJob10metaObjectEv
libKPim5MessageComposer.so.5:_ZNK15MessageComposer22EmailAddressResolveJob10expandedCcEv
libKPim5MessageComposer.so.5:_ZNK15MessageComposer22EmailAddressResolveJob10expandedToEv
libKPim5MessageComposer.so.5:_ZNK15MessageComposer22EmailAddressResolveJob10metaObjectEv
libKPim5MessageComposer.so.5:_ZNK15MessageComposer22EmailAddressResolveJob11expandedBccEv
libKPim5MessageComposer.so.5:_ZNK15MessageComposer22EmailAddressResolveJob12expandedFromEv
libKPim5MessageComposer.so.5:_ZNK15MessageComposer22EmailAddressResolveJob15expandedReplyToEv
libKPim5MessageComposer.so.5:_ZNK15MessageComposer23MessageComposerSettings10metaObjectEv
libKPim5MessageComposer.so.5:_ZNK15MessageComposer23PluginComposerInterface11convertTextERK7QString
libKPim5MessageComposer.so.5:_ZNK15MessageComposer23PluginComposerInterface15convertVariableENS_27ConvertSnippetVariablesUtil12VariableTypeE
libKPim5MessageComposer.so.5:_ZNK15MessageComposer23PluginComposerInterface15insertDayOfWeekEv
libKPim5MessageComposer.so.5:_ZNK15MessageComposer23PluginComposerInterface16variableFromEnumENS_27ConvertSnippetVariablesUtil12VariableTypeE
libKPim5MessageComposer.so.5:_ZNK15MessageComposer23PluginComposerInterface2ccEv
libKPim5MessageComposer.so.5:_ZNK15MessageComposer23PluginComposerInterface2toEv
libKPim5MessageComposer.so.5:_ZNK15MessageComposer23PluginComposerInterface4fromEv
libKPim5MessageComposer.so.5:_ZNK15MessageComposer23PluginComposerInterface7replyToEv
libKPim5MessageComposer.so.5:_ZNK15MessageComposer23PluginComposerInterface7subjectEv
libKPim5MessageComposer.so.5:_ZNK15MessageComposer23PluginComposerInterface8longDateEv
libKPim5MessageComposer.so.5:_ZNK15MessageComposer23PluginComposerInterface8longTimeEv
libKPim5MessageComposer.so.5:_ZNK15MessageComposer23PluginComposerInterface9shortDateEv
libKPim5MessageComposer.so.5:_ZNK15MessageComposer23PluginComposerInterface9shortTimeEv
libKPim5MessageComposer.so.5:_ZNK15MessageComposer23PluginEditorConvertText10metaObjectEv
libKPim5MessageComposer.so.5:_ZNK15MessageComposer23PluginEditorConvertText13canWorkOnHtmlEv
libKPim5MessageComposer.so.5:_ZNK15MessageComposer23PluginEditorConvertText17hasToolBarSupportEv
libKPim5MessageComposer.so.5:_ZNK15MessageComposer23PluginEditorConvertText19hasPopupMenuSupportEv
libKPim5MessageComposer.so.5:_ZNK15MessageComposer23PluginEditorConvertText19hasStatusBarSupportEv
libKPim5MessageComposer.so.5:_ZNK15MessageComposer23PluginEditorInitManager10metaObjectEv
libKPim5MessageComposer.so.5:_ZNK15MessageComposer23PluginEditorInitManager11pluginsListEv
libKPim5MessageComposer.so.5:_ZNK15MessageComposer23PluginEditorInitManager15configGroupNameEv
libKPim5MessageComposer.so.5:_ZNK15MessageComposer23PluginEditorInitManager15pluginsDataListEv
libKPim5MessageComposer.so.5:_ZNK15MessageComposer23PluginEditorInitManager22configPrefixSettingKeyEv
libKPim5MessageComposer.so.5:_ZNK15MessageComposer24AttachmentControllerBase10metaObjectEv
libKPim5MessageComposer.so.5:_ZNK15MessageComposer24AttachmentControllerBase14attachOwnVcardEv
libKPim5MessageComposer.so.5:_ZNK15MessageComposer24SaveContactPreferenceJob10metaObjectEv
libKPim5MessageComposer.so.5:_ZNK15MessageComposer25FollowupReminderCreateJob10metaObjectEv
libKPim5MessageComposer.so.5:_ZNK15MessageComposer25PluginEditorInitInterface10metaObjectEv
libKPim5MessageComposer.so.5:_ZNK15MessageComposer25PluginEditorInitInterface12parentWidgetEv
libKPim5MessageComposer.so.5:_ZNK15MessageComposer25PluginEditorInitInterface14richTextEditorEv
libKPim5MessageComposer.so.5:_ZNK15MessageComposer26AttachmentFromPublicKeyJob10metaObjectEv
libKPim5MessageComposer.so.5:_ZNK15MessageComposer26AttachmentFromPublicKeyJob11fingerprintEv
libKPim5MessageComposer.so.5:_ZNK15MessageComposer26ConvertSnippetVariableMenu10metaObjectEv
libKPim5MessageComposer.so.5:_ZNK15MessageComposer26ConvertSnippetVariableMenu4menuEv
libKPim5MessageComposer.so.5:_ZNK15MessageComposer26ConvertSnippetVariablesJob10metaObjectEv
libKPim5MessageComposer.so.5:_ZNK15MessageComposer26ConvertSnippetVariablesJob21composerViewInterfaceEv
libKPim5MessageComposer.so.5:_ZNK15MessageComposer26ConvertSnippetVariablesJob4textEv
libKPim5MessageComposer.so.5:_ZNK15MessageComposer26ConvertSnippetVariablesJob8canStartEv
libKPim5MessageComposer.so.5:_ZNK15MessageComposer26PluginEditorGrammarManager10metaObjectEv
libKPim5MessageComposer.so.5:_ZNK15MessageComposer26PluginEditorGrammarManager11pluginsListEv
libKPim5MessageComposer.so.5:_ZNK15MessageComposer26PluginEditorGrammarManager15configGroupNameEv
libKPim5MessageComposer.so.5:_ZNK15MessageComposer26PluginEditorGrammarManager15pluginsDataListEv
libKPim5MessageComposer.so.5:_ZNK15MessageComposer26PluginEditorGrammarManager22configPrefixSettingKeyEv
libKPim5MessageComposer.so.5:_ZNK15MessageComposer26RichTextComposerSignatures10metaObjectEv
libKPim5MessageComposer.so.5:_ZNK15MessageComposer26RichTextComposerSignatures33RichTextComposerSignaturesPrivate18signaturePositionsERKN19KIdentityManagement9SignatureE
libKPim5MessageComposer.so.5:_ZNK15MessageComposer26StatusBarLabelToggledState10metaObjectEv
libKPim5MessageComposer.so.5:_ZNK15MessageComposer26StatusBarLabelToggledState10toggleModeEv
libKPim5MessageComposer.so.5:_ZNK15MessageComposer27ComposerAttachmentInterface12namesAndSizeEv
libKPim5MessageComposer.so.5:_ZNK15MessageComposer27ComposerAttachmentInterface5countEv
libKPim5MessageComposer.so.5:_ZNK15MessageComposer27ComposerAttachmentInterface5namesEv
libKPim5MessageComposer.so.5:_ZNK15MessageComposer27ComposerAttachmentInterface9fileNamesEv
libKPim5MessageComposer.so.5:_ZNK15MessageComposer27PluginEditorCheckBeforeSend10metaObjectEv
libKPim5MessageComposer.so.5:_ZNK15MessageComposer29DraftCryptoMessageFormatState24cryptoMessageFormatStateEv
libKPim5MessageComposer.so.5:_ZNK15MessageComposer29DraftCryptoMessageFormatState9isDefinedEv
libKPim5MessageComposer.so.5:_ZNK15MessageComposer30PluginEditorConvertTextManager10metaObjectEv
libKPim5MessageComposer.so.5:_ZNK15MessageComposer30PluginEditorConvertTextManager11pluginsListEv
libKPim5MessageComposer.so.5:_ZNK15MessageComposer30PluginEditorConvertTextManager15configGroupNameEv
libKPim5MessageComposer.so.5:_ZNK15MessageComposer30PluginEditorConvertTextManager15pluginsDataListEv
libKPim5MessageComposer.so.5:_ZNK15MessageComposer30PluginEditorConvertTextManager22configPrefixSettingKeyEv
libKPim5MessageComposer.so.5:_ZNK15MessageComposer31PluginEditorConfigureBaseWidget10helpAnchorEv
libKPim5MessageComposer.so.5:_ZNK15MessageComposer31PluginEditorConfigureBaseWidget10metaObjectEv
libKPim5MessageComposer.so.5:_ZNK15MessageComposer32FollowUpReminderSelectDateDialog10collectionEv
libKPim5MessageComposer.so.5:_ZNK15MessageComposer32FollowUpReminderSelectDateDialog10metaObjectEv
libKPim5MessageComposer.so.5:_ZNK15MessageComposer32FollowUpReminderSelectDateDialog12selectedDateEv
libKPim5MessageComposer.so.5:_ZNK15MessageComposer32PluginEditorConvertTextInterface10metaObjectEv
libKPim5MessageComposer.so.5:_ZNK15MessageComposer32PluginEditorConvertTextInterface11actionTypesEv
libKPim5MessageComposer.so.5:_ZNK15MessageComposer32PluginEditorConvertTextInterface11initialDataEv
libKPim5MessageComposer.so.5:_ZNK15MessageComposer32PluginEditorConvertTextInterface12parentWidgetEv
libKPim5MessageComposer.so.5:_ZNK15MessageComposer32PluginEditorConvertTextInterface14richTextEditorEv
libKPim5MessageComposer.so.5:_ZNK15MessageComposer32PluginEditorConvertTextInterface15statusBarWidgetEv
libKPim5MessageComposer.so.5:_ZNK15MessageComposer32PluginEditorConvertTextInterface20beforeConvertingDataEv
libKPim5MessageComposer.so.5:_ZNK15MessageComposer32PluginEditorConvertTextInterface6pluginEv
libKPim5MessageComposer.so.5:_ZNK15MessageComposer32PluginEditorConverterInitialData10newMessageEv
libKPim5MessageComposer.so.5:_ZNK15MessageComposer32PluginEditorConverterInitialData6mewMsgEv
libKPim5MessageComposer.so.5:_ZNK15MessageComposer33AttachmentVcardFromAddressBookJob10metaObjectEv
libKPim5MessageComposer.so.5:_ZNK15MessageComposer33PluginEditorCheckBeforeSendParams10isHtmlMailEv
libKPim5MessageComposer.so.5:_ZNK15MessageComposer33PluginEditorCheckBeforeSendParams11ccAddressesEv
libKPim5MessageComposer.so.5:_ZNK15MessageComposer33PluginEditorCheckBeforeSendParams11toAddressesEv
libKPim5MessageComposer.so.5:_ZNK15MessageComposer33PluginEditorCheckBeforeSendParams11transportIdEv
libKPim5MessageComposer.so.5:_ZNK15MessageComposer33PluginEditorCheckBeforeSendParams12bccAddressesEv
libKPim5MessageComposer.so.5:_ZNK15MessageComposer33PluginEditorCheckBeforeSendParams13defaultDomainEv
libKPim5MessageComposer.so.5:_ZNK15MessageComposer33PluginEditorCheckBeforeSendParams13hasAttachmentEv
libKPim5MessageComposer.so.5:_ZNK15MessageComposer33PluginEditorCheckBeforeSendParams7subjectEv
libKPim5MessageComposer.so.5:_ZNK15MessageComposer33PluginEditorCheckBeforeSendParams8identityEv
libKPim5MessageComposer.so.5:_ZNK15MessageComposer33PluginEditorCheckBeforeSendParams9plainTextEv
libKPim5MessageComposer.so.5:_ZNK15MessageComposer33PluginEditorCheckBeforeSendParamseqERKS0_
libKPim5MessageComposer.so.5:_ZNK15MessageComposer34PluginEditorCheckBeforeSendManager10metaObjectEv
libKPim5MessageComposer.so.5:_ZNK15MessageComposer34PluginEditorCheckBeforeSendManager11pluginsListEv
libKPim5MessageComposer.so.5:_ZNK15MessageComposer34PluginEditorCheckBeforeSendManager15configGroupNameEv
libKPim5MessageComposer.so.5:_ZNK15MessageComposer34PluginEditorCheckBeforeSendManager15pluginsDataListEv
libKPim5MessageComposer.so.5:_ZNK15MessageComposer34PluginEditorCheckBeforeSendManager22configPrefixSettingKeyEv
libKPim5MessageComposer.so.5:_ZNK15MessageComposer36PluginEditorCheckBeforeSendInterface10metaObjectEv
libKPim5MessageComposer.so.5:_ZNK15MessageComposer36PluginEditorCheckBeforeSendInterface10parametersEv
libKPim5MessageComposer.so.5:_ZNK15MessageComposer36PluginEditorCheckBeforeSendInterface12parentWidgetEv
libKPim5MessageComposer.so.5:_ZNK15MessageComposer41PluginEditorConverterBeforeConvertingData10newMessageEv
libKPim5MessageComposer.so.5:_ZNK15MessageComposer41PluginEditorConverterBeforeConvertingData7messageEv
libKPim5MessageComposer.so.5:_ZNK15MessageComposer43PluginEditorGrammarCustomToolsViewInterface10metaObjectEv
libKPim5MessageComposer.so.5:_ZNK15MessageComposer43PluginEditorGrammarCustomToolsViewInterface12parentWidgetEv
libKPim5MessageComposer.so.5:_ZNK15MessageComposer43PluginEditorGrammarCustomToolsViewInterface14richTextEditorEv
libKPim5MessageComposer.so.5:_ZNK15MessageComposer7ItipJob10metaObjectEv
libKPim5MessageComposer.so.5:_ZNK15MessageComposer7ItipJob8itipPartEv
libKPim5MessageComposer.so.5:_ZNK15MessageComposer7JobBase10metaObjectEv
libKPim5MessageComposer.so.5:_ZNK15MessageComposer7SignJob10metaObjectEv
libKPim5MessageComposer.so.5:_ZNK15MessageComposer8Composer10globalPartEv
libKPim5MessageComposer.so.5:_ZNK15MessageComposer8Composer10metaObjectEv
libKPim5MessageComposer.so.5:_ZNK15MessageComposer8Composer14resultMessagesEv
libKPim5MessageComposer.so.5:_ZNK15MessageComposer8Composer15attachmentPartsEv
libKPim5MessageComposer.so.5:_ZNK15MessageComposer8Composer8autoSaveEv
libKPim5MessageComposer.so.5:_ZNK15MessageComposer8Composer8finishedEv
libKPim5MessageComposer.so.5:_ZNK15MessageComposer8Composer8infoPartEv
libKPim5MessageComposer.so.5:_ZNK15MessageComposer8Composer8itipPartEv
libKPim5MessageComposer.so.5:_ZNK15MessageComposer8Composer8textPartEv
libKPim5MessageComposer.so.5:_ZNK15MessageComposer8Composer9gnupgHomeEv
libKPim5MessageComposer.so.5:_ZNK15MessageComposer8InfoPart10metaObjectEv
libKPim5MessageComposer.so.5:_ZNK15MessageComposer8InfoPart10referencesEv
libKPim5MessageComposer.so.5:_ZNK15MessageComposer8InfoPart11transportIdEv
libKPim5MessageComposer.so.5:_ZNK15MessageComposer8InfoPart12extraHeadersEv
libKPim5MessageComposer.so.5:_ZNK15MessageComposer8InfoPart2ccEv
libKPim5MessageComposer.so.5:_ZNK15MessageComposer8InfoPart2toEv
libKPim5MessageComposer.so.5:_ZNK15MessageComposer8InfoPart3bccEv
libKPim5MessageComposer.so.5:_ZNK15MessageComposer8InfoPart3fccEv
libKPim5MessageComposer.so.5:_ZNK15MessageComposer8InfoPart4fromEv
libKPim5MessageComposer.so.5:_ZNK15MessageComposer8InfoPart6urgentEv
libKPim5MessageComposer.so.5:_ZNK15MessageComposer8InfoPart7replyToEv
libKPim5MessageComposer.so.5:_ZNK15MessageComposer8InfoPart7subjectEv
libKPim5MessageComposer.so.5:_ZNK15MessageComposer8InfoPart9inReplyToEv
libKPim5MessageComposer.so.5:_ZNK15MessageComposer8InfoPart9userAgentEv
libKPim5MessageComposer.so.5:_ZNK15MessageComposer8ItipPart10invitationEv
libKPim5MessageComposer.so.5:_ZNK15MessageComposer8ItipPart10metaObjectEv
libKPim5MessageComposer.so.5:_ZNK15MessageComposer8ItipPart14invitationBodyEv
libKPim5MessageComposer.so.5:_ZNK15MessageComposer8ItipPart24outlookConformInvitationEv
libKPim5MessageComposer.so.5:_ZNK15MessageComposer8TextPart10isHtmlUsedEv
libKPim5MessageComposer.so.5:_ZNK15MessageComposer8TextPart10metaObjectEv
libKPim5MessageComposer.so.5:_ZNK15MessageComposer8TextPart14cleanPlainTextEv
libKPim5MessageComposer.so.5:_ZNK15MessageComposer8TextPart14embeddedImagesEv
libKPim5MessageComposer.so.5:_ZNK15MessageComposer8TextPart14warnBadCharsetEv
libKPim5MessageComposer.so.5:_ZNK15MessageComposer8TextPart16wrappedPlainTextEv
libKPim5MessageComposer.so.5:_ZNK15MessageComposer8TextPart17hasEmbeddedImagesEv
libKPim5MessageComposer.so.5:_ZNK15MessageComposer8TextPart21isWordWrappingEnabledEv
libKPim5MessageComposer.so.5:_ZNK15MessageComposer8TextPart9cleanHtmlEv
libKPim5MessageComposer.so.5:_ZNK15MessageComposer9Recipient16encryptionActionEv
libKPim5MessageComposer.so.5:_ZNK15MessageComposer9Recipient3keyEv
libKPim5MessageComposer.so.5:_ZNK15MessageComposer9Recipient4nameEv
libKPim5MessageComposer.so.5:_ZNK15MessageComposer9Recipient4typeEv
libKPim5MessageComposer.so.5:_ZNK15MessageComposer9Recipient5emailEv
libKPim5MessageComposer.so.5:_ZNK15MessageComposer9Recipient7isEmptyEv
libKPim5MessageComposer.so.5:_ZNK15MessageComposer9Recipient9typeLabelEv
libKPim5MessageComposer.so.5:_ZNK4Kleo11KeyResolver10selectKeysERK7QStringS3_RKSt6vectorIN5GpgME3KeyESaIS6_EE
libKPim5MessageComposer.so.5:_ZNK4Kleo11KeyResolver11signingKeysENS_19CryptoMessageFormatE
libKPim5MessageComposer.so.5:_ZNK4Kleo11KeyResolver12useAutocryptEv
libKPim5MessageComposer.so.5:_ZNK4Kleo11KeyResolver13allRecipientsEv
libKPim5MessageComposer.so.5:_ZNK4Kleo11KeyResolver13encryptToSelfEv
libKPim5MessageComposer.so.5:_ZNK4Kleo11KeyResolver14keysForAddressERK7QString
libKPim5MessageComposer.so.5:_ZNK4Kleo11KeyResolver14signingKeysForENS_19CryptoMessageFormatE
libKPim5MessageComposer.so.5:_ZNK4Kleo11KeyResolver15encryptionItemsENS_19CryptoMessageFormatE
libKPim5MessageComposer.so.5:_ZNK4Kleo11KeyResolver15signingPossibleEv
libKPim5MessageComposer.so.5:_ZNK4Kleo11KeyResolver17getEncryptionKeysERK7QStringb
libKPim5MessageComposer.so.5:_ZNK4Kleo11KeyResolver17setKeysForAddressERK7QStringRK11QStringListS6_
libKPim5MessageComposer.so.5:_ZNK4Kleo11KeyResolver18encryptionPossibleEv
libKPim5MessageComposer.so.5:_ZNK4Kleo11KeyResolver18showApprovalDialogEv
libKPim5MessageComposer.so.5:_ZNK4Kleo11KeyResolver20encryptToSelfKeysForENS_19CryptoMessageFormatE
libKPim5MessageComposer.so.5:_ZNK4Kleo11KeyResolver21saveContactPreferenceERK7QStringRKN15MessageComposer17ContactPreferenceE
libKPim5MessageComposer.so.5:_ZNK4Kleo11KeyResolver23checkSigningPreferencesEb
libKPim5MessageComposer.so.5:_ZNK4Kleo11KeyResolver24lookupContactPreferencesERK7QString
libKPim5MessageComposer.so.5:_ZNK4Kleo11KeyResolver26checkEncryptionPreferencesEb
libKPim5MessageComposer.so.5:_ZNK4Kleo11KeyResolver4dumpEv
libKPim5MessageComposer.so.5:_ZNK4Kleo11KeyResolver6lookupERK11QStringListb
libKPim5MessageComposer.so.5:_ZThn16_N15MessageComposer13AkonadiSender12doSendQueuedEi
libKPim5MessageComposer.so.5:_ZThn16_N15MessageComposer13AkonadiSender6doSendERK14QSharedPointerIN5KMime7MessageEEs
libKPim5MessageComposer.so.5:_ZThn16_N15MessageComposer13AkonadiSenderD0Ev
libKPim5MessageComposer.so.5:_ZThn16_N15MessageComposer13AkonadiSenderD1Ev
libKPim5MessageComposer.so.5:_ZThn16_N15MessageComposer15MDNAdviceDialogD0Ev
libKPim5MessageComposer.so.5:_ZThn16_N15MessageComposer15MDNAdviceDialogD1Ev
libKPim5MessageComposer.so.5:_ZThn16_N15MessageComposer15SendLaterDialogD0Ev
libKPim5MessageComposer.so.5:_ZThn16_N15MessageComposer15SendLaterDialogD1Ev
libKPim5MessageComposer.so.5:_ZThn16_N15MessageComposer16ComposerLineEditD0Ev
libKPim5MessageComposer.so.5:_ZThn16_N15MessageComposer16ComposerLineEditD1Ev
libKPim5MessageComposer.so.5:_ZThn16_N15MessageComposer16RecipientsEditorD0Ev
libKPim5MessageComposer.so.5:_ZThn16_N15MessageComposer16RecipientsEditorD1Ev
libKPim5MessageComposer.so.5:_ZThn16_N15MessageComposer18ImageScalingWidgetD0Ev
libKPim5MessageComposer.so.5:_ZThn16_N15MessageComposer18ImageScalingWidgetD1Ev
libKPim5MessageComposer.so.5:_ZThn16_N15MessageComposer18RichTextComposerNgD0Ev
libKPim5MessageComposer.so.5:_ZThn16_N15MessageComposer18RichTextComposerNgD1Ev
libKPim5MessageComposer.so.5:_ZThn16_N15MessageComposer26StatusBarLabelToggledStateD0Ev
libKPim5MessageComposer.so.5:_ZThn16_N15MessageComposer26StatusBarLabelToggledStateD1Ev
libKPim5MessageComposer.so.5:_ZThn16_N15MessageComposer31PluginEditorConfigureBaseWidgetD0Ev
libKPim5MessageComposer.so.5:_ZThn16_N15MessageComposer31PluginEditorConfigureBaseWidgetD1Ev
libKPim5MessageComposer.so.5:_ZThn16_N15MessageComposer32FollowUpReminderSelectDateDialogD0Ev
libKPim5MessageComposer.so.5:_ZThn16_N15MessageComposer32FollowUpReminderSelectDateDialogD1Ev
libKPim5MessageComposer.so.5:_ZThn16_N15MessageComposer43PluginEditorGrammarCustomToolsViewInterfaceD0Ev
libKPim5MessageComposer.so.5:_ZThn16_N15MessageComposer43PluginEditorGrammarCustomToolsViewInterfaceD1Ev
libKPim5MessageComposer.so.5:_ZThn32_N15MessageComposer10EncryptJob13setRecipientsERK11QStringList
libKPim5MessageComposer.so.5:_ZThn32_N15MessageComposer10EncryptJob17setEncryptionKeysERKSt6vectorIN5GpgME3KeyESaIS3_EE
libKPim5MessageComposer.so.5:_ZThn32_N15MessageComposer10EncryptJobD0Ev
libKPim5MessageComposer.so.5:_ZThn32_N15MessageComposer10EncryptJobD1Ev
libKPim5MessageComposer.so.5:_ZThn32_N15MessageComposer14SignEncryptJob13setRecipientsERK11QStringList
libKPim5MessageComposer.so.5:_ZThn32_N15MessageComposer14SignEncryptJob17setEncryptionKeysERKSt6vectorIN5GpgME3KeyESaIS3_EE
libKPim5MessageComposer.so.5:_ZThn32_N15MessageComposer14SignEncryptJobD0Ev
libKPim5MessageComposer.so.5:_ZThn32_N15MessageComposer14SignEncryptJobD1Ev
libKPim5MessageComposer.so.5:_ZThn32_NK15MessageComposer10EncryptJob10recipientsEv
libKPim5MessageComposer.so.5:_ZThn32_NK15MessageComposer10EncryptJob14encryptionKeysEv
libKPim5MessageComposer.so.5:_ZThn32_NK15MessageComposer14SignEncryptJob10recipientsEv
libKPim5MessageComposer.so.5:_ZThn32_NK15MessageComposer14SignEncryptJob14encryptionKeysEv
libKPim5MessageComposer.so.5:_ZThn48_N15MessageComposer16ComposerLineEditD0Ev
libKPim5MessageComposer.so.5:_ZThn48_N15MessageComposer16ComposerLineEditD1Ev
libKPim5MessageComposer.so.5:_Zls6QDebugRKN15MessageComposer13SendLaterInfoE
libKPim5MessageComposer.so.5:_Zls6QDebugRKN15MessageComposer19PluginGrammarActionE
libKPim5MessageCore.so.5:_ZN11MessageCore10NodeHelper10firstChildEPKN5KMime7ContentE
libKPim5MessageCore.so.5:_ZN11MessageCore10NodeHelper11nextSiblingEPKN5KMime7ContentE
libKPim5MessageCore.so.5:_ZN11MessageCore10NodeHelper4nextEPN5KMime7ContentEb
libKPim5MessageCore.so.5:_ZN11MessageCore10StringUtil10smartQuoteERK7QStringi
libKPim5MessageCore.so.5:_ZN11MessageCore10StringUtil12cleanSubjectEPN5KMime7MessageE
libKPim5MessageCore.so.5:_ZN11MessageCore10StringUtil12cleanSubjectEPN5KMime7MessageERK11QStringListbRK7QString
libKPim5MessageCore.so.5:_ZN11MessageCore10StringUtil12replySubjectEPN5KMime7MessageE
libKPim5MessageCore.so.5:_ZN11MessageCore10StringUtil13cleanFileNameERK7QString
libKPim5MessageCore.so.5:_ZN11MessageCore10StringUtil14forwardSubjectEPN5KMime7MessageE
libKPim5MessageCore.so.5:_ZN11MessageCore10StringUtil14parseMailtoUrlERK4QUrl
libKPim5MessageCore.so.5:_ZN11MessageCore10StringUtil14quoteHtmlCharsERK7QStringb
libKPim5MessageCore.so.5:_ZN11MessageCore10StringUtil14stripSignatureERK7QString
libKPim5MessageCore.so.5:_ZN11MessageCore10StringUtil15replacePrefixesERK7QStringRK11QStringListbS3_
libKPim5MessageCore.so.5:_ZN11MessageCore10StringUtil15setEncodingFileER4QUrlRK7QString
libKPim5MessageCore.so.5:_ZN11MessageCore10StringUtil16asSendableStringERK14QSharedPointerIN5KMime7MessageEE
libKPim5MessageCore.so.5:_ZN11MessageCore10StringUtil16stripOffPrefixesERK7QString
libKPim5MessageCore.so.5:_ZN11MessageCore10StringUtil17emailAddrAsAnchorEPKN5KMime7Headers8Generics11AddressListENS0_7DisplayERK7QStringNS0_4LinkENS0_11AddressModeESA_i
libKPim5MessageCore.so.5:_ZN11MessageCore10StringUtil17emailAddrAsAnchorEPKN5KMime7Headers8Generics11MailboxListENS0_7DisplayERK7QStringNS0_4LinkENS0_11AddressModeESA_i
libKPim5MessageCore.so.5:_ZN11MessageCore10StringUtil17emailAddrAsAnchorERK7QVectorIN5KMime5Types7MailboxEENS0_7DisplayERK7QStringNS0_4LinkENS0_11AddressModeESB_i
libKPim5MessageCore.so.5:_ZN11MessageCore10StringUtil17formatQuotePrefixERK7QStringS3_
libKPim5MessageCore.so.5:_ZN11MessageCore10StringUtil17generateMessageIdERK7QStringS3_
libKPim5MessageCore.so.5:_ZN11MessageCore10StringUtil17splitAddressFieldERK10QByteArray
libKPim5MessageCore.so.5:_ZN11MessageCore10StringUtil22addressIsInAddressListERK7QStringRK11QStringList
libKPim5MessageCore.so.5:_ZN11MessageCore10StringUtil22headerAsSendableStringERK14QSharedPointerIN5KMime7MessageEE
libKPim5MessageCore.so.5:_ZN11MessageCore10StringUtil25removePrivateHeaderFieldsERK14QSharedPointerIN5KMime7MessageEEb
libKPim5MessageCore.so.5:_ZN11MessageCore10StringUtil30guessEmailAddressFromLoginNameERK7QString
libKPim5MessageCore.so.5:_ZN11MessageCore10StringUtil9normalizeE11QStringView
libKPim5MessageCore.so.5:_ZN11MessageCore11MailingList10readConfigERK12KConfigGroup
libKPim5MessageCore.so.5:_ZN11MessageCore11MailingList10setHandlerENS0_7HandlerE
libKPim5MessageCore.so.5:_ZN11MessageCore11MailingList11setHelpUrlsERK5QListI4QUrlE
libKPim5MessageCore.so.5:_ZN11MessageCore11MailingList11setPostUrlsERK5QListI4QUrlE
libKPim5MessageCore.so.5:_ZN11MessageCore11MailingList12setOwnerUrlsERK5QListI4QUrlE
libKPim5MessageCore.so.5:_ZN11MessageCore11MailingList14setArchiveUrlsERK5QListI4QUrlE
libKPim5MessageCore.so.5:_ZN11MessageCore11MailingList16setSubscribeUrlsERK5QListI4QUrlE
libKPim5MessageCore.so.5:_ZN11MessageCore11MailingList17setArchivedAtUrlsERK5QListI4QUrlE
libKPim5MessageCore.so.5:_ZN11MessageCore11MailingList18setUnsubscribeUrlsERK5QListI4QUrlE
libKPim5MessageCore.so.5:_ZN11MessageCore11MailingList4nameERK14QSharedPointerIN5KMime7MessageEER10QByteArrayR7QString
libKPim5MessageCore.so.5:_ZN11MessageCore11MailingList5setIdERK7QString
libKPim5MessageCore.so.5:_ZN11MessageCore11MailingList6detectERK14QSharedPointerIN5KMime7MessageEE
libKPim5MessageCore.so.5:_ZN11MessageCore11MailingListC1ERKS0_
libKPim5MessageCore.so.5:_ZN11MessageCore11MailingListC1Ev
libKPim5MessageCore.so.5:_ZN11MessageCore11MailingListC2ERKS0_
libKPim5MessageCore.so.5:_ZN11MessageCore11MailingListC2Ev
libKPim5MessageCore.so.5:_ZN11MessageCore11MailingListD1Ev
libKPim5MessageCore.so.5:_ZN11MessageCore11MailingListD2Ev
libKPim5MessageCore.so.5:_ZN11MessageCore11MailingListaSERKS0_
libKPim5MessageCore.so.5:_ZN11MessageCore14AttachmentPart10setCharsetERK10QByteArray
libKPim5MessageCore.so.5:_ZN11MessageCore14AttachmentPart11setEncodingEN5KMime7Headers15contentEncodingE
libKPim5MessageCore.so.5:_ZN11MessageCore14AttachmentPart11setFileNameERK7QString
libKPim5MessageCore.so.5:_ZN11MessageCore14AttachmentPart11setMimeTypeERK10QByteArray
libKPim5MessageCore.so.5:_ZN11MessageCore14AttachmentPart12setEncryptedEb
libKPim5MessageCore.so.5:_ZN11MessageCore14AttachmentPart13setCompressedEb
libKPim5MessageCore.so.5:_ZN11MessageCore14AttachmentPart14setDescriptionERK7QString
libKPim5MessageCore.so.5:_ZN11MessageCore14AttachmentPart15setAutoEncodingEb
libKPim5MessageCore.so.5:_ZN11MessageCore14AttachmentPart6setUrlERK4QUrl
libKPim5MessageCore.so.5:_ZN11MessageCore14AttachmentPart7setDataERK10QByteArray
libKPim5MessageCore.so.5:_ZN11MessageCore14AttachmentPart7setNameERK7QString
libKPim5MessageCore.so.5:_ZN11MessageCore14AttachmentPart9setInlineEb
libKPim5MessageCore.so.5:_ZN11MessageCore14AttachmentPart9setSignedEb
libKPim5MessageCore.so.5:_ZN11MessageCore14AttachmentPartC1Ev
libKPim5MessageCore.so.5:_ZN11MessageCore14AttachmentPartC2Ev
libKPim5MessageCore.so.5:_ZN11MessageCore14AttachmentPartD0Ev
libKPim5MessageCore.so.5:_ZN11MessageCore14AttachmentPartD1Ev
libKPim5MessageCore.so.5:_ZN11MessageCore14AttachmentPartD2Ev
libKPim5MessageCore.so.5:_ZN11MessageCore14ImageCollector17collectImagesFromEPN5KMime7ContentE
libKPim5MessageCore.so.5:_ZN11MessageCore14ImageCollectorC1Ev
libKPim5MessageCore.so.5:_ZN11MessageCore14ImageCollectorC2Ev
libKPim5MessageCore.so.5:_ZN11MessageCore14ImageCollectorD1Ev
libKPim5MessageCore.so.5:_ZN11MessageCore14ImageCollectorD2Ev
libKPim5MessageCore.so.5:_ZN11MessageCore16AutocryptStorage12addRecipientERK10QByteArray
libKPim5MessageCore.so.5:_ZN11MessageCore16AutocryptStorage12getRecipientERK10QByteArray
libKPim5MessageCore.so.5:_ZN11MessageCore16AutocryptStorage15deleteRecipientERK10QByteArray
libKPim5MessageCore.so.5:_ZN11MessageCore16AutocryptStorage4saveEv
libKPim5MessageCore.so.5:_ZN11MessageCore16AutocryptStorage4selfEv
libKPim5MessageCore.so.5:_ZN11MessageCore17AttachmentLoadJob11qt_metacallEN11QMetaObject4CallEiPPv
libKPim5MessageCore.so.5:_ZN11MessageCore17AttachmentLoadJob11qt_metacastEPKc
libKPim5MessageCore.so.5:_ZN11MessageCore17AttachmentLoadJob17setAttachmentPartERK14QSharedPointerINS_14AttachmentPartEE
libKPim5MessageCore.so.5:_ZN11MessageCore17AttachmentLoadJob5startEv
libKPim5MessageCore.so.5:_ZN11MessageCore17AttachmentLoadJobC1EP7QObject
libKPim5MessageCore.so.5:_ZN11MessageCore17AttachmentLoadJobC2EP7QObject
libKPim5MessageCore.so.5:_ZN11MessageCore17AttachmentLoadJobD0Ev
libKPim5MessageCore.so.5:_ZN11MessageCore17AttachmentLoadJobD1Ev
libKPim5MessageCore.so.5:_ZN11MessageCore17AttachmentLoadJobD2Ev
libKPim5MessageCore.so.5:_ZN11MessageCore18AutocryptRecipient14setChangedFlagEb
libKPim5MessageCore.so.5:_ZN11MessageCore18AutocryptRecipient16updateFromGossipERKNS_21HeaderMixupNodeHelperEPKN5KMime7Headers4BaseE
libKPim5MessageCore.so.5:_ZN11MessageCore18AutocryptRecipient17updateFromMessageERKNS_21HeaderMixupNodeHelperEPKN5KMime7Headers4BaseE
libKPim5MessageCore.so.5:_ZN11MessageCore18AutocryptRecipient8fromJsonERK10QByteArray
libKPim5MessageCore.so.5:_ZN11MessageCore18AutocryptRecipientC1Ev
libKPim5MessageCore.so.5:_ZN11MessageCore18AutocryptRecipientC2Ev
libKPim5MessageCore.so.5:_ZN11MessageCore19AttachmentUpdateJob11qt_metacallEN11QMetaObject4CallEiPPv
libKPim5MessageCore.so.5:_ZN11MessageCore19AttachmentUpdateJob11qt_metacastEPKc
libKPim5MessageCore.so.5:_ZN11MessageCore19AttachmentUpdateJob5startEv
libKPim5MessageCore.so.5:_ZN11MessageCore19AttachmentUpdateJobC1ERK14QSharedPointerINS_14AttachmentPartEEP7QObject
libKPim5MessageCore.so.5:_ZN11MessageCore19AttachmentUpdateJobC2ERK14QSharedPointerINS_14AttachmentPartEEP7QObject
libKPim5MessageCore.so.5:_ZN11MessageCore19AttachmentUpdateJobD0Ev
libKPim5MessageCore.so.5:_ZN11MessageCore19AttachmentUpdateJobD1Ev
libKPim5MessageCore.so.5:_ZN11MessageCore19AttachmentUpdateJobD2Ev
libKPim5MessageCore.so.5:_ZN11MessageCore19MessageCoreSettings11qt_metacallEN11QMetaObject4CallEiPPv
libKPim5MessageCore.so.5:_ZN11MessageCore19MessageCoreSettings11qt_metacastEPKc
libKPim5MessageCore.so.5:_ZN11MessageCore19MessageCoreSettings4selfEv
libKPim5MessageCore.so.5:_ZN11MessageCore19MessageCoreSettingsD0Ev
libKPim5MessageCore.so.5:_ZN11MessageCore19MessageCoreSettingsD1Ev
libKPim5MessageCore.so.5:_ZN11MessageCore19MessageCoreSettingsD2Ev
libKPim5MessageCore.so.5:_ZN11MessageCore20AttachmentFromUrlJob11qt_metacallEN11QMetaObject4CallEiPPv
libKPim5MessageCore.so.5:_ZN11MessageCore20AttachmentFromUrlJob11qt_metacastEPKc
libKPim5MessageCore.so.5:_ZN11MessageCore20AttachmentFromUrlJob24AttachmentLoadJobPrivate15transferJobDataEPN3KIO3JobERK10QByteArray
libKPim5MessageCore.so.5:_ZN11MessageCore20AttachmentFromUrlJob24AttachmentLoadJobPrivate17transferJobResultEP4KJob
libKPim5MessageCore.so.5:_ZN11MessageCore20AttachmentFromUrlJob24AttachmentLoadJobPrivateC1EPS0_
libKPim5MessageCore.so.5:_ZN11MessageCore20AttachmentFromUrlJob24AttachmentLoadJobPrivateC2EPS0_
libKPim5MessageCore.so.5:_ZN11MessageCore20AttachmentFromUrlJob7doStartEv
libKPim5MessageCore.so.5:_ZN11MessageCore20AttachmentFromUrlJobC1ERK4QUrlP7QObject
libKPim5MessageCore.so.5:_ZN11MessageCore20AttachmentFromUrlJobC2ERK4QUrlP7QObject
libKPim5MessageCore.so.5:_ZN11MessageCore20AttachmentFromUrlJobD0Ev
libKPim5MessageCore.so.5:_ZN11MessageCore20AttachmentFromUrlJobD1Ev
libKPim5MessageCore.so.5:_ZN11MessageCore20AttachmentFromUrlJobD2Ev
libKPim5MessageCore.so.5:_ZN11MessageCore21AttachmentCompressJob11qt_metacallEN11QMetaObject4CallEiPPv
libKPim5MessageCore.so.5:_ZN11MessageCore21AttachmentCompressJob11qt_metacastEPKc
libKPim5MessageCore.so.5:_ZN11MessageCore21AttachmentCompressJob15setOriginalPartERK14QSharedPointerINS_14AttachmentPartEE
libKPim5MessageCore.so.5:_ZN11MessageCore21AttachmentCompressJob28AttachmentCompressJobPrivate7doStartEv
libKPim5MessageCore.so.5:_ZN11MessageCore21AttachmentCompressJob28AttachmentCompressJobPrivateC1EPS0_
libKPim5MessageCore.so.5:_ZN11MessageCore21AttachmentCompressJob28AttachmentCompressJobPrivateC2EPS0_
libKPim5MessageCore.so.5:_ZN11MessageCore21AttachmentCompressJob5startEv
libKPim5MessageCore.so.5:_ZN11MessageCore21AttachmentCompressJobC1ERK14QSharedPointerINS_14AttachmentPartEEP7QObject
libKPim5MessageCore.so.5:_ZN11MessageCore21AttachmentCompressJobC2ERK14QSharedPointerINS_14AttachmentPartEEP7QObject
libKPim5MessageCore.so.5:_ZN11MessageCore21AttachmentCompressJobD0Ev
libKPim5MessageCore.so.5:_ZN11MessageCore21AttachmentCompressJobD1Ev
libKPim5MessageCore.so.5:_ZN11MessageCore21AttachmentCompressJobD2Ev
libKPim5MessageCore.so.5:_ZN11MessageCore21HeaderMixupNodeHelperC1EPN14MimeTreeParser10NodeHelperEPN5KMime7ContentE
libKPim5MessageCore.so.5:_ZN11MessageCore21HeaderMixupNodeHelperC2EPN14MimeTreeParser10NodeHelperEPN5KMime7ContentE
libKPim5MessageCore.so.5:_ZN11MessageCore22AttachmentFromUrlUtils19createAttachmentJobERK4QUrlP7QObject
libKPim5MessageCore.so.5:_ZN11MessageCore23MessageCoreSettingsBase4selfEv
libKPim5MessageCore.so.5:_ZN11MessageCore23MessageCoreSettingsBaseC1Ev
libKPim5MessageCore.so.5:_ZN11MessageCore23MessageCoreSettingsBaseC2Ev
libKPim5MessageCore.so.5:_ZN11MessageCore23MessageCoreSettingsBaseD0Ev
libKPim5MessageCore.so.5:_ZN11MessageCore23MessageCoreSettingsBaseD1Ev
libKPim5MessageCore.so.5:_ZN11MessageCore23MessageCoreSettingsBaseD2Ev
libKPim5MessageCore.so.5:_ZN11MessageCore24AttachmentFromUrlBaseJob11qt_metacallEN11QMetaObject4CallEiPPv
libKPim5MessageCore.so.5:_ZN11MessageCore24AttachmentFromUrlBaseJob11qt_metacastEPKc
libKPim5MessageCore.so.5:_ZN11MessageCore24AttachmentFromUrlBaseJob21setMaximumAllowedSizeEx
libKPim5MessageCore.so.5:_ZN11MessageCore24AttachmentFromUrlBaseJob6setUrlERK4QUrl
libKPim5MessageCore.so.5:_ZN11MessageCore24AttachmentFromUrlBaseJobC1ERK4QUrlP7QObject
libKPim5MessageCore.so.5:_ZN11MessageCore24AttachmentFromUrlBaseJobC2ERK4QUrlP7QObject
libKPim5MessageCore.so.5:_ZN11MessageCore24AttachmentFromUrlBaseJobD0Ev
libKPim5MessageCore.so.5:_ZN11MessageCore24AttachmentFromUrlBaseJobD1Ev
libKPim5MessageCore.so.5:_ZN11MessageCore24AttachmentFromUrlBaseJobD2Ev
libKPim5MessageCore.so.5:_ZN11MessageCore24processAutocryptfromMailERKNS_21HeaderMixupNodeHelperE
libKPim5MessageCore.so.5:_ZN11MessageCore25paramsFromAutocryptHeaderEPKN5KMime7Headers4BaseE
libKPim5MessageCore.so.5:_ZN11MessageCore26AttachmentPropertiesDialog11qt_metacallEN11QMetaObject4CallEiPPv
libKPim5MessageCore.so.5:_ZN11MessageCore26AttachmentPropertiesDialog11qt_metacastEPKc
libKPim5MessageCore.so.5:_ZN11MessageCore26AttachmentPropertiesDialog14setSignEnabledEb
libKPim5MessageCore.so.5:_ZN11MessageCore26AttachmentPropertiesDialog17setEncryptEnabledEb
libKPim5MessageCore.so.5:_ZN11MessageCore26AttachmentPropertiesDialog6acceptEv
libKPim5MessageCore.so.5:_ZN11MessageCore26AttachmentPropertiesDialog8slotHelpEv
libKPim5MessageCore.so.5:_ZN11MessageCore26AttachmentPropertiesDialogC1EPKN5KMime7ContentEP7QWidget
libKPim5MessageCore.so.5:_ZN11MessageCore26AttachmentPropertiesDialogC1ERK14QSharedPointerINS_14AttachmentPartEEbP7QWidget
libKPim5MessageCore.so.5:_ZN11MessageCore26AttachmentPropertiesDialogC2EPKN5KMime7ContentEP7QWidget
libKPim5MessageCore.so.5:_ZN11MessageCore26AttachmentPropertiesDialogC2ERK14QSharedPointerINS_14AttachmentPartEEbP7QWidget
libKPim5MessageCore.so.5:_ZN11MessageCore26AttachmentPropertiesDialogD0Ev
libKPim5MessageCore.so.5:_ZN11MessageCore26AttachmentPropertiesDialogD1Ev
libKPim5MessageCore.so.5:_ZN11MessageCore26AttachmentPropertiesDialogD2Ev
libKPim5MessageCore.so.5:_ZN11MessageCore28AttachmentFromMimeContentJob11qt_metacallEN11QMetaObject4CallEiPPv
libKPim5MessageCore.so.5:_ZN11MessageCore28AttachmentFromMimeContentJob11qt_metacastEPKc
libKPim5MessageCore.so.5:_ZN11MessageCore28AttachmentFromMimeContentJob14setMimeContentEPKN5KMime7ContentE
libKPim5MessageCore.so.5:_ZN11MessageCore28AttachmentFromMimeContentJob7doStartEv
libKPim5MessageCore.so.5:_ZN11MessageCore28AttachmentFromMimeContentJobC1EPKN5KMime7ContentEP7QObject
libKPim5MessageCore.so.5:_ZN11MessageCore28AttachmentFromMimeContentJobC2EPKN5KMime7ContentEP7QObject
libKPim5MessageCore.so.5:_ZN11MessageCore28AttachmentFromMimeContentJobD0Ev
libKPim5MessageCore.so.5:_ZN11MessageCore28AttachmentFromMimeContentJobD1Ev
libKPim5MessageCore.so.5:_ZN11MessageCore28AttachmentFromMimeContentJobD2Ev
libKPim5MessageCore.so.5:_ZN11MessageCore4Util18identityForMessageEPN5KMime7MessageEPKN19KIdentityManagement15IdentityManagerEj
libKPim5MessageCore.so.5:_ZN11MessageCore5qHashERK14QSharedPointerINS_14AttachmentPartEE
libKPim5MessageCore.so.5:_ZN11MessageCore9ColorUtil12updateColorsEv
libKPim5MessageCore.so.5:_ZN11MessageCore9ColorUtil16initializeColorsEv
libKPim5MessageCore.so.5:_ZN11MessageCore9ColorUtil4selfEv
libKPim5MessageCore.so.5:_ZN11MessageCore9ColorUtilC1Ev
libKPim5MessageCore.so.5:_ZN11MessageCore9ColorUtilC2Ev
libKPim5MessageCore.so.5:_ZNK11MessageCore11MailingList11archiveUrlsEv
libKPim5MessageCore.so.5:_ZNK11MessageCore11MailingList11writeConfigER12KConfigGroup
libKPim5MessageCore.so.5:_ZNK11MessageCore11MailingList13subscribeUrlsEv
libKPim5MessageCore.so.5:_ZNK11MessageCore11MailingList14archivedAtUrlsEv
libKPim5MessageCore.so.5:_ZNK11MessageCore11MailingList15unsubscribeUrlsEv
libKPim5MessageCore.so.5:_ZNK11MessageCore11MailingList2idEv
libKPim5MessageCore.so.5:_ZNK11MessageCore11MailingList7handlerEv
libKPim5MessageCore.so.5:_ZNK11MessageCore11MailingList8featuresEv
libKPim5MessageCore.so.5:_ZNK11MessageCore11MailingList8helpUrlsEv
libKPim5MessageCore.so.5:_ZNK11MessageCore11MailingList8postUrlsEv
libKPim5MessageCore.so.5:_ZNK11MessageCore11MailingList9ownerUrlsEv
libKPim5MessageCore.so.5:_ZNK11MessageCore11MailingListeqERKS0_
libKPim5MessageCore.so.5:_ZNK11MessageCore14AttachmentPart11descriptionEv
libKPim5MessageCore.so.5:_ZNK11MessageCore14AttachmentPart11isEncryptedEv
libKPim5MessageCore.so.5:_ZNK11MessageCore14AttachmentPart12isCompressedEv
libKPim5MessageCore.so.5:_ZNK11MessageCore14AttachmentPart14isAutoEncodingEv
libKPim5MessageCore.so.5:_ZNK11MessageCore14AttachmentPart28isMessageOrMessageCollectionEv
libKPim5MessageCore.so.5:_ZNK11MessageCore14AttachmentPart3urlEv
libKPim5MessageCore.so.5:_ZNK11MessageCore14AttachmentPart4dataEv
libKPim5MessageCore.so.5:_ZNK11MessageCore14AttachmentPart4nameEv
libKPim5MessageCore.so.5:_ZNK11MessageCore14AttachmentPart4sizeEv
libKPim5MessageCore.so.5:_ZNK11MessageCore14AttachmentPart7charsetEv
libKPim5MessageCore.so.5:_ZNK11MessageCore14AttachmentPart8encodingEv
libKPim5MessageCore.so.5:_ZNK11MessageCore14AttachmentPart8fileNameEv
libKPim5MessageCore.so.5:_ZNK11MessageCore14AttachmentPart8isInlineEv
libKPim5MessageCore.so.5:_ZNK11MessageCore14AttachmentPart8isSignedEv
libKPim5MessageCore.so.5:_ZNK11MessageCore14AttachmentPart8mimeTypeEv
libKPim5MessageCore.so.5:_ZNK11MessageCore14ImageCollector6imagesEv
libKPim5MessageCore.so.5:_ZNK11MessageCore17AttachmentLoadJob10metaObjectEv
libKPim5MessageCore.so.5:_ZNK11MessageCore17AttachmentLoadJob14attachmentPartEv
libKPim5MessageCore.so.5:_ZNK11MessageCore18AutocryptRecipient10gpgKeydataEv
libKPim5MessageCore.so.5:_ZNK11MessageCore18AutocryptRecipient10hasChangedEv
libKPim5MessageCore.so.5:_ZNK11MessageCore18AutocryptRecipient12count_no_achEv
libKPim5MessageCore.so.5:_ZNK11MessageCore18AutocryptRecipient13gossipKeydataEv
libKPim5MessageCore.so.5:_ZNK11MessageCore18AutocryptRecipient14bad_user_agentEv
libKPim5MessageCore.so.5:_ZNK11MessageCore18AutocryptRecipient14count_have_achEv
libKPim5MessageCore.so.5:_ZNK11MessageCore18AutocryptRecipient14counting_sinceEv
libKPim5MessageCore.so.5:_ZNK11MessageCore18AutocryptRecipient14prefer_encryptEv
libKPim5MessageCore.so.5:_ZNK11MessageCore18AutocryptRecipient16gossip_timestampEv
libKPim5MessageCore.so.5:_ZNK11MessageCore18AutocryptRecipient19autocrypt_timestampEv
libKPim5MessageCore.so.5:_ZNK11MessageCore18AutocryptRecipient4addrEv
libKPim5MessageCore.so.5:_ZNK11MessageCore18AutocryptRecipient6gpgKeyEv
libKPim5MessageCore.so.5:_ZNK11MessageCore18AutocryptRecipient6toJsonEN13QJsonDocument10JsonFormatE
libKPim5MessageCore.so.5:_ZNK11MessageCore18AutocryptRecipient9gossipKeyEv
libKPim5MessageCore.so.5:_ZNK11MessageCore18AutocryptRecipient9last_seenEv
libKPim5MessageCore.so.5:_ZNK11MessageCore19AttachmentUpdateJob10metaObjectEv
libKPim5MessageCore.so.5:_ZNK11MessageCore19AttachmentUpdateJob11updatedPartEv
libKPim5MessageCore.so.5:_ZNK11MessageCore19AttachmentUpdateJob12originalPartEv
libKPim5MessageCore.so.5:_ZNK11MessageCore19MessageCoreSettings10metaObjectEv
libKPim5MessageCore.so.5:_ZNK11MessageCore20AttachmentFromUrlJob10metaObjectEv
libKPim5MessageCore.so.5:_ZNK11MessageCore21AttachmentCompressJob10metaObjectEv
libKPim5MessageCore.so.5:_ZNK11MessageCore21AttachmentCompressJob12originalPartEv
libKPim5MessageCore.so.5:_ZNK11MessageCore21AttachmentCompressJob14compressedPartEv
libKPim5MessageCore.so.5:_ZNK11MessageCore21AttachmentCompressJob22isCompressedPartLargerEv
libKPim5MessageCore.so.5:_ZNK11MessageCore21HeaderMixupNodeHelper10dateHeaderEv
libKPim5MessageCore.so.5:_ZNK11MessageCore21HeaderMixupNodeHelper13hasMailHeaderEPKc
libKPim5MessageCore.so.5:_ZNK11MessageCore21HeaderMixupNodeHelper16mailHeaderAsBaseEPKc
libKPim5MessageCore.so.5:_ZNK11MessageCore21HeaderMixupNodeHelper23mailHeaderAsAddressListEPKc
libKPim5MessageCore.so.5:_ZNK11MessageCore21HeaderMixupNodeHelper24messagePartsOfMailHeaderEPKc
libKPim5MessageCore.so.5:_ZNK11MessageCore21HeaderMixupNodeHelper7headersEPKc
libKPim5MessageCore.so.5:_ZNK11MessageCore24AttachmentFromUrlBaseJob10metaObjectEv
libKPim5MessageCore.so.5:_ZNK11MessageCore24AttachmentFromUrlBaseJob18maximumAllowedSizeEv
libKPim5MessageCore.so.5:_ZNK11MessageCore24AttachmentFromUrlBaseJob3urlEv
libKPim5MessageCore.so.5:_ZNK11MessageCore26AttachmentPropertiesDialog10metaObjectEv
libKPim5MessageCore.so.5:_ZNK11MessageCore26AttachmentPropertiesDialog13isSignEnabledEv
libKPim5MessageCore.so.5:_ZNK11MessageCore26AttachmentPropertiesDialog14attachmentPartEv
libKPim5MessageCore.so.5:_ZNK11MessageCore26AttachmentPropertiesDialog16isEncryptEnabledEv
libKPim5MessageCore.so.5:_ZNK11MessageCore28AttachmentFromMimeContentJob10metaObjectEv
libKPim5MessageCore.so.5:_ZNK11MessageCore28AttachmentFromMimeContentJob11mimeContentEv
libKPim5MessageCore.so.5:_ZNK11MessageCore9ColorUtil21pgpEncryptedTextColorEv
libKPim5MessageCore.so.5:_ZNK11MessageCore9ColorUtil21pgpSignedBadTextColorEv
libKPim5MessageCore.so.5:_ZNK11MessageCore9ColorUtil24pgpEncryptedMessageColorEv
libKPim5MessageCore.so.5:_ZNK11MessageCore9ColorUtil24pgpSignedBadMessageColorEv
libKPim5MessageCore.so.5:_ZNK11MessageCore9ColorUtil25pgpSignedTrustedTextColorEv
libKPim5MessageCore.so.5:_ZNK11MessageCore9ColorUtil26misspelledDefaultTextColorEv
libKPim5MessageCore.so.5:_ZNK11MessageCore9ColorUtil27pgpSignedUntrustedTextColorEv
libKPim5MessageCore.so.5:_ZNK11MessageCore9ColorUtil27quoteLevel1DefaultTextColorEv
libKPim5MessageCore.so.5:_ZNK11MessageCore9ColorUtil27quoteLevel2DefaultTextColorEv
libKPim5MessageCore.so.5:_ZNK11MessageCore9ColorUtil27quoteLevel3DefaultTextColorEv
libKPim5MessageCore.so.5:_ZNK11MessageCore9ColorUtil28pgpSignedTrustedMessageColorEv
libKPim5MessageCore.so.5:_ZNK11MessageCore9ColorUtil30pgpSignedUntrustedMessageColorEv
libKPim5MessageCore.so.5:_ZNK11MessageCore9ColorUtil9linkColorEv
libKPim5MessageCore.so.5:_ZThn16_N11MessageCore26AttachmentPropertiesDialogD0Ev
libKPim5MessageCore.so.5:_ZThn16_N11MessageCore26AttachmentPropertiesDialogD1Ev
libKPim5MessageList.so.5:_ZN11MessageList12StorageModel11qt_metacallEN11QMetaObject4CallEiPPv
libKPim5MessageList.so.5:_ZN11MessageList12StorageModel11qt_metacastEPKc
libKPim5MessageList.so.5:_ZN11MessageList12StorageModel17resetModelStorageEv
libKPim5MessageList.so.5:_ZN11MessageList12StorageModel20setMessageItemStatusEPNS_4Core11MessageItemEiN7Akonadi13MessageStatusE
libKPim5MessageList.so.5:_ZN11MessageList12StorageModelC1EP18QAbstractItemModelP19QItemSelectionModelP7QObject
libKPim5MessageList.so.5:_ZN11MessageList12StorageModelC2EP18QAbstractItemModelP19QItemSelectionModelP7QObject
libKPim5MessageList.so.5:_ZN11MessageList12StorageModelD0Ev
libKPim5MessageList.so.5:_ZN11MessageList12StorageModelD1Ev
libKPim5MessageList.so.5:_ZN11MessageList12StorageModelD2Ev
libKPim5MessageList.so.5:_ZN11MessageList19MessageListSettings11tagSelectedEv
libKPim5MessageList.so.5:_ZN11MessageList19MessageListSettings14setTagSelectedERK7QString
libKPim5MessageList.so.5:_ZN11MessageList19MessageListSettings15messageListFontEv
libKPim5MessageList.so.5:_ZN11MessageList19MessageListSettings15showQuickSearchEv
libKPim5MessageList.so.5:_ZN11MessageList19MessageListSettings15tagSelectedItemEv
libKPim5MessageList.so.5:_ZN11MessageList19MessageListSettings15todoMessageFontEv
libKPim5MessageList.so.5:_ZN11MessageList19MessageListSettings16todoMessageColorEv
libKPim5MessageList.so.5:_ZN11MessageList19MessageListSettings17unreadMessageFontEv
libKPim5MessageList.so.5:_ZN11MessageList19MessageListSettings18setMessageListFontERK5QFont
libKPim5MessageList.so.5:_ZN11MessageList19MessageListSettings18setShowQuickSearchEb
libKPim5MessageList.so.5:_ZN11MessageList19MessageListSettings18setTodoMessageFontERK5QFont
libKPim5MessageList.so.5:_ZN11MessageList19MessageListSettings18unreadMessageColorEv
libKPim5MessageList.so.5:_ZN11MessageList19MessageListSettings19messageListFontItemEv
libKPim5MessageList.so.5:_ZN11MessageList19MessageListSettings19setTodoMessageColorERK6QColor
libKPim5MessageList.so.5:_ZN11MessageList19MessageListSettings19showQuickSearchItemEv
libKPim5MessageList.so.5:_ZN11MessageList19MessageListSettings19todoMessageFontItemEv
libKPim5MessageList.so.5:_ZN11MessageList19MessageListSettings20importantMessageFontEv
libKPim5MessageList.so.5:_ZN11MessageList19MessageListSettings20setUnreadMessageFontERK5QFont
libKPim5MessageList.so.5:_ZN11MessageList19MessageListSettings20todoMessageColorItemEv
libKPim5MessageList.so.5:_ZN11MessageList19MessageListSettings21importantMessageColorEv
libKPim5MessageList.so.5:_ZN11MessageList19MessageListSettings21messageToolTipEnabledEv
libKPim5MessageList.so.5:_ZN11MessageList19MessageListSettings21setUnreadMessageColorERK6QColor
libKPim5MessageList.so.5:_ZN11MessageList19MessageListSettings21unreadMessageFontItemEv
libKPim5MessageList.so.5:_ZN11MessageList19MessageListSettings22isTagSelectedImmutableEv
libKPim5MessageList.so.5:_ZN11MessageList19MessageListSettings22unreadMessageColorItemEv
libKPim5MessageList.so.5:_ZN11MessageList19MessageListSettings23setImportantMessageFontERK5QFont
libKPim5MessageList.so.5:_ZN11MessageList19MessageListSettings24importantMessageFontItemEv
libKPim5MessageList.so.5:_ZN11MessageList19MessageListSettings24setImportantMessageColorERK6QColor
libKPim5MessageList.so.5:_ZN11MessageList19MessageListSettings24setMessageToolTipEnabledEb
libKPim5MessageList.so.5:_ZN11MessageList19MessageListSettings25importantMessageColorItemEv
libKPim5MessageList.so.5:_ZN11MessageList19MessageListSettings25messageToolTipEnabledItemEv
libKPim5MessageList.so.5:_ZN11MessageList19MessageListSettings26isMessageListFontImmutableEv
libKPim5MessageList.so.5:_ZN11MessageList19MessageListSettings26isShowQuickSearchImmutableEv
libKPim5MessageList.so.5:_ZN11MessageList19MessageListSettings26isTodoMessageFontImmutableEv
libKPim5MessageList.so.5:_ZN11MessageList19MessageListSettings27isTodoMessageColorImmutableEv
libKPim5MessageList.so.5:_ZN11MessageList19MessageListSettings28isUnreadMessageFontImmutableEv
libKPim5MessageList.so.5:_ZN11MessageList19MessageListSettings29isUnreadMessageColorImmutableEv
libKPim5MessageList.so.5:_ZN11MessageList19MessageListSettings31isImportantMessageFontImmutableEv
libKPim5MessageList.so.5:_ZN11MessageList19MessageListSettings32isImportantMessageColorImmutableEv
libKPim5MessageList.so.5:_ZN11MessageList19MessageListSettings32isMessageToolTipEnabledImmutableEv
libKPim5MessageList.so.5:_ZN11MessageList19MessageListSettings32quickSearchWarningDoNotShowAgainEv
libKPim5MessageList.so.5:_ZN11MessageList19MessageListSettings35setQuickSearchWarningDoNotShowAgainEb
libKPim5MessageList.so.5:_ZN11MessageList19MessageListSettings36quickSearchWarningDoNotShowAgainItemEv
libKPim5MessageList.so.5:_ZN11MessageList19MessageListSettings43isQuickSearchWarningDoNotShowAgainImmutableEv
libKPim5MessageList.so.5:_ZN11MessageList19MessageListSettings4selfEv
libKPim5MessageList.so.5:_ZN11MessageList19MessageListSettingsC1Ev
libKPim5MessageList.so.5:_ZN11MessageList19MessageListSettingsC2Ev
libKPim5MessageList.so.5:_ZN11MessageList19MessageListSettingsD0Ev
libKPim5MessageList.so.5:_ZN11MessageList19MessageListSettingsD1Ev
libKPim5MessageList.so.5:_ZN11MessageList19MessageListSettingsD2Ev
libKPim5MessageList.so.5:_ZN11MessageList4Core11MessageItem13subTreeToListER7QVectorIPS1_E
libKPim5MessageList.so.5:_ZN11MessageList4Core11MessageItem14accessibleTextEPKNS0_5ThemeEi
libKPim5MessageList.so.5:_ZN11MessageList4Core11MessageItem14editAnnotationEP7QWidget
libKPim5MessageList.so.5:_ZN11MessageList4Core11MessageItem14setAkonadiItemERKN7Akonadi4ItemE
libKPim5MessageList.so.5:_ZN11MessageList4Core11MessageItem14setGeneralFontERK5QFont
libKPim5MessageList.so.5:_ZN11MessageList4Core11MessageItem14topmostMessageEv
libKPim5MessageList.so.5:_ZN11MessageList4Core11MessageItem15setMessageIdMD5ERK10QByteArray
libKPim5MessageList.so.5:_ZN11MessageList4Core11MessageItem17setInReplyToIdMD5ERK10QByteArray
libKPim5MessageList.so.5:_ZN11MessageList4Core11MessageItem17setSignatureStateENS1_14SignatureStateE
libKPim5MessageList.so.5:_ZN11MessageList4Core11MessageItem18invalidateTagCacheEv
libKPim5MessageList.so.5:_ZN11MessageList4Core11MessageItem18setEncryptionStateENS1_15EncryptionStateE
libKPim5MessageList.so.5:_ZN11MessageList4Core11MessageItem18setReferencesIdMD5ERK10QByteArray
libKPim5MessageList.so.5:_ZN11MessageList4Core11MessageItem18setThreadingStatusENS1_15ThreadingStatusE
libKPim5MessageList.so.5:_ZN11MessageList4Core11MessageItem18setToDoMessageFontERK5QFont
libKPim5MessageList.so.5:_ZN11MessageList4Core11MessageItem19setAboutToBeRemovedEb
libKPim5MessageList.so.5:_ZN11MessageList4Core11MessageItem19setToDoMessageColorERK6QColor
libKPim5MessageList.so.5:_ZN11MessageList4Core11MessageItem20setSubjectIsPrefixedEb
libKPim5MessageList.so.5:_ZN11MessageList4Core11MessageItem20setUnreadMessageFontERK5QFont
libKPim5MessageList.so.5:_ZN11MessageList4Core11MessageItem21setStrippedSubjectMD5ERK10QByteArray
libKPim5MessageList.so.5:_ZN11MessageList4Core11MessageItem21setUnreadMessageColorERK6QColor
libKPim5MessageList.so.5:_ZN11MessageList4Core11MessageItem23setImportantMessageFontERK5QFont
libKPim5MessageList.so.5:_ZN11MessageList4Core11MessageItem24setImportantMessageColorERK6QColor
libKPim5MessageList.so.5:_ZN11MessageList4Core11MessageItem25invalidateAnnotationCacheEv
libKPim5MessageList.so.5:_ZN11MessageList4Core11MessageItem3Tag11setPriorityEi
libKPim5MessageList.so.5:_ZN11MessageList4Core11MessageItem3Tag12setTextColorERK6QColor
libKPim5MessageList.so.5:_ZN11MessageList4Core11MessageItem3Tag18setBackgroundColorERK6QColor
libKPim5MessageList.so.5:_ZN11MessageList4Core11MessageItem3Tag7setFontERK5QFont
libKPim5MessageList.so.5:_ZN11MessageList4Core11MessageItem3TagC1ERK7QPixmapRK7QStringS8_
libKPim5MessageList.so.5:_ZN11MessageList4Core11MessageItem3TagC2ERK7QPixmapRK7QStringS8_
libKPim5MessageList.so.5:_ZN11MessageList4Core11MessageItem3TagD1Ev
libKPim5MessageList.so.5:_ZN11MessageList4Core11MessageItem3TagD2Ev
libKPim5MessageList.so.5:_ZN11MessageList4Core11MessageItemC1EPNS0_18MessageItemPrivateE
libKPim5MessageList.so.5:_ZN11MessageList4Core11MessageItemC1Ev
libKPim5MessageList.so.5:_ZN11MessageList4Core11MessageItemC2EPNS0_18MessageItemPrivateE
libKPim5MessageList.so.5:_ZN11MessageList4Core11MessageItemC2Ev
libKPim5MessageList.so.5:_ZN11MessageList4Core11MessageItemD0Ev
libKPim5MessageList.so.5:_ZN11MessageList4Core11MessageItemD1Ev
libKPim5MessageList.so.5:_ZN11MessageList4Core11MessageItemD2Ev
libKPim5MessageList.so.5:_ZN11MessageList4Core15FilterSavedMenu10saveFilterEv
libKPim5MessageList.so.5:_ZN11MessageList4Core15FilterSavedMenu11qt_metacallEN11QMetaObject4CallEiPPv
libKPim5MessageList.so.5:_ZN11MessageList4Core15FilterSavedMenu11qt_metacastEPKc
libKPim5MessageList.so.5:_ZN11MessageList4Core15FilterSavedMenu12slotShowMenuEv
libKPim5MessageList.so.5:_ZN11MessageList4Core15FilterSavedMenu14filterSelectedERK7QString
libKPim5MessageList.so.5:_ZN11MessageList4Core15FilterSavedMenu16configureFiltersEv
libKPim5MessageList.so.5:_ZN11MessageList4Core15FilterSavedMenuC1EP7QWidget
libKPim5MessageList.so.5:_ZN11MessageList4Core15FilterSavedMenuC2EP7QWidget
libKPim5MessageList.so.5:_ZN11MessageList4Core15FilterSavedMenuD0Ev
libKPim5MessageList.so.5:_ZN11MessageList4Core15FilterSavedMenuD1Ev
libKPim5MessageList.so.5:_ZN11MessageList4Core15FilterSavedMenuD2Ev
libKPim5MessageList.so.5:_ZN11MessageList4Core15QuickSearchLine10saveFilterEv
libKPim5MessageList.so.5:_ZN11MessageList4Core15QuickSearchLine11eventFilterEP7QObjectP6QEvent
libKPim5MessageList.so.5:_ZN11MessageList4Core15QuickSearchLine11qt_metacallEN11QMetaObject4CallEiPPv
libKPim5MessageList.so.5:_ZN11MessageList4Core15QuickSearchLine11qt_metacastEPKc
libKPim5MessageList.so.5:_ZN11MessageList4Core15QuickSearchLine11resetFilterEv
libKPim5MessageList.so.5:_ZN11MessageList4Core15QuickSearchLine14activateFilterEPNS0_6FilterE
libKPim5MessageList.so.5:_ZN11MessageList4Core15QuickSearchLine14forceLostFocusEv
libKPim5MessageList.so.5:_ZN11MessageList4Core15QuickSearchLine16focusQuickSearchERK7QString
libKPim5MessageList.so.5:_ZN11MessageList4Core15QuickSearchLine16setSearchOptionsE6QFlagsINS1_12SearchOptionEE
libKPim5MessageList.so.5:_ZN11MessageList4Core15QuickSearchLine17addCompletionItemERK7QString
libKPim5MessageList.so.5:_ZN11MessageList4Core15QuickSearchLine18clearButtonClickedEv
libKPim5MessageList.so.5:_ZN11MessageList4Core15QuickSearchLine19searchOptionChangedEv
libKPim5MessageList.so.5:_ZN11MessageList4Core15QuickSearchLine20searchEditTextEditedERK7QString
libKPim5MessageList.so.5:_ZN11MessageList4Core15QuickSearchLine20statusButtonsClickedEv
libKPim5MessageList.so.5:_ZN11MessageList4Core15QuickSearchLine22setFilterMessageStatusERK7QVectorIN7Akonadi13MessageStatusEE
libKPim5MessageList.so.5:_ZN11MessageList4Core15QuickSearchLine24updateComboboxVisibilityEv
libKPim5MessageList.so.5:_ZN11MessageList4Core15QuickSearchLine27changeQuicksearchVisibilityEb
libKPim5MessageList.so.5:_ZN11MessageList4Core15QuickSearchLine27setContainsOutboundMessagesEb
libKPim5MessageList.so.5:_ZN11MessageList4Core15QuickSearchLineC1EP7QWidget
libKPim5MessageList.so.5:_ZN11MessageList4Core15QuickSearchLineC2EP7QWidget
libKPim5MessageList.so.5:_ZN11MessageList4Core15QuickSearchLineD0Ev
libKPim5MessageList.so.5:_ZN11MessageList4Core15QuickSearchLineD1Ev
libKPim5MessageList.so.5:_ZN11MessageList4Core15QuickSearchLineD2Ev
libKPim5MessageList.so.5:_ZN11MessageList4Core16FilterNameDialog11qt_metacallEN11QMetaObject4CallEiPPv
libKPim5MessageList.so.5:_ZN11MessageList4Core16FilterNameDialog11qt_metacastEPKc
libKPim5MessageList.so.5:_ZN11MessageList4Core16FilterNameDialog11setIconNameERK7QString
libKPim5MessageList.so.5:_ZN11MessageList4Core16FilterNameDialog13setFilterNameERK7QString
libKPim5MessageList.so.5:_ZN11MessageList4Core16FilterNameDialog22setExistingFilterNamesERK11QStringList
libKPim5MessageList.so.5:_ZN11MessageList4Core16FilterNameDialogC1EP7QWidget
libKPim5MessageList.so.5:_ZN11MessageList4Core16FilterNameDialogC2EP7QWidget
libKPim5MessageList.so.5:_ZN11MessageList4Core16FilterNameDialogD0Ev
libKPim5MessageList.so.5:_ZN11MessageList4Core16FilterNameDialogD1Ev
libKPim5MessageList.so.5:_ZN11MessageList4Core16FilterNameDialogD2Ev
libKPim5MessageList.so.5:_ZN11MessageList4Core16FilterNameWidget11qt_metacallEN11QMetaObject4CallEiPPv
libKPim5MessageList.so.5:_ZN11MessageList4Core16FilterNameWidget11qt_metacastEPKc
libKPim5MessageList.so.5:_ZN11MessageList4Core16FilterNameWidget11setIconNameERK7QString
libKPim5MessageList.so.5:_ZN11MessageList4Core16FilterNameWidget13setFilterNameERK7QString
libKPim5MessageList.so.5:_ZN11MessageList4Core16FilterNameWidget14updateOkButtonEb
libKPim5MessageList.so.5:_ZN11MessageList4Core16FilterNameWidget22setExistingFilterNamesERK11QStringList
libKPim5MessageList.so.5:_ZN11MessageList4Core16FilterNameWidgetC1EP7QWidget
libKPim5MessageList.so.5:_ZN11MessageList4Core16FilterNameWidgetC2EP7QWidget
libKPim5MessageList.so.5:_ZN11MessageList4Core16FilterNameWidgetD0Ev
libKPim5MessageList.so.5:_ZN11MessageList4Core16FilterNameWidgetD1Ev
libKPim5MessageList.so.5:_ZN11MessageList4Core16FilterNameWidgetD2Ev
libKPim5MessageList.so.5:_ZN11MessageList4Core16SearchLineStatus10saveFilterEv
libKPim5MessageList.so.5:_ZN11MessageList4Core16SearchLineStatus11qt_metacallEN11QMetaObject4CallEiPPv
libKPim5MessageList.so.5:_ZN11MessageList4Core16SearchLineStatus11qt_metacastEPKc
libKPim5MessageList.so.5:_ZN11MessageList4Core16SearchLineStatus13keyPressEventEP9QKeyEvent
libKPim5MessageList.so.5:_ZN11MessageList4Core16SearchLineStatus13updateFiltersEv
libKPim5MessageList.so.5:_ZN11MessageList4Core16SearchLineStatus14activateFilterEPNS0_6FilterE
libKPim5MessageList.so.5:_ZN11MessageList4Core16SearchLineStatus14forceLostFocusEv
libKPim5MessageList.so.5:_ZN11MessageList4Core16SearchLineStatus16contextMenuEventEP17QContextMenuEvent
libKPim5MessageList.so.5:_ZN11MessageList4Core16SearchLineStatus16createMenuSearchEv
libKPim5MessageList.so.5:_ZN11MessageList4Core16SearchLineStatus16setSearchOptionsE6QFlagsINS0_15QuickSearchLine12SearchOptionEE
libKPim5MessageList.so.5:_ZN11MessageList4Core16SearchLineStatus16slotClearHistoryEv
libKPim5MessageList.so.5:_ZN11MessageList4Core16SearchLineStatus16updateLockActionEv
libKPim5MessageList.so.5:_ZN11MessageList4Core16SearchLineStatus17addCompletionItemERK7QString
libKPim5MessageList.so.5:_ZN11MessageList4Core16SearchLineStatus17clearFilterActionEv
libKPim5MessageList.so.5:_ZN11MessageList4Core16SearchLineStatus17initializeActionsEv
libKPim5MessageList.so.5:_ZN11MessageList4Core16SearchLineStatus18clearButtonClickedEv
libKPim5MessageList.so.5:_ZN11MessageList4Core16SearchLineStatus18createFilterActionERK5QIconRK7QStringi
libKPim5MessageList.so.5:_ZN11MessageList4Core16SearchLineStatus18slotActivateFilterERK7QString
libKPim5MessageList.so.5:_ZN11MessageList4Core16SearchLineStatus19clearFilterByActionEv
libKPim5MessageList.so.5:_ZN11MessageList4Core16SearchLineStatus19filterActionChangedERK7QVectorIN7Akonadi13MessageStatusEE
libKPim5MessageList.so.5:_ZN11MessageList4Core16SearchLineStatus19searchOptionChangedEv
libKPim5MessageList.so.5:_ZN11MessageList4Core16SearchLineStatus20createFilterByActionEv
libKPim5MessageList.so.5:_ZN11MessageList4Core16SearchLineStatus20showSavedFiltersMenuEv
libKPim5MessageList.so.5:_ZN11MessageList4Core16SearchLineStatus20slotConfigureFiltersEv
libKPim5MessageList.so.5:_ZN11MessageList4Core16SearchLineStatus21slotToggledLockActionEv
libKPim5MessageList.so.5:_ZN11MessageList4Core16SearchLineStatus22setFilterMessageStatusERK7QVectorIN7Akonadi13MessageStatusEE
libKPim5MessageList.so.5:_ZN11MessageList4Core16SearchLineStatus22updateFilterActionIconEv
libKPim5MessageList.so.5:_ZN11MessageList4Core16SearchLineStatus23slotFilterActionClickedEP7QAction
libKPim5MessageList.so.5:_ZN11MessageList4Core16SearchLineStatus24clearFilterButtonClickedEv
libKPim5MessageList.so.5:_ZN11MessageList4Core16SearchLineStatus27setContainsOutboundMessagesEb
libKPim5MessageList.so.5:_ZN11MessageList4Core16SearchLineStatus31changeSearchAgainstFromOrToTextEv
libKPim5MessageList.so.5:_ZN11MessageList4Core16SearchLineStatus8showMenuEv
libKPim5MessageList.so.5:_ZN11MessageList4Core16SearchLineStatus9setLockedEb
libKPim5MessageList.so.5:_ZN11MessageList4Core16SearchLineStatus9slotClearEv
libKPim5MessageList.so.5:_ZN11MessageList4Core16SearchLineStatusC1EP7QWidget
libKPim5MessageList.so.5:_ZN11MessageList4Core16SearchLineStatusC2EP7QWidget
libKPim5MessageList.so.5:_ZN11MessageList4Core16SearchLineStatusD0Ev
libKPim5MessageList.so.5:_ZN11MessageList4Core16SearchLineStatusD1Ev
libKPim5MessageList.so.5:_ZN11MessageList4Core16SearchLineStatusD2Ev
libKPim5MessageList.so.5:_ZN11MessageList4Core16TabLockedWarning11qt_metacallEN11QMetaObject4CallEiPPv
libKPim5MessageList.so.5:_ZN11MessageList4Core16TabLockedWarning11qt_metacastEPKc
libKPim5MessageList.so.5:_ZN11MessageList4Core16TabLockedWarning17slotLinkActivatedERK7QString
libKPim5MessageList.so.5:_ZN11MessageList4Core16TabLockedWarning18unlockTabRequestedEv
libKPim5MessageList.so.5:_ZN11MessageList4Core16TabLockedWarningC1EP7QWidget
libKPim5MessageList.so.5:_ZN11MessageList4Core16TabLockedWarningC2EP7QWidget
libKPim5MessageList.so.5:_ZN11MessageList4Core16TabLockedWarningD0Ev
libKPim5MessageList.so.5:_ZN11MessageList4Core16TabLockedWarningD1Ev
libKPim5MessageList.so.5:_ZN11MessageList4Core16TabLockedWarningD2Ev
libKPim5MessageList.so.5:_ZN11MessageList4Core18QuickSearchWarning11qt_metacallEN11QMetaObject4CallEiPPv
libKPim5MessageList.so.5:_ZN11MessageList4Core18QuickSearchWarning11qt_metacastEPKc
libKPim5MessageList.so.5:_ZN11MessageList4Core18QuickSearchWarning13setSearchTextERK7QString
libKPim5MessageList.so.5:_ZN11MessageList4Core18QuickSearchWarning19slotDoNotRememberItEv
libKPim5MessageList.so.5:_ZN11MessageList4Core18QuickSearchWarningC1EP7QWidget
libKPim5MessageList.so.5:_ZN11MessageList4Core18QuickSearchWarningC2EP7QWidget
libKPim5MessageList.so.5:_ZN11MessageList4Core18QuickSearchWarningD0Ev
libKPim5MessageList.so.5:_ZN11MessageList4Core18QuickSearchWarningD1Ev
libKPim5MessageList.so.5:_ZN11MessageList4Core18QuickSearchWarningD2Ev
libKPim5MessageList.so.5:_ZN11MessageList4Core22ConfigureFiltersDialog10readConfigEv
libKPim5MessageList.so.5:_ZN11MessageList4Core22ConfigureFiltersDialog11qt_metacallEN11QMetaObject4CallEiPPv
libKPim5MessageList.so.5:_ZN11MessageList4Core22ConfigureFiltersDialog11qt_metacastEPKc
libKPim5MessageList.so.5:_ZN11MessageList4Core22ConfigureFiltersDialog11writeConfigEv
libKPim5MessageList.so.5:_ZN11MessageList4Core22ConfigureFiltersDialogC1EP7QWidget
libKPim5MessageList.so.5:_ZN11MessageList4Core22ConfigureFiltersDialogC2EP7QWidget
libKPim5MessageList.so.5:_ZN11MessageList4Core22ConfigureFiltersDialogD0Ev
libKPim5MessageList.so.5:_ZN11MessageList4Core22ConfigureFiltersDialogD1Ev
libKPim5MessageList.so.5:_ZN11MessageList4Core22ConfigureFiltersDialogD2Ev
libKPim5MessageList.so.5:_ZN11MessageList4Core22ConfigureFiltersWidget11qt_metacallEN11QMetaObject4CallEiPPv
libKPim5MessageList.so.5:_ZN11MessageList4Core22ConfigureFiltersWidget11qt_metacastEPKc
libKPim5MessageList.so.5:_ZN11MessageList4Core22ConfigureFiltersWidget16removeFilterInfoERK7QString
libKPim5MessageList.so.5:_ZN11MessageList4Core22ConfigureFiltersWidget16updateFilterInfoERK7QStringS4_S4_
libKPim5MessageList.so.5:_ZN11MessageList4Core22ConfigureFiltersWidget19slotConfigureFilterEP15QListWidgetItem
libKPim5MessageList.so.5:_ZN11MessageList4Core22ConfigureFiltersWidget30slotCustomContextMenuRequestedERK6QPoint
libKPim5MessageList.so.5:_ZN11MessageList4Core22ConfigureFiltersWidget4initEv
libKPim5MessageList.so.5:_ZN11MessageList4Core22ConfigureFiltersWidgetC1EP7QWidget
libKPim5MessageList.so.5:_ZN11MessageList4Core22ConfigureFiltersWidgetC2EP7QWidget
libKPim5MessageList.so.5:_ZN11MessageList4Core22ConfigureFiltersWidgetD0Ev
libKPim5MessageList.so.5:_ZN11MessageList4Core22ConfigureFiltersWidgetD1Ev
libKPim5MessageList.so.5:_ZN11MessageList4Core22ConfigureFiltersWidgetD2Ev
libKPim5MessageList.so.5:_ZN11MessageList4Core31SearchCollectionIndexingWarning11qt_metacallEN11QMetaObject4CallEiPPv
libKPim5MessageList.so.5:_ZN11MessageList4Core31SearchCollectionIndexingWarning11qt_metacastEPKc
libKPim5MessageList.so.5:_ZN11MessageList4Core31SearchCollectionIndexingWarning13setCollectionERKN7Akonadi10CollectionE
libKPim5MessageList.so.5:_ZN11MessageList4Core31SearchCollectionIndexingWarning16fetchCollectionsERK7QVectorIN7Akonadi10CollectionEEb
libKPim5MessageList.so.5:_ZN11MessageList4Core31SearchCollectionIndexingWarning18queryIndexerStatusEv
libKPim5MessageList.so.5:_ZN11MessageList4Core31SearchCollectionIndexingWarning28queryCollectionFetchFinishedEP4KJob
libKPim5MessageList.so.5:_ZN11MessageList4Core31SearchCollectionIndexingWarning32queryRootCollectionFetchFinishedEP4KJob
libKPim5MessageList.so.5:_ZN11MessageList4Core31SearchCollectionIndexingWarningC1EP7QWidget
libKPim5MessageList.so.5:_ZN11MessageList4Core31SearchCollectionIndexingWarningC2EP7QWidget
libKPim5MessageList.so.5:_ZN11MessageList4Core31SearchCollectionIndexingWarningD0Ev
libKPim5MessageList.so.5:_ZN11MessageList4Core31SearchCollectionIndexingWarningD1Ev
libKPim5MessageList.so.5:_ZN11MessageList4Core31SearchCollectionIndexingWarningD2Ev
libKPim5MessageList.so.5:_ZN11MessageList4Core4Item10setMaxDateEl
libKPim5MessageList.so.5:_ZN11MessageList4Core4Item10setSubjectERK7QString
libKPim5MessageList.so.5:_ZN11MessageList4Core4Item11deepestItemEv
libKPim5MessageList.so.5:_ZN11MessageList4Core4Item11setReceiverERK7QString
libKPim5MessageList.so.5:_ZN11MessageList4Core4Item11setViewableEPNS0_5ModelEb
libKPim5MessageList.so.5:_ZN11MessageList4Core4Item12initialSetupElmRK7QStringS4_b
libKPim5MessageList.so.5:_ZN11MessageList4Core4Item13setIndexGuessEi
libKPim5MessageList.so.5:_ZN11MessageList4Core4Item13takeChildItemEPNS0_5ModelEPS1_
libKPim5MessageList.so.5:_ZN11MessageList4Core4Item14itemAboveChildEPS1_
libKPim5MessageList.so.5:_ZN11MessageList4Core4Item14itemBelowChildEPS1_
libKPim5MessageList.so.5:_ZN11MessageList4Core4Item14topmostNonRootEv
libKPim5MessageList.so.5:_ZN11MessageList4Core4Item15appendChildItemEPNS0_5ModelEPS1_
libKPim5MessageList.so.5:_ZN11MessageList4Core4Item16recomputeMaxDateEv
libKPim5MessageList.so.5:_ZN11MessageList4Core4Item17killAllChildItemsEv
libKPim5MessageList.so.5:_ZN11MessageList4Core4Item18rawAppendChildItemEPS1_
libKPim5MessageList.so.5:_ZN11MessageList4Core4Item19setSubjectAndStatusERK7QStringN7Akonadi13MessageStatusE
libKPim5MessageList.so.5:_ZN11MessageList4Core4Item21setParentCollectionIdEx
libKPim5MessageList.so.5:_ZN11MessageList4Core4Item22setInitialExpandStatusENS1_19InitialExpandStatusE
libKPim5MessageList.so.5:_ZN11MessageList4Core4Item4dumpERK7QString
libKPim5MessageList.so.5:_ZN11MessageList4Core4Item7setDateEl
libKPim5MessageList.so.5:_ZN11MessageList4Core4Item7setSizeEm
libKPim5MessageList.so.5:_ZN11MessageList4Core4Item9itemAboveEv
libKPim5MessageList.so.5:_ZN11MessageList4Core4Item9itemBelowEv
libKPim5MessageList.so.5:_ZN11MessageList4Core4Item9setFolderERK7QString
libKPim5MessageList.so.5:_ZN11MessageList4Core4Item9setItemIdEx
libKPim5MessageList.so.5:_ZN11MessageList4Core4Item9setParentEPS1_
libKPim5MessageList.so.5:_ZN11MessageList4Core4Item9setSenderERK7QString
libKPim5MessageList.so.5:_ZN11MessageList4Core4Item9setStatusEN7Akonadi13MessageStatusE
libKPim5MessageList.so.5:_ZN11MessageList4Core4ItemC1ENS1_4TypeE
libKPim5MessageList.so.5:_ZN11MessageList4Core4ItemC1ENS1_4TypeEPNS0_11ItemPrivateE
libKPim5MessageList.so.5:_ZN11MessageList4Core4ItemC2ENS1_4TypeE
libKPim5MessageList.so.5:_ZN11MessageList4Core4ItemC2ENS1_4TypeEPNS0_11ItemPrivateE
libKPim5MessageList.so.5:_ZN11MessageList4Core4ItemD0Ev
libKPim5MessageList.so.5:_ZN11MessageList4Core4ItemD1Ev
libKPim5MessageList.so.5:_ZN11MessageList4Core4ItemD2Ev
libKPim5MessageList.so.5:_ZN11MessageList4Pane11PanePrivate11activateTabEv
libKPim5MessageList.so.5:_ZN11MessageList4Pane11PanePrivate11moveTabLeftEv
libKPim5MessageList.so.5:_ZN11MessageList4Pane11PanePrivate12moveTabRightEv
libKPim5MessageList.so.5:_ZN11MessageList4Pane11PanePrivate14moveTabForwardEv
libKPim5MessageList.so.5:_ZN11MessageList4Pane11PanePrivate15activateNextTabEv
libKPim5MessageList.so.5:_ZN11MessageList4Pane11PanePrivate15moveTabBackwardEv
libKPim5MessageList.so.5:_ZN11MessageList4Pane11PanePrivate15onNewTabClickedEv
libKPim5MessageList.so.5:_ZN11MessageList4Pane11PanePrivate16setCurrentFolderERK11QModelIndex
libKPim5MessageList.so.5:_ZN11MessageList4Pane11PanePrivate17onCloseTabClickedEv
libKPim5MessageList.so.5:_ZN11MessageList4Pane11PanePrivate17updateTabControlsEv
libKPim5MessageList.so.5:_ZN11MessageList4Pane11PanePrivate19activatePreviousTabEv
libKPim5MessageList.so.5:_ZN11MessageList4Pane11PanePrivate19onCurrentTabChangedEv
libKPim5MessageList.so.5:_ZN11MessageList4Pane11PanePrivate20addActivateTabActionEi
libKPim5MessageList.so.5:_ZN11MessageList4Pane11PanePrivate21slotTabCloseRequestedEi
libKPim5MessageList.so.5:_ZN11MessageList4Pane11PanePrivate23onTabContextMenuRequestERK6QPoint
libKPim5MessageList.so.5:_ZN11MessageList4Pane11PanePrivate27changeQuicksearchVisibilityEb
libKPim5MessageList.so.5:_ZN11MessageList4Pane11PanePrivate8closeTabEP7QWidget
libKPim5MessageList.so.5:_ZN11MessageList4Pane11eventFilterEP7QObjectP6QEvent
libKPim5MessageList.so.5:_ZN11MessageList4Pane11qt_metacallEN11QMetaObject4CallEiPPv
libKPim5MessageList.so.5:_ZN11MessageList4Pane11qt_metacastEPKc
libKPim5MessageList.so.5:_ZN11MessageList4Pane11writeConfigEb
libKPim5MessageList.so.5:_ZN11MessageList4Pane12createNewTabEv
libKPim5MessageList.so.5:_ZN11MessageList4Pane13statusMessageERK7QString
libKPim5MessageList.so.5:_ZN11MessageList4Pane14forceLostFocusEv
libKPim5MessageList.so.5:_ZN11MessageList4Pane15messageSelectedERKN7Akonadi4ItemE
libKPim5MessageList.so.5:_ZN11MessageList4Pane15setXmlGuiClientEP13KXMLGUIClient
libKPim5MessageList.so.5:_ZN11MessageList4Pane16focusQuickSearchERK7QString
libKPim5MessageList.so.5:_ZN11MessageList4Pane16messageActivatedERKN7Akonadi4ItemE
libKPim5MessageList.so.5:_ZN11MessageList4Pane16selectionChangedEv
libKPim5MessageList.so.5:_ZN11MessageList4Pane16setCurrentFolderERKN7Akonadi10CollectionERK11QModelIndexbNS_4Core16PreSelectionModeERK7QString
libKPim5MessageList.so.5:_ZN11MessageList4Pane17currentTabChangedEv
libKPim5MessageList.so.5:_ZN11MessageList4Pane17resetModelStorageEv
libKPim5MessageList.so.5:_ZN11MessageList4Pane17setPreferEmptyTabEb
libKPim5MessageList.so.5:_ZN11MessageList4Pane17updateTabIconTextERKN7Akonadi10CollectionERK7QStringRK5QIcon
libKPim5MessageList.so.5:_ZN11MessageList4Pane17updateTagComboBoxEv
libKPim5MessageList.so.5:_ZN11MessageList4Pane18createStorageModelEP18QAbstractItemModelP19QItemSelectionModelP7QObject
libKPim5MessageList.so.5:_ZN11MessageList4Pane19deletePersistentSetEl
libKPim5MessageList.so.5:_ZN11MessageList4Pane20focusNextMessageItemENS_4Core17MessageTypeFilterEbb
libKPim5MessageList.so.5:_ZN11MessageList4Pane20saveCurrentSelectionEv
libKPim5MessageList.so.5:_ZN11MessageList4Pane20setAllGroupsExpandedEb
libKPim5MessageList.so.5:_ZN11MessageList4Pane20themeMenuAboutToShowEv
libKPim5MessageList.so.5:_ZN11MessageList4Pane21selectLastMessageItemENS_4Core17MessageTypeFilterEb
libKPim5MessageList.so.5:_ZN11MessageList4Pane21selectNextMessageItemENS_4Core17MessageTypeFilterENS1_26ExistingSelectionBehaviourEbb
libKPim5MessageList.so.5:_ZN11MessageList4Pane21setAllThreadsExpandedEb
libKPim5MessageList.so.5:_ZN11MessageList4Pane22selectFirstMessageItemENS_4Core17MessageTypeFilterEb
libKPim5MessageList.so.5:_ZN11MessageList4Pane24focusPreviousMessageItemENS_4Core17MessageTypeFilterEbb
libKPim5MessageList.so.5:_ZN11MessageList4Pane24selectFocusedMessageItemEb
libKPim5MessageList.so.5:_ZN11MessageList4Pane24setCurrentThreadExpandedEb
libKPim5MessageList.so.5:_ZN11MessageList4Pane24sortOrderMenuAboutToShowEv
libKPim5MessageList.so.5:_ZN11MessageList4Pane25currentItemSelectionModelEv
libKPim5MessageList.so.5:_ZN11MessageList4Pane25itemListFromPersistentSetEl
libKPim5MessageList.so.5:_ZN11MessageList4Pane25populateStatusFilterComboEv
libKPim5MessageList.so.5:_ZN11MessageList4Pane25reloadGlobalConfigurationEv
libKPim5MessageList.so.5:_ZN11MessageList4Pane25selectPreviousMessageItemENS_4Core17MessageTypeFilterENS1_26ExistingSelectionBehaviourEbb
libKPim5MessageList.so.5:_ZN11MessageList4Pane26aggregationMenuAboutToShowEv
libKPim5MessageList.so.5:_ZN11MessageList4Pane26messageStatusChangeRequestERKN7Akonadi4ItemERKNS1_13MessageStatusES7_
libKPim5MessageList.so.5:_ZN11MessageList4Pane26setQuickSearchClickMessageERK7QString
libKPim5MessageList.so.5:_ZN11MessageList4Pane34markMessageItemsAsAboutToBeRemovedElb
libKPim5MessageList.so.5:_ZN11MessageList4Pane9focusViewEv
libKPim5MessageList.so.5:_ZN11MessageList4Pane9selectAllEv
libKPim5MessageList.so.5:_ZN11MessageList4PaneC1EbP18QAbstractItemModelP19QItemSelectionModelP7QWidget
libKPim5MessageList.so.5:_ZN11MessageList4PaneC2EbP18QAbstractItemModelP19QItemSelectionModelP7QWidget
libKPim5MessageList.so.5:_ZN11MessageList4PaneD0Ev
libKPim5MessageList.so.5:_ZN11MessageList4PaneD1Ev
libKPim5MessageList.so.5:_ZN11MessageList4PaneD2Ev
libKPim5MessageList.so.5:_ZN11MessageList4Util12deleteConfigERK7QString
libKPim5MessageList.so.5:_ZN11MessageList4Util14contentSummaryERKN7Akonadi4ItemE
libKPim5MessageList.so.5:_ZN11MessageList4Util23todoDefaultMessageColorEv
libKPim5MessageList.so.5:_ZN11MessageList4Util25unreadDefaultMessageColorEv
libKPim5MessageList.so.5:_ZN11MessageList4Util28importantDefaultMessageColorEv
libKPim5MessageList.so.5:_ZN11MessageList5Utils13ThemeComboBox11qt_metacallEN11QMetaObject4CallEiPPv
libKPim5MessageList.so.5:_ZN11MessageList5Utils13ThemeComboBox11qt_metacastEPKc
libKPim5MessageList.so.5:_ZN11MessageList5Utils13ThemeComboBox13selectDefaultEv
libKPim5MessageList.so.5:_ZN11MessageList5Utils13ThemeComboBox14slotLoadThemesEv
libKPim5MessageList.so.5:_ZN11MessageList5Utils13ThemeComboBox22readStorageModelConfigEPNS_4Core12StorageModelERb
libKPim5MessageList.so.5:_ZN11MessageList5Utils13ThemeComboBox22readStorageModelConfigERKN7Akonadi10CollectionERb
libKPim5MessageList.so.5:_ZN11MessageList5Utils13ThemeComboBoxC1EP7QWidget
libKPim5MessageList.so.5:_ZN11MessageList5Utils13ThemeComboBoxC2EP7QWidget
libKPim5MessageList.so.5:_ZN11MessageList5Utils13ThemeComboBoxD0Ev
libKPim5MessageList.so.5:_ZN11MessageList5Utils13ThemeComboBoxD1Ev
libKPim5MessageList.so.5:_ZN11MessageList5Utils13ThemeComboBoxD2Ev
libKPim5MessageList.so.5:_ZN11MessageList5Utils17ThemeConfigButton11qt_metacallEN11QMetaObject4CallEiPPv
libKPim5MessageList.so.5:_ZN11MessageList5Utils17ThemeConfigButton11qt_metacastEPKc
libKPim5MessageList.so.5:_ZN11MessageList5Utils17ThemeConfigButton24configureDialogCompletedEv
libKPim5MessageList.so.5:_ZN11MessageList5Utils17ThemeConfigButtonC1EP7QWidgetPKNS0_13ThemeComboBoxE
libKPim5MessageList.so.5:_ZN11MessageList5Utils17ThemeConfigButtonC2EP7QWidgetPKNS0_13ThemeComboBoxE
libKPim5MessageList.so.5:_ZN11MessageList5Utils17ThemeConfigButtonD0Ev
libKPim5MessageList.so.5:_ZN11MessageList5Utils17ThemeConfigButtonD1Ev
libKPim5MessageList.so.5:_ZN11MessageList5Utils17ThemeConfigButtonD2Ev
libKPim5MessageList.so.5:_ZN11MessageList5Utils19AggregationComboBox11qt_metacallEN11QMetaObject4CallEiPPv
libKPim5MessageList.so.5:_ZN11MessageList5Utils19AggregationComboBox11qt_metacastEPKc
libKPim5MessageList.so.5:_ZN11MessageList5Utils19AggregationComboBox13selectDefaultEv
libKPim5MessageList.so.5:_ZN11MessageList5Utils19AggregationComboBox20slotLoadAggregationsEv
libKPim5MessageList.so.5:_ZN11MessageList5Utils19AggregationComboBox22readStorageModelConfigEPNS_4Core12StorageModelERb
libKPim5MessageList.so.5:_ZN11MessageList5Utils19AggregationComboBox22readStorageModelConfigERK7QStringRb
libKPim5MessageList.so.5:_ZN11MessageList5Utils19AggregationComboBox22readStorageModelConfigERKN7Akonadi10CollectionERb
libKPim5MessageList.so.5:_ZN11MessageList5Utils19AggregationComboBoxC1EP7QWidget
libKPim5MessageList.so.5:_ZN11MessageList5Utils19AggregationComboBoxC2EP7QWidget
libKPim5MessageList.so.5:_ZN11MessageList5Utils19AggregationComboBoxD0Ev
libKPim5MessageList.so.5:_ZN11MessageList5Utils19AggregationComboBoxD1Ev
libKPim5MessageList.so.5:_ZN11MessageList5Utils19AggregationComboBoxD2Ev
libKPim5MessageList.so.5:_ZN11MessageList5Utils23AggregationConfigButton11qt_metacallEN11QMetaObject4CallEiPPv
libKPim5MessageList.so.5:_ZN11MessageList5Utils23AggregationConfigButton11qt_metacastEPKc
libKPim5MessageList.so.5:_ZN11MessageList5Utils23AggregationConfigButton24configureDialogCompletedEv
libKPim5MessageList.so.5:_ZN11MessageList5Utils23AggregationConfigButtonC1EP7QWidgetPKNS0_19AggregationComboBoxE
libKPim5MessageList.so.5:_ZN11MessageList5Utils23AggregationConfigButtonC2EP7QWidgetPKNS0_19AggregationComboBoxE
libKPim5MessageList.so.5:_ZN11MessageList5Utils23AggregationConfigButtonD0Ev
libKPim5MessageList.so.5:_ZN11MessageList5Utils23AggregationConfigButtonD1Ev
libKPim5MessageList.so.5:_ZN11MessageList5Utils23AggregationConfigButtonD2Ev
libKPim5MessageList.so.5:_ZN11MessageList6Widget11qt_metacallEN11QMetaObject4CallEiPPv
libKPim5MessageList.so.5:_ZN11MessageList6Widget11qt_metacastEPKc
libKPim5MessageList.so.5:_ZN11MessageList6Widget13canAcceptDragEPK10QDropEvent
libKPim5MessageList.so.5:_ZN11MessageList6Widget13viewDropEventEP10QDropEvent
libKPim5MessageList.so.5:_ZN11MessageList6Widget15messageSelectedERKN7Akonadi4ItemE
libKPim5MessageList.so.5:_ZN11MessageList6Widget15setXmlGuiClientEP13KXMLGUIClient
libKPim5MessageList.so.5:_ZN11MessageList6Widget16focusQuickSearchERK7QString
libKPim5MessageList.so.5:_ZN11MessageList6Widget16messageActivatedERKN7Akonadi4ItemE
libKPim5MessageList.so.5:_ZN11MessageList6Widget16selectionChangedEv
libKPim5MessageList.so.5:_ZN11MessageList6Widget17viewDragMoveEventEP14QDragMoveEvent
libKPim5MessageList.so.5:_ZN11MessageList6Widget18viewDragEnterEventEP15QDragEnterEvent
libKPim5MessageList.so.5:_ZN11MessageList6Widget19deletePersistentSetEl
libKPim5MessageList.so.5:_ZN11MessageList6Widget19fillMessageTagComboEv
libKPim5MessageList.so.5:_ZN11MessageList6Widget19viewMessageSelectedEPNS_4Core11MessageItemE
libKPim5MessageList.so.5:_ZN11MessageList6Widget20focusNextMessageItemENS_4Core17MessageTypeFilterEbb
libKPim5MessageList.so.5:_ZN11MessageList6Widget20setAllGroupsExpandedEb
libKPim5MessageList.so.5:_ZN11MessageList6Widget20viewMessageActivatedEPNS_4Core11MessageItemE
libKPim5MessageList.so.5:_ZN11MessageList6Widget20viewSelectionChangedEv
libKPim5MessageList.so.5:_ZN11MessageList6Widget20viewStartDragRequestEv
libKPim5MessageList.so.5:_ZN11MessageList6Widget21selectLastMessageItemENS_4Core17MessageTypeFilterEb
libKPim5MessageList.so.5:_ZN11MessageList6Widget21selectNextMessageItemENS_4Core17MessageTypeFilterENS1_26ExistingSelectionBehaviourEbb
libKPim5MessageList.so.5:_ZN11MessageList6Widget21setAllThreadsExpandedEb
libKPim5MessageList.so.5:_ZN11MessageList6Widget22selectFirstMessageItemENS_4Core17MessageTypeFilterEb
libKPim5MessageList.so.5:_ZN11MessageList6Widget24focusPreviousMessageItemENS_4Core17MessageTypeFilterEbb
libKPim5MessageList.so.5:_ZN11MessageList6Widget24selectFocusedMessageItemEb
libKPim5MessageList.so.5:_ZN11MessageList6Widget24setCurrentThreadExpandedEb
libKPim5MessageList.so.5:_ZN11MessageList6Widget25itemListFromPersistentSetEl
libKPim5MessageList.so.5:_ZN11MessageList6Widget25selectPreviousMessageItemENS_4Core17MessageTypeFilterENS1_26ExistingSelectionBehaviourEbb
libKPim5MessageList.so.5:_ZN11MessageList6Widget26messageStatusChangeRequestERKN7Akonadi4ItemERKNS1_13MessageStatusES7_
libKPim5MessageList.so.5:_ZN11MessageList6Widget26setQuickSearchClickMessageERK7QString
libKPim5MessageList.so.5:_ZN11MessageList6Widget30viewMessageStatusChangeRequestEPNS_4Core11MessageItemEN7Akonadi13MessageStatusES5_
libKPim5MessageList.so.5:_ZN11MessageList6Widget34markMessageItemsAsAboutToBeRemovedElb
libKPim5MessageList.so.5:_ZN11MessageList6Widget34viewGroupHeaderContextPopupRequestEPNS_4Core15GroupHeaderItemERK6QPoint
libKPim5MessageList.so.5:_ZN11MessageList6Widget34viewMessageListContextPopupRequestERK7QVectorIPNS_4Core11MessageItemEERK6QPoint
libKPim5MessageList.so.5:_ZN11MessageList6Widget9selectAllEv
libKPim5MessageList.so.5:_ZN11MessageList6WidgetC1EP7QWidget
libKPim5MessageList.so.5:_ZN11MessageList6WidgetC2EP7QWidget
libKPim5MessageList.so.5:_ZN11MessageList6WidgetD0Ev
libKPim5MessageList.so.5:_ZN11MessageList6WidgetD1Ev
libKPim5MessageList.so.5:_ZN11MessageList6WidgetD2Ev
libKPim5MessageList.so.5:_ZNK11MessageList12StorageModel10itemForRowEi
libKPim5MessageList.so.5:_ZNK11MessageList12StorageModel10metaObjectEv
libKPim5MessageList.so.5:_ZNK11MessageList12StorageModel11columnCountERK11QModelIndex
libKPim5MessageList.so.5:_ZNK11MessageList12StorageModel13messageForRowEi
libKPim5MessageList.so.5:_ZNK11MessageList12StorageModel15collectionForIdEx
libKPim5MessageList.so.5:_ZNK11MessageList12StorageModel16isOutBoundFolderERKN7Akonadi10CollectionE
libKPim5MessageList.so.5:_ZNK11MessageList12StorageModel20displayedCollectionsEv
libKPim5MessageList.so.5:_ZNK11MessageList12StorageModel21initializeMessageItemEPNS_4Core11MessageItemEib
libKPim5MessageList.so.5:_ZNK11MessageList12StorageModel21updateMessageItemDataEPNS_4Core11MessageItemEi
libKPim5MessageList.so.5:_ZNK11MessageList12StorageModel22parentCollectionForRowEi
libKPim5MessageList.so.5:_ZNK11MessageList12StorageModel24containsOutboundMessagesEv
libKPim5MessageList.so.5:_ZNK11MessageList12StorageModel26initialUnreadRowCountGuessEv
libKPim5MessageList.so.5:_ZNK11MessageList12StorageModel28fillMessageItemThreadingDataEPNS_4Core11MessageItemEiNS1_12StorageModel19ThreadingDataSubsetE
libKPim5MessageList.so.5:_ZNK11MessageList12StorageModel2idEv
libKPim5MessageList.so.5:_ZNK11MessageList12StorageModel4dataERK11QModelIndexi
libKPim5MessageList.so.5:_ZNK11MessageList12StorageModel5indexEiiRK11QModelIndex
libKPim5MessageList.so.5:_ZNK11MessageList12StorageModel6parentERK11QModelIndex
libKPim5MessageList.so.5:_ZNK11MessageList12StorageModel8mimeDataERK7QVectorIPNS_4Core11MessageItemEE
libKPim5MessageList.so.5:_ZNK11MessageList12StorageModel8rowCountERK11QModelIndex
libKPim5MessageList.so.5:_ZNK11MessageList4Core11MessageItem10annotationEv
libKPim5MessageList.so.5:_ZNK11MessageList4Core11MessageItem11akonadiItemEv
libKPim5MessageList.so.5:_ZNK11MessageList4Core11MessageItem12messageIdMD5Ev
libKPim5MessageList.so.5:_ZNK11MessageList4Core11MessageItem13hasAnnotationEv
libKPim5MessageList.so.5:_ZNK11MessageList4Core11MessageItem14inReplyToIdMD5Ev
libKPim5MessageList.so.5:_ZNK11MessageList4Core11MessageItem14signatureStateEv
libKPim5MessageList.so.5:_ZNK11MessageList4Core11MessageItem15backgroundColorEv
libKPim5MessageList.so.5:_ZNK11MessageList4Core11MessageItem15encryptionStateEv
libKPim5MessageList.so.5:_ZNK11MessageList4Core11MessageItem15referencesIdMD5Ev
libKPim5MessageList.so.5:_ZNK11MessageList4Core11MessageItem15threadingStatusEv
libKPim5MessageList.so.5:_ZNK11MessageList4Core11MessageItem16aboutToBeRemovedEv
libKPim5MessageList.so.5:_ZNK11MessageList4Core11MessageItem17subjectIsPrefixedEv
libKPim5MessageList.so.5:_ZNK11MessageList4Core11MessageItem18strippedSubjectMD5Ev
libKPim5MessageList.so.5:_ZNK11MessageList4Core11MessageItem18tagListDescriptionEv
libKPim5MessageList.so.5:_ZNK11MessageList4Core11MessageItem3Tag15backgroundColorEv
libKPim5MessageList.so.5:_ZNK11MessageList4Core11MessageItem3Tag2idEv
libKPim5MessageList.so.5:_ZNK11MessageList4Core11MessageItem3Tag4fontEv
libKPim5MessageList.so.5:_ZNK11MessageList4Core11MessageItem3Tag4nameEv
libKPim5MessageList.so.5:_ZNK11MessageList4Core11MessageItem3Tag6pixmapEv
libKPim5MessageList.so.5:_ZNK11MessageList4Core11MessageItem3Tag8priorityEv
libKPim5MessageList.so.5:_ZNK11MessageList4Core11MessageItem3Tag9textColorEv
libKPim5MessageList.so.5:_ZNK11MessageList4Core11MessageItem7findTagERK7QString
libKPim5MessageList.so.5:_ZNK11MessageList4Core11MessageItem7tagListEv
libKPim5MessageList.so.5:_ZNK11MessageList4Core11MessageItem8uniqueIdEv
libKPim5MessageList.so.5:_ZNK11MessageList4Core11MessageItem9textColorEv
libKPim5MessageList.so.5:_ZNK11MessageList4Core15FilterSavedMenu10metaObjectEv
libKPim5MessageList.so.5:_ZNK11MessageList4Core15QuickSearchLine10metaObjectEv
libKPim5MessageList.so.5:_ZNK11MessageList4Core15QuickSearchLine10searchEditEv
libKPim5MessageList.so.5:_ZNK11MessageList4Core15QuickSearchLine13searchOptionsEv
libKPim5MessageList.so.5:_ZNK11MessageList4Core15QuickSearchLine17tagFilterComboBoxEv
libKPim5MessageList.so.5:_ZNK11MessageList4Core15QuickSearchLine24containsOutboundMessagesEv
libKPim5MessageList.so.5:_ZNK11MessageList4Core15QuickSearchLine6statusEv
libKPim5MessageList.so.5:_ZNK11MessageList4Core16FilterNameDialog10filterNameEv
libKPim5MessageList.so.5:_ZNK11MessageList4Core16FilterNameDialog10metaObjectEv
libKPim5MessageList.so.5:_ZNK11MessageList4Core16FilterNameDialog8iconNameEv
libKPim5MessageList.so.5:_ZNK11MessageList4Core16FilterNameWidget10filterNameEv
libKPim5MessageList.so.5:_ZNK11MessageList4Core16FilterNameWidget10metaObjectEv
libKPim5MessageList.so.5:_ZNK11MessageList4Core16FilterNameWidget8iconNameEv
libKPim5MessageList.so.5:_ZNK11MessageList4Core16SearchLineStatus10metaObjectEv
libKPim5MessageList.so.5:_ZNK11MessageList4Core16SearchLineStatus13searchOptionsEv
libKPim5MessageList.so.5:_ZNK11MessageList4Core16SearchLineStatus24containsOutboundMessagesEv
libKPim5MessageList.so.5:_ZNK11MessageList4Core16SearchLineStatus6lockedEv
libKPim5MessageList.so.5:_ZNK11MessageList4Core16TabLockedWarning10metaObjectEv
libKPim5MessageList.so.5:_ZNK11MessageList4Core18QuickSearchWarning10metaObjectEv
libKPim5MessageList.so.5:_ZNK11MessageList4Core22ConfigureFiltersDialog10metaObjectEv
libKPim5MessageList.so.5:_ZNK11MessageList4Core22ConfigureFiltersWidget10metaObjectEv
libKPim5MessageList.so.5:_ZNK11MessageList4Core31SearchCollectionIndexingWarning10metaObjectEv
libKPim5MessageList.so.5:_ZNK11MessageList4Core4Item10childItemsEv
libKPim5MessageList.so.5:_ZNK11MessageList4Core4Item10isViewableEv
libKPim5MessageList.so.5:_ZNK11MessageList4Core4Item11hasAncestorEPKS1_
libKPim5MessageList.so.5:_ZNK11MessageList4Core4Item11hasChildrenEv
libKPim5MessageList.so.5:_ZNK11MessageList4Core4Item11useReceiverEv
libKPim5MessageList.so.5:_ZNK11MessageList4Core4Item13displaySenderEv
libKPim5MessageList.so.5:_ZNK11MessageList4Core4Item13formattedDateEv
libKPim5MessageList.so.5:_ZNK11MessageList4Core4Item13formattedSizeEv
libKPim5MessageList.so.5:_ZNK11MessageList4Core4Item14childItemCountEv
libKPim5MessageList.so.5:_ZNK11MessageList4Core4Item14childItemStatsERNS1_14ChildItemStatsE
libKPim5MessageList.so.5:_ZNK11MessageList4Core4Item14firstChildItemEv
libKPim5MessageList.so.5:_ZNK11MessageList4Core4Item15displayReceiverEv
libKPim5MessageList.so.5:_ZNK11MessageList4Core4Item16formattedMaxDateEv
libKPim5MessageList.so.5:_ZNK11MessageList4Core4Item16indexOfChildItemEPS1_
libKPim5MessageList.so.5:_ZNK11MessageList4Core4Item16senderOrReceiverEv
libKPim5MessageList.so.5:_ZNK11MessageList4Core4Item17statusDescriptionEv
libKPim5MessageList.so.5:_ZNK11MessageList4Core4Item18parentCollectionIdEv
libKPim5MessageList.so.5:_ZNK11MessageList4Core4Item19initialExpandStatusEv
libKPim5MessageList.so.5:_ZNK11MessageList4Core4Item23displaySenderOrReceiverEv
libKPim5MessageList.so.5:_ZNK11MessageList4Core4Item4dateEv
libKPim5MessageList.so.5:_ZNK11MessageList4Core4Item4sizeEv
libKPim5MessageList.so.5:_ZNK11MessageList4Core4Item4typeEv
libKPim5MessageList.so.5:_ZNK11MessageList4Core4Item6folderEv
libKPim5MessageList.so.5:_ZNK11MessageList4Core4Item6itemIdEv
libKPim5MessageList.so.5:_ZNK11MessageList4Core4Item6parentEv
libKPim5MessageList.so.5:_ZNK11MessageList4Core4Item6senderEv
libKPim5MessageList.so.5:_ZNK11MessageList4Core4Item6statusEv
libKPim5MessageList.so.5:_ZNK11MessageList4Core4Item7maxDateEv
libKPim5MessageList.so.5:_ZNK11MessageList4Core4Item7subjectEv
libKPim5MessageList.so.5:_ZNK11MessageList4Core4Item8receiverEv
libKPim5MessageList.so.5:_ZNK11MessageList4Core4Item9childItemEi
libKPim5MessageList.so.5:_ZNK11MessageList4Pane10isThreadedEv
libKPim5MessageList.so.5:_ZNK11MessageList4Pane10metaObjectEv
libKPim5MessageList.so.5:_ZNK11MessageList4Pane11PanePrivate22mapSelectionFromSourceERK14QItemSelection
libKPim5MessageList.so.5:_ZNK11MessageList4Pane11currentItemEv
libKPim5MessageList.so.5:_ZNK11MessageList4Pane13currentFolderEv
libKPim5MessageList.so.5:_ZNK11MessageList4Pane14currentMessageEv
libKPim5MessageList.so.5:_ZNK11MessageList4Pane14currentOptionsEv
libKPim5MessageList.so.5:_ZNK11MessageList4Pane14selectionEmptyEv
libKPim5MessageList.so.5:_ZNK11MessageList4Pane17getSelectionStatsER7QVectorIN7Akonadi4ItemEES5_Pbb
libKPim5MessageList.so.5:_ZNK11MessageList4Pane18searchEditHasFocusEv
libKPim5MessageList.so.5:_ZNK11MessageList4Pane19currentFilterStatusEv
libKPim5MessageList.so.5:_ZNK11MessageList4Pane22selectionAsMessageListEb
libKPim5MessageList.so.5:_ZNK11MessageList4Pane24selectionAsListMessageIdEb
libKPim5MessageList.so.5:_ZNK11MessageList4Pane24selectionAsPersistentSetEb
libKPim5MessageList.so.5:_ZNK11MessageList4Pane25currentFilterSearchStringEv
libKPim5MessageList.so.5:_ZNK11MessageList4Pane26currentThreadAsMessageListEv
libKPim5MessageList.so.5:_ZNK11MessageList4Pane26selectionAsMessageItemListEb
libKPim5MessageList.so.5:_ZNK11MessageList4Pane28currentThreadAsPersistentSetEv
libKPim5MessageList.so.5:_ZNK11MessageList4Pane28selectionAsMessageItemListIdEb
libKPim5MessageList.so.5:_ZNK11MessageList5Utils13ThemeComboBox10metaObjectEv
libKPim5MessageList.so.5:_ZNK11MessageList5Utils13ThemeComboBox12currentThemeEv
libKPim5MessageList.so.5:_ZNK11MessageList5Utils13ThemeComboBox18writeDefaultConfigEv
libKPim5MessageList.so.5:_ZNK11MessageList5Utils13ThemeComboBox23writeStorageModelConfigEPNS_4Core12StorageModelEb
libKPim5MessageList.so.5:_ZNK11MessageList5Utils13ThemeComboBox23writeStorageModelConfigERK7QStringb
libKPim5MessageList.so.5:_ZNK11MessageList5Utils17ThemeConfigButton10metaObjectEv
libKPim5MessageList.so.5:_ZNK11MessageList5Utils19AggregationComboBox10metaObjectEv
libKPim5MessageList.so.5:_ZNK11MessageList5Utils19AggregationComboBox18currentAggregationEv
libKPim5MessageList.so.5:_ZNK11MessageList5Utils19AggregationComboBox18writeDefaultConfigEv
libKPim5MessageList.so.5:_ZNK11MessageList5Utils19AggregationComboBox23writeStorageModelConfigEPNS_4Core12StorageModelEb
libKPim5MessageList.so.5:_ZNK11MessageList5Utils19AggregationComboBox23writeStorageModelConfigERK7QStringb
libKPim5MessageList.so.5:_ZNK11MessageList5Utils23AggregationConfigButton10metaObjectEv
libKPim5MessageList.so.5:_ZNK11MessageList6Widget10isThreadedEv
libKPim5MessageList.so.5:_ZNK11MessageList6Widget10metaObjectEv
libKPim5MessageList.so.5:_ZNK11MessageList6Widget11currentItemEv
libKPim5MessageList.so.5:_ZNK11MessageList6Widget13WidgetPrivate10itemForRowEi
libKPim5MessageList.so.5:_ZNK11MessageList6Widget13WidgetPrivate13messageForRowEi
libKPim5MessageList.so.5:_ZNK11MessageList6Widget13WidgetPrivate16selectionAsItemsEv
libKPim5MessageList.so.5:_ZNK11MessageList6Widget14currentMessageEv
libKPim5MessageList.so.5:_ZNK11MessageList6Widget14currentOptionsEv
libKPim5MessageList.so.5:_ZNK11MessageList6Widget14selectionEmptyEv
libKPim5MessageList.so.5:_ZNK11MessageList6Widget17currentCollectionEv
libKPim5MessageList.so.5:_ZNK11MessageList6Widget17getSelectionStatsER7QVectorIN7Akonadi4ItemEES5_Pbb
libKPim5MessageList.so.5:_ZNK11MessageList6Widget19currentFilterStatusEv
libKPim5MessageList.so.5:_ZNK11MessageList6Widget22selectionAsMessageListEb
libKPim5MessageList.so.5:_ZNK11MessageList6Widget24selectionAsListMessageIdEb
libKPim5MessageList.so.5:_ZNK11MessageList6Widget24selectionAsPersistentSetEb
libKPim5MessageList.so.5:_ZNK11MessageList6Widget25currentFilterSearchStringEv
libKPim5MessageList.so.5:_ZNK11MessageList6Widget26currentThreadAsMessageListEv
libKPim5MessageList.so.5:_ZNK11MessageList6Widget26selectionAsMessageItemListEb
libKPim5MessageList.so.5:_ZNK11MessageList6Widget28currentThreadAsPersistentSetEv
libKPim5MessageList.so.5:_ZNK11MessageList6Widget28selectionAsMessageItemListIdEb
libKPim5MessageList.so.5:_ZThn16_N11MessageList4Core11MessageItemD0Ev
libKPim5MessageList.so.5:_ZThn16_N11MessageList4Core11MessageItemD1Ev
libKPim5MessageList.so.5:_ZThn16_N11MessageList4Core15FilterSavedMenuD0Ev
libKPim5MessageList.so.5:_ZThn16_N11MessageList4Core15FilterSavedMenuD1Ev
libKPim5MessageList.so.5:_ZThn16_N11MessageList4Core15QuickSearchLineD0Ev
libKPim5MessageList.so.5:_ZThn16_N11MessageList4Core15QuickSearchLineD1Ev
libKPim5MessageList.so.5:_ZThn16_N11MessageList4Core16FilterNameDialogD0Ev
libKPim5MessageList.so.5:_ZThn16_N11MessageList4Core16FilterNameDialogD1Ev
libKPim5MessageList.so.5:_ZThn16_N11MessageList4Core16FilterNameWidgetD0Ev
libKPim5MessageList.so.5:_ZThn16_N11MessageList4Core16FilterNameWidgetD1Ev
libKPim5MessageList.so.5:_ZThn16_N11MessageList4Core16SearchLineStatusD0Ev
libKPim5MessageList.so.5:_ZThn16_N11MessageList4Core16SearchLineStatusD1Ev
libKPim5MessageList.so.5:_ZThn16_N11MessageList4Core16TabLockedWarningD0Ev
libKPim5MessageList.so.5:_ZThn16_N11MessageList4Core16TabLockedWarningD1Ev
libKPim5MessageList.so.5:_ZThn16_N11MessageList4Core18QuickSearchWarningD0Ev
libKPim5MessageList.so.5:_ZThn16_N11MessageList4Core18QuickSearchWarningD1Ev
libKPim5MessageList.so.5:_ZThn16_N11MessageList4Core22ConfigureFiltersDialogD0Ev
libKPim5MessageList.so.5:_ZThn16_N11MessageList4Core22ConfigureFiltersDialogD1Ev
libKPim5MessageList.so.5:_ZThn16_N11MessageList4Core22ConfigureFiltersWidgetD0Ev
libKPim5MessageList.so.5:_ZThn16_N11MessageList4Core22ConfigureFiltersWidgetD1Ev
libKPim5MessageList.so.5:_ZThn16_N11MessageList4Core31SearchCollectionIndexingWarningD0Ev
libKPim5MessageList.so.5:_ZThn16_N11MessageList4Core31SearchCollectionIndexingWarningD1Ev
libKPim5MessageList.so.5:_ZThn16_N11MessageList4PaneD0Ev
libKPim5MessageList.so.5:_ZThn16_N11MessageList4PaneD1Ev
libKPim5MessageList.so.5:_ZThn16_N11MessageList5Utils13ThemeComboBoxD0Ev
libKPim5MessageList.so.5:_ZThn16_N11MessageList5Utils13ThemeComboBoxD1Ev
libKPim5MessageList.so.5:_ZThn16_N11MessageList5Utils17ThemeConfigButtonD0Ev
libKPim5MessageList.so.5:_ZThn16_N11MessageList5Utils17ThemeConfigButtonD1Ev
libKPim5MessageList.so.5:_ZThn16_N11MessageList5Utils19AggregationComboBoxD0Ev
libKPim5MessageList.so.5:_ZThn16_N11MessageList5Utils19AggregationComboBoxD1Ev
libKPim5MessageList.so.5:_ZThn16_N11MessageList5Utils23AggregationConfigButtonD0Ev
libKPim5MessageList.so.5:_ZThn16_N11MessageList5Utils23AggregationConfigButtonD1Ev
libKPim5MessageList.so.5:_ZThn16_N11MessageList6WidgetD0Ev
libKPim5MessageList.so.5:_ZThn16_N11MessageList6WidgetD1Ev
libKPim5MessageList.so.5:_Zls6QDebugRKN11MessageList4Core6FilterE
libKPim5MessageViewer.so.5:_ZN13MessageViewer10HtmlWriter3endEv
libKPim5MessageViewer.so.5:_ZN13MessageViewer10HtmlWriter5beginEv
libKPim5MessageViewer.so.5:_ZN13MessageViewer10HtmlWriter5resetEv
libKPim5MessageViewer.so.5:_ZN13MessageViewer10HtmlWriter5writeERK7QString
libKPim5MessageViewer.so.5:_ZN13MessageViewer10HtmlWriter8setCodecERK10QByteArray
libKPim5MessageViewer.so.5:_ZN13MessageViewer10HtmlWriterC1Ev
libKPim5MessageViewer.so.5:_ZN13MessageViewer10HtmlWriterC2Ev
libKPim5MessageViewer.so.5:_ZN13MessageViewer10HtmlWriterD0Ev
libKPim5MessageViewer.so.5:_ZN13MessageViewer10HtmlWriterD1Ev
libKPim5MessageViewer.so.5:_ZN13MessageViewer10HtmlWriterD2Ev
libKPim5MessageViewer.so.5:_ZN13MessageViewer11DKIMManager11qt_metacallEN11QMetaObject4CallEiPPv
libKPim5MessageViewer.so.5:_ZN13MessageViewer11DKIMManager11qt_metacastEPKc
libKPim5MessageViewer.so.5:_ZN13MessageViewer11DKIMManager11recheckDKimERKN7Akonadi4ItemE
libKPim5MessageViewer.so.5:_ZN13MessageViewer11DKIMManager15clearInfoWidgetEv
libKPim5MessageViewer.so.5:_ZN13MessageViewer11DKIMManager4selfEv
libKPim5MessageViewer.so.5:_ZN13MessageViewer11DKIMManager6resultERKNS_21DKIMCheckSignatureJob20CheckSignatureResultEx
libKPim5MessageViewer.so.5:_ZN13MessageViewer11DKIMManager9checkDKimERK14QSharedPointerIN5KMime7MessageEE
libKPim5MessageViewer.so.5:_ZN13MessageViewer11DKIMManager9checkDKimERKN7Akonadi4ItemE
libKPim5MessageViewer.so.5:_ZN13MessageViewer11DKIMManager9clearInfoEv
libKPim5MessageViewer.so.5:_ZN13MessageViewer11DKIMManager9setPolicyERKNS_15DKIMCheckPolicyE
libKPim5MessageViewer.so.5:_ZN13MessageViewer11DKIMManagerC1EP7QObject
libKPim5MessageViewer.so.5:_ZN13MessageViewer11DKIMManagerC2EP7QObject
libKPim5MessageViewer.so.5:_ZN13MessageViewer11DKIMManagerD0Ev
libKPim5MessageViewer.so.5:_ZN13MessageViewer11DKIMManagerD1Ev
libKPim5MessageViewer.so.5:_ZN13MessageViewer11DKIMManagerD2Ev
libKPim5MessageViewer.so.5:_ZN13MessageViewer11EmptySource11setHtmlModeEN14MimeTreeParser4Util8HtmlModeERK5QListIS3_E
libKPim5MessageViewer.so.5:_ZN13MessageViewer11EmptySource13overrideCodecEv
libKPim5MessageViewer.so.5:_ZN13MessageViewer11EmptySource18setAllowDecryptionEb
libKPim5MessageViewer.so.5:_ZN13MessageViewer11EmptySource19createMessageHeaderEPN5KMime7MessageE
libKPim5MessageViewer.so.5:_ZN13MessageViewer11EmptySource24bodyPartFormatterFactoryEv
libKPim5MessageViewer.so.5:_ZN13MessageViewer11EmptySource6renderERK14QSharedPointerIN14MimeTreeParser11MessagePartEEb
libKPim5MessageViewer.so.5:_ZN13MessageViewer11EmptySourceC1Ev
libKPim5MessageViewer.so.5:_ZN13MessageViewer11EmptySourceC2Ev
libKPim5MessageViewer.so.5:_ZN13MessageViewer11EmptySourceD0Ev
libKPim5MessageViewer.so.5:_ZN13MessageViewer11EmptySourceD1Ev
libKPim5MessageViewer.so.5:_ZN13MessageViewer11EmptySourceD2Ev
libKPim5MessageViewer.so.5:_ZN13MessageViewer11HeaderStyle11setPrintingEb
libKPim5MessageViewer.so.5:_ZN13MessageViewer11HeaderStyle11setTopLevelEb
libKPim5MessageViewer.so.5:_ZN13MessageViewer11HeaderStyle12setVCardNameERK7QString
libKPim5MessageViewer.so.5:_ZN13MessageViewer11HeaderStyle13setAllowAsyncEb
libKPim5MessageViewer.so.5:_ZN13MessageViewer11HeaderStyle13setNodeHelperEPN14MimeTreeParser10NodeHelperE
libKPim5MessageViewer.so.5:_ZN13MessageViewer11HeaderStyle15setSourceObjectEP7QObject
libKPim5MessageViewer.so.5:_ZN13MessageViewer11HeaderStyle16setMessageStatusEN7Akonadi13MessageStatusE
libKPim5MessageViewer.so.5:_ZN13MessageViewer11HeaderStyle16setShowEmoticonsEb
libKPim5MessageViewer.so.5:_ZN13MessageViewer11HeaderStyle17setAttachmentHtmlERK7QString
libKPim5MessageViewer.so.5:_ZN13MessageViewer11HeaderStyle17setHeaderStrategyEPKNS_14HeaderStrategyE
libKPim5MessageViewer.so.5:_ZN13MessageViewer11HeaderStyle18setReadOnlyMessageEb
libKPim5MessageViewer.so.5:_ZN13MessageViewer11HeaderStyle8setThemeERKN13GrantleeTheme5ThemeE
libKPim5MessageViewer.so.5:_ZN13MessageViewer11HeaderStyleC1Ev
libKPim5MessageViewer.so.5:_ZN13MessageViewer11HeaderStyleC2Ev
libKPim5MessageViewer.so.5:_ZN13MessageViewer11HeaderStyleD0Ev
libKPim5MessageViewer.so.5:_ZN13MessageViewer11HeaderStyleD1Ev
libKPim5MessageViewer.so.5:_ZN13MessageViewer11HeaderStyleD2Ev
libKPim5MessageViewer.so.5:_ZN13MessageViewer12ViewerPlugin11qt_metacallEN11QMetaObject4CallEiPPv
libKPim5MessageViewer.so.5:_ZN13MessageViewer12ViewerPlugin11qt_metacastEPKc
libKPim5MessageViewer.so.5:_ZN13MessageViewer12ViewerPlugin12setIsEnabledEb
libKPim5MessageViewer.so.5:_ZN13MessageViewer12ViewerPlugin13configChangedEv
libKPim5MessageViewer.so.5:_ZN13MessageViewer12ViewerPlugin19showConfigureDialogEP7QWidget
libKPim5MessageViewer.so.5:_ZN13MessageViewer12ViewerPluginC1EP7QObject
libKPim5MessageViewer.so.5:_ZN13MessageViewer12ViewerPluginC2EP7QObject
libKPim5MessageViewer.so.5:_ZN13MessageViewer12ViewerPluginD0Ev
libKPim5MessageViewer.so.5:_ZN13MessageViewer12ViewerPluginD1Ev
libKPim5MessageViewer.so.5:_ZN13MessageViewer12ViewerPluginD2Ev
libKPim5MessageViewer.so.5:_ZN13MessageViewer13CSSHelperBase11setBodyFontERK5QFont
libKPim5MessageViewer.so.5:_ZN13MessageViewer13CSSHelperBase12setPrintFontERK5QFont
libKPim5MessageViewer.so.5:_ZN13MessageViewer13CSSHelperBase15setHeaderPluginEPKNS_17HeaderStylePluginE
libKPim5MessageViewer.so.5:_ZN13MessageViewer13CSSHelperBase20recalculatePGPColorsEv
libKPim5MessageViewer.so.5:_ZN13MessageViewer13CSSHelperBaseC1EPK12QPaintDevice
libKPim5MessageViewer.so.5:_ZN13MessageViewer13CSSHelperBaseC2EPK12QPaintDevice
libKPim5MessageViewer.so.5:_ZN13MessageViewer13CSSHelperBaseD0Ev
libKPim5MessageViewer.so.5:_ZN13MessageViewer13CSSHelperBaseD1Ev
libKPim5MessageViewer.so.5:_ZN13MessageViewer13CSSHelperBaseD2Ev
libKPim5MessageViewer.so.5:_ZN13MessageViewer13DKIMKeyRecord10setKeyTypeERK7QString
libKPim5MessageViewer.so.5:_ZN13MessageViewer13DKIMKeyRecord10setServiceERK7QString
libKPim5MessageViewer.so.5:_ZN13MessageViewer13DKIMKeyRecord10setVersionERK7QString
libKPim5MessageViewer.so.5:_ZN13MessageViewer13DKIMKeyRecord12setPublicKeyERK7QString
libKPim5MessageViewer.so.5:_ZN13MessageViewer13DKIMKeyRecord16setHashAlgorithmERK11QStringList
libKPim5MessageViewer.so.5:_ZN13MessageViewer13DKIMKeyRecord7setNoteERK7QString
libKPim5MessageViewer.so.5:_ZN13MessageViewer13DKIMKeyRecord8parseKeyERK7QString
libKPim5MessageViewer.so.5:_ZN13MessageViewer13DKIMKeyRecord8setFlagsERK11QStringList
libKPim5MessageViewer.so.5:_ZN13MessageViewer13DKIMKeyRecordC1Ev
libKPim5MessageViewer.so.5:_ZN13MessageViewer13DKIMKeyRecordC2Ev
libKPim5MessageViewer.so.5:_ZN13MessageViewer13IconNameCache8instanceEv
libKPim5MessageViewer.so.5:_ZN13MessageViewer13RenderContextD0Ev
libKPim5MessageViewer.so.5:_ZN13MessageViewer13RenderContextD1Ev
libKPim5MessageViewer.so.5:_ZN13MessageViewer13RenderContextD2Ev
libKPim5MessageViewer.so.5:_ZN13MessageViewer13ViewerPrivate10readConfigEv
libKPim5MessageViewer.so.5:_ZN13MessageViewer13ViewerPrivate10setMessageERK14QSharedPointerIN5KMime7MessageEEN14MimeTreeParser10UpdateModeE
libKPim5MessageViewer.so.5:_ZN13MessageViewer13ViewerPrivate10showReaderEPN5KMime7ContentEbRK7QString
libKPim5MessageViewer.so.5:_ZN13MessageViewer13ViewerPrivate10urlClickedERKN7Akonadi4ItemERK4QUrl
libKPim5MessageViewer.so.5:_ZN13MessageViewer13ViewerPrivate11exportToPdfERK7QString
libKPim5MessageViewer.so.5:_ZN13MessageViewer13ViewerPrivate11itemRemovedEv
libKPim5MessageViewer.so.5:_ZN13MessageViewer13ViewerPrivate11qt_metacallEN11QMetaObject4CallEiPPv
libKPim5MessageViewer.so.5:_ZN13MessageViewer13ViewerPrivate11qt_metacastEPKc
libKPim5MessageViewer.so.5:_ZN13MessageViewer13ViewerPrivate11setPrintingEb
libKPim5MessageViewer.so.5:_ZN13MessageViewer13ViewerPrivate11showMessageERK14QSharedPointerIN5KMime7MessageEERK7QString
libKPim5MessageViewer.so.5:_ZN13MessageViewer13ViewerPrivate11slotOpenUrlEv
libKPim5MessageViewer.so.5:_ZN13MessageViewer13ViewerPrivate11slotUrlCopyEv
libKPim5MessageViewer.so.5:_ZN13MessageViewer13ViewerPrivate11slotUrlOpenERK4QUrl
libKPim5MessageViewer.so.5:_ZN13MessageViewer13ViewerPrivate11writeConfigEb
libKPim5MessageViewer.so.5:_ZN13MessageViewer13ViewerPrivate11zoomChangedEd
libKPim5MessageViewer.so.5:_ZN13MessageViewer13ViewerPrivate12adjustLayoutEv
libKPim5MessageViewer.so.5:_ZN13MessageViewer13ViewerPrivate12parseContentEPN5KMime7ContentE
libKPim5MessageViewer.so.5:_ZN13MessageViewer13ViewerPrivate12printMessageERKN7Akonadi4ItemE
libKPim5MessageViewer.so.5:_ZN13MessageViewer13ViewerPrivate12replyMessageEPN5KMime7ContentEb
libKPim5MessageViewer.so.5:_ZN13MessageViewer13ViewerPrivate12slotUrlPopupERKN15WebEngineViewer16WebHitTestResultE
libKPim5MessageViewer.so.5:_ZN13MessageViewer13ViewerPrivate13createActionsEv
libKPim5MessageViewer.so.5:_ZN13MessageViewer13ViewerPrivate13createWidgetsEv
libKPim5MessageViewer.so.5:_ZN13MessageViewer13ViewerPrivate13executeRunnerERK4QUrl
libKPim5MessageViewer.so.5:_ZN13MessageViewer13ViewerPrivate13setPluginNameERK7QString
libKPim5MessageViewer.so.5:_ZN13MessageViewer13ViewerPrivate13setZoomFactorEd
libKPim5MessageViewer.so.5:_ZN13MessageViewer13ViewerPrivate13slotItemMovedERKN7Akonadi4ItemERKNS1_10CollectionES7_
libKPim5MessageViewer.so.5:_ZN13MessageViewer13ViewerPrivate13slotSpeakTextEv
libKPim5MessageViewer.so.5:_ZN13MessageViewer13ViewerPrivate13updatePaletteEv
libKPim5MessageViewer.so.5:_ZN13MessageViewer13ViewerPrivate14applyZoomValueEdb
libKPim5MessageViewer.so.5:_ZN13MessageViewer13ViewerPrivate14attachmentCopyERK7QVectorIPN5KMime7ContentEE
libKPim5MessageViewer.so.5:_ZN13MessageViewer13ViewerPrivate14attachmentHtmlEv
libKPim5MessageViewer.so.5:_ZN13MessageViewer13ViewerPrivate14attachmentOpenEPN5KMime7ContentE
libKPim5MessageViewer.so.5:_ZN13MessageViewer13ViewerPrivate14attachmentViewEPN5KMime7ContentE
libKPim5MessageViewer.so.5:_ZN13MessageViewer13ViewerPrivate14displayMessageEv
libKPim5MessageViewer.so.5:_ZN13MessageViewer13ViewerPrivate14dkimViewerMenuEv
libKPim5MessageViewer.so.5:_ZN13MessageViewer13ViewerPrivate14initHtmlWidgetEv
libKPim5MessageViewer.so.5:_ZN13MessageViewer13ViewerPrivate14openAttachmentEPN5KMime7ContentERK4QUrl
libKPim5MessageViewer.so.5:_ZN13MessageViewer13ViewerPrivate14replyMessageToERK14QSharedPointerIN5KMime7MessageEEb
libKPim5MessageViewer.so.5:_ZN13MessageViewer13ViewerPrivate14scrollToAnchorERK7QString
libKPim5MessageViewer.so.5:_ZN13MessageViewer13ViewerPrivate14setMessageItemERKN7Akonadi4ItemEN14MimeTreeParser10UpdateModeEb
libKPim5MessageViewer.so.5:_ZN13MessageViewer13ViewerPrivate14setMessagePartEPN5KMime7ContentE
libKPim5MessageViewer.so.5:_ZN13MessageViewer13ViewerPrivate14slotLevelQuoteEi
libKPim5MessageViewer.so.5:_ZN13MessageViewer13ViewerPrivate14slotUrlBlockedERK4QUrl
libKPim5MessageViewer.so.5:_ZN13MessageViewer13ViewerPrivate15getServiceOfferEPN5KMime7ContentE
libKPim5MessageViewer.so.5:_ZN13MessageViewer13ViewerPrivate15itemFetchResultEP4KJob
libKPim5MessageViewer.so.5:_ZN13MessageViewer13ViewerPrivate15setUseFixedFontEb
libKPim5MessageViewer.so.5:_ZN13MessageViewer13ViewerPrivate15showContextMenuEPN5KMime7ContentERK6QPoint
libKPim5MessageViewer.so.5:_ZN13MessageViewer13ViewerPrivate15showNextMessageEv
libKPim5MessageViewer.so.5:_ZN13MessageViewer13ViewerPrivate15slotItemChangedERKN7Akonadi4ItemERK4QSetI10QByteArrayE
libKPim5MessageViewer.so.5:_ZN13MessageViewer13ViewerPrivate15slotSaveMessageEv
libKPim5MessageViewer.so.5:_ZN13MessageViewer13ViewerPrivate15slotSetEncodingEv
libKPim5MessageViewer.so.5:_ZN13MessageViewer13ViewerPrivate15slotZoomChangedEd
libKPim5MessageViewer.so.5:_ZN13MessageViewer13ViewerPrivate15updateReaderWinEv
libKPim5MessageViewer.so.5:_ZN13MessageViewer13ViewerPrivate16checkPhishingUrlEv
libKPim5MessageViewer.so.5:_ZN13MessageViewer13ViewerPrivate16deleteAttachmentEPN5KMime7ContentEb
libKPim5MessageViewer.so.5:_ZN13MessageViewer13ViewerPrivate16displayPopupMenuERKN7Akonadi4ItemERKN15WebEngineViewer16WebHitTestResultERK6QPoint
libKPim5MessageViewer.so.5:_ZN13MessageViewer13ViewerPrivate16goResourceOnlineEv
libKPim5MessageViewer.so.5:_ZN13MessageViewer13ViewerPrivate16hasMultiMessagesEb
libKPim5MessageViewer.so.5:_ZN13MessageViewer13ViewerPrivate16printingFinishedEv
libKPim5MessageViewer.so.5:_ZN13MessageViewer13ViewerPrivate16showHideMimeTreeEv
libKPim5MessageViewer.so.5:_ZN13MessageViewer13ViewerPrivate16slotPrintMessageEv
libKPim5MessageViewer.so.5:_ZN13MessageViewer13ViewerPrivate16slotPrintPreviewEv
libKPim5MessageViewer.so.5:_ZN13MessageViewer13ViewerPrivate16slotStyleChangedEPNS_17HeaderStylePluginE
libKPim5MessageViewer.so.5:_ZN13MessageViewer13ViewerPrivate16slotStyleUpdatedEv
libKPim5MessageViewer.so.5:_ZN13MessageViewer13ViewerPrivate17assignMessageItemERKN7Akonadi4ItemE
libKPim5MessageViewer.so.5:_ZN13MessageViewer13ViewerPrivate17changeDisplayMailENS_6Viewer20DisplayFormatMessageEb
libKPim5MessageViewer.so.5:_ZN13MessageViewer13ViewerPrivate17displaySplashPageERK7QString
libKPim5MessageViewer.so.5:_ZN13MessageViewer13ViewerPrivate17displaySplashPageERK7QStringRK5QHashIS1_8QVariantERK10QByteArray
libKPim5MessageViewer.so.5:_ZN13MessageViewer13ViewerPrivate17findContentByTypeEPN5KMime7ContentERK10QByteArray
libKPim5MessageViewer.so.5:_ZN13MessageViewer13ViewerPrivate17recreateCssHelperEv
libKPim5MessageViewer.so.5:_ZN13MessageViewer13ViewerPrivate17replyMessageToAllEPN5KMime7ContentE
libKPim5MessageViewer.so.5:_ZN13MessageViewer13ViewerPrivate17requestConfigSyncEv
libKPim5MessageViewer.so.5:_ZN13MessageViewer13ViewerPrivate17setFolderIdentityEj
libKPim5MessageViewer.so.5:_ZN13MessageViewer13ViewerPrivate17slotDelayedResizeEv
libKPim5MessageViewer.so.5:_ZN13MessageViewer13ViewerPrivate17slotOpenInBrowserEv
libKPim5MessageViewer.so.5:_ZN13MessageViewer13ViewerPrivate18attachmentOpenWithEPN5KMime7ContentERK28QExplicitlySharedDataPointerI8KServiceE
libKPim5MessageViewer.so.5:_ZN13MessageViewer13ViewerPrivate18createOpenWithMenuEP5QMenuRK7QStringb
libKPim5MessageViewer.so.5:_ZN13MessageViewer13ViewerPrivate18isAutocryptEnabledEPN5KMime7MessageE
libKPim5MessageViewer.so.5:_ZN13MessageViewer13ViewerPrivate18itemModifiedResultEP4KJob
libKPim5MessageViewer.so.5:_ZN13MessageViewer13ViewerPrivate18makeResourceOnlineENS_6Viewer18ResourceOnlineModeE
libKPim5MessageViewer.so.5:_ZN13MessageViewer13ViewerPrivate18moveMessageToTrashEv
libKPim5MessageViewer.so.5:_ZN13MessageViewer13ViewerPrivate18scrollToAttachmentEPN5KMime7ContentE
libKPim5MessageViewer.so.5:_ZN13MessageViewer13ViewerPrivate18setIdentityManagerEPN19KIdentityManagement15IdentityManagerE
libKPim5MessageViewer.so.5:_ZN13MessageViewer13ViewerPrivate18setMessageInternalERK14QSharedPointerIN5KMime7MessageEEN14MimeTreeParser10UpdateModeE
libKPim5MessageViewer.so.5:_ZN13MessageViewer13ViewerPrivate18slotActivatePluginEPNS_21ViewerPluginInterfaceE
libKPim5MessageViewer.so.5:_ZN13MessageViewer13ViewerPrivate18slotAddToWhiteListEv
libKPim5MessageViewer.so.5:_ZN13MessageViewer13ViewerPrivate18slotAttachmentCopyEv
libKPim5MessageViewer.so.5:_ZN13MessageViewer13ViewerPrivate18slotAttachmentOpenEv
libKPim5MessageViewer.so.5:_ZN13MessageViewer13ViewerPrivate18slotAttachmentViewEv
libKPim5MessageViewer.so.5:_ZN13MessageViewer13ViewerPrivate18slotModifyItemDoneEP4KJob
libKPim5MessageViewer.so.5:_ZN13MessageViewer13ViewerPrivate18slotOpenWithActionEP7QAction
libKPim5MessageViewer.so.5:_ZN13MessageViewer13ViewerPrivate18slotOpenWithDialogEv
libKPim5MessageViewer.so.5:_ZN13MessageViewer13ViewerPrivate18slotRefreshMessageERKN7Akonadi4ItemE
libKPim5MessageViewer.so.5:_ZN13MessageViewer13ViewerPrivate18slotToggleHtmlModeEv
libKPim5MessageViewer.so.5:_ZN13MessageViewer13ViewerPrivate18writeMessageHeaderEPN5KMime7MessageEPNS1_7ContentEb
libKPim5MessageViewer.so.5:_ZN13MessageViewer13ViewerPrivate19printPreviewMessageERKN7Akonadi4ItemE
libKPim5MessageViewer.so.5:_ZN13MessageViewer13ViewerPrivate19setOverrideEncodingERK7QString
libKPim5MessageViewer.so.5:_ZN13MessageViewer13ViewerPrivate19showAttachmentPopupEPN5KMime7ContentERK7QStringRK6QPoint
libKPim5MessageViewer.so.5:_ZN13MessageViewer13ViewerPrivate19showPreviousMessageEv
libKPim5MessageViewer.so.5:_ZN13MessageViewer13ViewerPrivate19slotHideAttachmentsEv
libKPim5MessageViewer.so.5:_ZN13MessageViewer13ViewerPrivate19slotMessageRenderedEv
libKPim5MessageViewer.so.5:_ZN13MessageViewer13ViewerPrivate19slotSettingsChangedEv
libKPim5MessageViewer.so.5:_ZN13MessageViewer13ViewerPrivate19slotToggleEmoticonsEv
libKPim5MessageViewer.so.5:_ZN13MessageViewer13ViewerPrivate19slotToggleFixedFontEv
libKPim5MessageViewer.so.5:_ZN13MessageViewer13ViewerPrivate20attachmentPropertiesEPN5KMime7ContentE
libKPim5MessageViewer.so.5:_ZN13MessageViewer13ViewerPrivate20enableMessageDisplayEv
libKPim5MessageViewer.so.5:_ZN13MessageViewer13ViewerPrivate20replyMessageToAuthorEPN5KMime7ContentE
libKPim5MessageViewer.so.5:_ZN13MessageViewer13ViewerPrivate20saveRelativePositionEv
libKPim5MessageViewer.so.5:_ZN13MessageViewer13ViewerPrivate20setWebViewZoomFactorEd
libKPim5MessageViewer.so.5:_ZN13MessageViewer13ViewerPrivate20showStatusBarMessageERK7QString
libKPim5MessageViewer.so.5:_ZN13MessageViewer13ViewerPrivate20slotAttachmentDeleteEv
libKPim5MessageViewer.so.5:_ZN13MessageViewer13ViewerPrivate20slotAttachmentSaveAsEv
libKPim5MessageViewer.so.5:_ZN13MessageViewer13ViewerPrivate20slotCopySelectedTextEv
libKPim5MessageViewer.so.5:_ZN13MessageViewer13ViewerPrivate20slotHandleAttachmentEi
libKPim5MessageViewer.so.5:_ZN13MessageViewer13ViewerPrivate20slotMimePartSelectedERK11QModelIndex
libKPim5MessageViewer.so.5:_ZN13MessageViewer13ViewerPrivate20slotSmartAttachmentsEv
libKPim5MessageViewer.so.5:_ZN13MessageViewer13ViewerPrivate20slotWheelZoomChangedEi
libKPim5MessageViewer.so.5:_ZN13MessageViewer13ViewerPrivate21adaptHtmlHeadSettingsEv
libKPim5MessageViewer.so.5:_ZN13MessageViewer13ViewerPrivate21attachmentViewMessageERK14QSharedPointerIN5KMime7MessageEE
libKPim5MessageViewer.so.5:_ZN13MessageViewer13ViewerPrivate21setAttachmentStrategyEPKNS_18AttachmentStrategyE
libKPim5MessageViewer.so.5:_ZN13MessageViewer13ViewerPrivate21setHtmlLoadExtDefaultEb
libKPim5MessageViewer.so.5:_ZN13MessageViewer13ViewerPrivate21slotAttachmentSaveAllEv
libKPim5MessageViewer.so.5:_ZN13MessageViewer13ViewerPrivate21slotCopyImageLocationEv
libKPim5MessageViewer.so.5:_ZN13MessageViewer13ViewerPrivate21slotDelayPrintPreviewEv
libKPim5MessageViewer.so.5:_ZN13MessageViewer13ViewerPrivate21slotHandlePagePrintedEb
libKPim5MessageViewer.so.5:_ZN13MessageViewer13ViewerPrivate21slotIconicAttachmentsEv
libKPim5MessageViewer.so.5:_ZN13MessageViewer13ViewerPrivate21slotInlineAttachmentsEv
libKPim5MessageViewer.so.5:_ZN13MessageViewer13ViewerPrivate21slotMessageIsNotAScamEv
libKPim5MessageViewer.so.5:_ZN13MessageViewer13ViewerPrivate21slotMessageMayBeAScamEv
libKPim5MessageViewer.so.5:_ZN13MessageViewer13ViewerPrivate21slotShowMessageSourceEv
libKPim5MessageViewer.so.5:_ZN13MessageViewer13ViewerPrivate21updateColorFromSchemeEv
libKPim5MessageViewer.so.5:_ZN13MessageViewer13ViewerPrivate22pageIsScrolledToBottomEb
libKPim5MessageViewer.so.5:_ZN13MessageViewer13ViewerPrivate22setHtmlLoadExtOverrideEb
libKPim5MessageViewer.so.5:_ZN13MessageViewer13ViewerPrivate22slotAttachmentOpenWithEv
libKPim5MessageViewer.so.5:_ZN13MessageViewer13ViewerPrivate22slotCheckedUrlFinishedERK4QUrlN15WebEngineViewer20CheckPhishingUrlUtil9UrlStatusE
libKPim5MessageViewer.so.5:_ZN13MessageViewer13ViewerPrivate22slotGeneralFontChangedEv
libKPim5MessageViewer.so.5:_ZN13MessageViewer13ViewerPrivate22slotServiceUrlSelectedEN9PimCommon22ShareServiceUrlManager11ServiceTypeE
libKPim5MessageViewer.so.5:_ZN13MessageViewer13ViewerPrivate22slotToggleMimePartTreeEv
libKPim5MessageViewer.so.5:_ZN13MessageViewer13ViewerPrivate22viewerPluginActionListE6QFlagsINS_21ViewerPluginInterface19SpecificFeatureTypeEE
libKPim5MessageViewer.so.5:_ZN13MessageViewer13ViewerPrivate22viewerSelectionChangedEv
libKPim5MessageViewer.so.5:_ZN13MessageViewer13ViewerPrivate23prepareHandleAttachmentEPN5KMime7ContentE
libKPim5MessageViewer.so.5:_ZN13MessageViewer13ViewerPrivate23readGlobalOverrideCodecEv
libKPim5MessageViewer.so.5:_ZN13MessageViewer13ViewerPrivate23resetStateForNewMessageEv
libKPim5MessageViewer.so.5:_ZN13MessageViewer13ViewerPrivate23setShowSignatureDetailsEb
libKPim5MessageViewer.so.5:_ZN13MessageViewer13ViewerPrivate23slotPdfPrintingFinishedERK7QStringb
libKPim5MessageViewer.so.5:_ZN13MessageViewer13ViewerPrivate24setShowEncryptionDetailsEb
libKPim5MessageViewer.so.5:_ZN13MessageViewer13ViewerPrivate24slotAttachmentPropertiesEv
libKPim5MessageViewer.so.5:_ZN13MessageViewer13ViewerPrivate24slotExportHtmlPageFailedEv
libKPim5MessageViewer.so.5:_ZN13MessageViewer13ViewerPrivate24slotShowDevelopmentToolsEv
libKPim5MessageViewer.so.5:_ZN13MessageViewer13ViewerPrivate24urlIsAMalwareButContinueEv
libKPim5MessageViewer.so.5:_ZN13MessageViewer13ViewerPrivate25initializeColorFromSchemeEv
libKPim5MessageViewer.so.5:_ZN13MessageViewer13ViewerPrivate25setPrintElementBackgroundEb
libKPim5MessageViewer.so.5:_ZN13MessageViewer13ViewerPrivate25showSavedFileFolderWidgetERK5QListI4QUrlENS_25OpenSavedFileFolderWidget8FileTypeE
libKPim5MessageViewer.so.5:_ZN13MessageViewer13ViewerPrivate25slotExportHtmlPageSuccessERK7QString
libKPim5MessageViewer.so.5:_ZN13MessageViewer13ViewerPrivate25slotHeaderOnlyAttachmentsEv
libKPim5MessageViewer.so.5:_ZN13MessageViewer13ViewerPrivate25slotLoadExternalReferenceEv
libKPim5MessageViewer.so.5:_ZN13MessageViewer13ViewerPrivate26setDecryptMessageOverwriteEb
libKPim5MessageViewer.so.5:_ZN13MessageViewer13ViewerPrivate27actionForAttachmentStrategyEPKNS_18AttachmentStrategyE
libKPim5MessageViewer.so.5:_ZN13MessageViewer13ViewerPrivate28slotSaveMessageDisplayFormatEv
libKPim5MessageViewer.so.5:_ZN13MessageViewer13ViewerPrivate29saveMainFrameScreenshotInFileERK7QString
libKPim5MessageViewer.so.5:_ZN13MessageViewer13ViewerPrivate29slotResetMessageDisplayFormatEv
libKPim5MessageViewer.so.5:_ZN13MessageViewer13ViewerPrivate29updateShowMultiMessagesButtonEbb
libKPim5MessageViewer.so.5:_ZN13MessageViewer13ViewerPrivate32executeCustomScriptsAfterLoadingEv
libKPim5MessageViewer.so.5:_ZN13MessageViewer13ViewerPrivate32setDisplayFormatMessageOverwriteENS_6Viewer20DisplayFormatMessageE
libKPim5MessageViewer.so.5:_ZN13MessageViewer13ViewerPrivate32slotMimeTreeContextMenuRequestedERK6QPoint
libKPim5MessageViewer.so.5:_ZN13MessageViewer13ViewerPrivate32slotOpenWithActionCurrentContentEP7QAction
libKPim5MessageViewer.so.5:_ZN13MessageViewer13ViewerPrivate32slotOpenWithDialogCurrentContentEv
libKPim5MessageViewer.so.5:_ZN13MessageViewer13ViewerPrivate6updateEN14MimeTreeParser10UpdateModeE
libKPim5MessageViewer.so.5:_ZN13MessageViewer13ViewerPrivate8goOnlineEv
libKPim5MessageViewer.so.5:_ZN13MessageViewer13ViewerPrivate8slotFindEv
libKPim5MessageViewer.so.5:_ZN13MessageViewer13ViewerPrivate9popupMenuERKN7Akonadi4ItemERK4QUrlS7_RK6QPoint
libKPim5MessageViewer.so.5:_ZN13MessageViewer13ViewerPrivate9selectAllEv
libKPim5MessageViewer.so.5:_ZN13MessageViewer13ViewerPrivate9slotClearEv
libKPim5MessageViewer.so.5:_ZN13MessageViewer13ViewerPrivate9slotUrlOnERK7QString
libKPim5MessageViewer.so.5:_ZN13MessageViewer13ViewerPrivateC1EPNS_6ViewerEP7QWidgetP17KActionCollection
libKPim5MessageViewer.so.5:_ZN13MessageViewer13ViewerPrivateC2EPNS_6ViewerEP7QWidgetP17KActionCollection
libKPim5MessageViewer.so.5:_ZN13MessageViewer13ViewerPrivateD0Ev
libKPim5MessageViewer.so.5:_ZN13MessageViewer13ViewerPrivateD1Ev
libKPim5MessageViewer.so.5:_ZN13MessageViewer13ViewerPrivateD2Ev
libKPim5MessageViewer.so.5:_ZN13MessageViewer14DKIMManagerKey11qt_metacallEN11QMetaObject4CallEiPPv
libKPim5MessageViewer.so.5:_ZN13MessageViewer14DKIMManagerKey11qt_metacastEPKc
libKPim5MessageViewer.so.5:_ZN13MessageViewer14DKIMManagerKey14updateLastUsedERK7QStringS3_
libKPim5MessageViewer.so.5:_ZN13MessageViewer14DKIMManagerKey4selfEv
libKPim5MessageViewer.so.5:_ZN13MessageViewer14DKIMManagerKey6addKeyERKNS_7KeyInfoE
libKPim5MessageViewer.so.5:_ZN13MessageViewer14DKIMManagerKey8keyValueERK7QStringS3_
libKPim5MessageViewer.so.5:_ZN13MessageViewer14DKIMManagerKey8loadKeysEv
libKPim5MessageViewer.so.5:_ZN13MessageViewer14DKIMManagerKey8saveKeysERK7QVectorINS_7KeyInfoEE
libKPim5MessageViewer.so.5:_ZN13MessageViewer14DKIMManagerKey8saveKeysEv
libKPim5MessageViewer.so.5:_ZN13MessageViewer14DKIMManagerKey9removeKeyERK7QString
libKPim5MessageViewer.so.5:_ZN13MessageViewer14DKIMManagerKeyC1EP7QObject
libKPim5MessageViewer.so.5:_ZN13MessageViewer14DKIMManagerKeyC2EP7QObject
libKPim5MessageViewer.so.5:_ZN13MessageViewer14DKIMManagerKeyD0Ev
libKPim5MessageViewer.so.5:_ZN13MessageViewer14DKIMManagerKeyD1Ev
libKPim5MessageViewer.so.5:_ZN13MessageViewer14DKIMManagerKeyD2Ev
libKPim5MessageViewer.so.5:_ZN13MessageViewer14DKIMRuleDialog10readConfigEv
libKPim5MessageViewer.so.5:_ZN13MessageViewer14DKIMRuleDialog11qt_metacallEN11QMetaObject4CallEiPPv
libKPim5MessageViewer.so.5:_ZN13MessageViewer14DKIMRuleDialog11qt_metacastEPKc
libKPim5MessageViewer.so.5:_ZN13MessageViewer14DKIMRuleDialog11writeConfigEv
libKPim5MessageViewer.so.5:_ZN13MessageViewer14DKIMRuleDialog8loadRuleERKNS_8DKIMRuleE
libKPim5MessageViewer.so.5:_ZN13MessageViewer14DKIMRuleDialogC1EP7QWidget
libKPim5MessageViewer.so.5:_ZN13MessageViewer14DKIMRuleDialogC2EP7QWidget
libKPim5MessageViewer.so.5:_ZN13MessageViewer14DKIMRuleDialogD0Ev
libKPim5MessageViewer.so.5:_ZN13MessageViewer14DKIMRuleDialogD1Ev
libKPim5MessageViewer.so.5:_ZN13MessageViewer14DKIMRuleDialogD2Ev
libKPim5MessageViewer.so.5:_ZN13MessageViewer14DKIMRuleWidget11qt_metacallEN11QMetaObject4CallEiPPv
libKPim5MessageViewer.so.5:_ZN13MessageViewer14DKIMRuleWidget11qt_metacastEPKc
libKPim5MessageViewer.so.5:_ZN13MessageViewer14DKIMRuleWidget14updateOkButtonEv
libKPim5MessageViewer.so.5:_ZN13MessageViewer14DKIMRuleWidget23updateOkButtonRequestedEb
libKPim5MessageViewer.so.5:_ZN13MessageViewer14DKIMRuleWidget8loadRuleERKNS_8DKIMRuleE
libKPim5MessageViewer.so.5:_ZN13MessageViewer14DKIMRuleWidgetC1EP7QWidget
libKPim5MessageViewer.so.5:_ZN13MessageViewer14DKIMRuleWidgetC2EP7QWidget
libKPim5MessageViewer.so.5:_ZN13MessageViewer14DKIMRuleWidgetD0Ev
libKPim5MessageViewer.so.5:_ZN13MessageViewer14DKIMRuleWidgetD1Ev
libKPim5MessageViewer.so.5:_ZN13MessageViewer14DKIMRuleWidgetD2Ev
libKPim5MessageViewer.so.5:_ZN13MessageViewer14DKIMViewerMenu11qt_metacallEN11QMetaObject4CallEiPPv
libKPim5MessageViewer.so.5:_ZN13MessageViewer14DKIMViewerMenu11qt_metacastEPKc
libKPim5MessageViewer.so.5:_ZN13MessageViewer14DKIMViewerMenu13showDkimRulesEv
libKPim5MessageViewer.so.5:_ZN13MessageViewer14DKIMViewerMenu13updateDkimKeyEv
libKPim5MessageViewer.so.5:_ZN13MessageViewer14DKIMViewerMenu16recheckSignatureEv
libKPim5MessageViewer.so.5:_ZN13MessageViewer14DKIMViewerMenu26setEnableUpdateDkimKeyMenuEb
libKPim5MessageViewer.so.5:_ZN13MessageViewer14DKIMViewerMenuC1EP7QObject
libKPim5MessageViewer.so.5:_ZN13MessageViewer14DKIMViewerMenuC2EP7QObject
libKPim5MessageViewer.so.5:_ZN13MessageViewer14DKIMViewerMenuD0Ev
libKPim5MessageViewer.so.5:_ZN13MessageViewer14DKIMViewerMenuD1Ev
libKPim5MessageViewer.so.5:_ZN13MessageViewer14DKIMViewerMenuD2Ev
libKPim5MessageViewer.so.5:_ZN13MessageViewer14DKIMWidgetInfo11qt_metacallEN11QMetaObject4CallEiPPv
libKPim5MessageViewer.so.5:_ZN13MessageViewer14DKIMWidgetInfo11qt_metacastEPKc
libKPim5MessageViewer.so.5:_ZN13MessageViewer14DKIMWidgetInfo16setCurrentItemIdEx
libKPim5MessageViewer.so.5:_ZN13MessageViewer14DKIMWidgetInfo5clearEv
libKPim5MessageViewer.so.5:_ZN13MessageViewer14DKIMWidgetInfo5eventEP6QEvent
libKPim5MessageViewer.so.5:_ZN13MessageViewer14DKIMWidgetInfo9setResultERKNS_21DKIMCheckSignatureJob20CheckSignatureResultEx
libKPim5MessageViewer.so.5:_ZN13MessageViewer14DKIMWidgetInfoC1EP7QWidget
libKPim5MessageViewer.so.5:_ZN13MessageViewer14DKIMWidgetInfoC2EP7QWidget
libKPim5MessageViewer.so.5:_ZN13MessageViewer14DKIMWidgetInfoD0Ev
libKPim5MessageViewer.so.5:_ZN13MessageViewer14DKIMWidgetInfoD1Ev
libKPim5MessageViewer.so.5:_ZN13MessageViewer14DKIMWidgetInfoD2Ev
libKPim5MessageViewer.so.5:_ZN13MessageViewer14DMARCPolicyJob11qt_metacallEN11QMetaObject4CallEiPPv
libKPim5MessageViewer.so.5:_ZN13MessageViewer14DMARCPolicyJob11qt_metacastEPKc
libKPim5MessageViewer.so.5:_ZN13MessageViewer14DMARCPolicyJob14checkSubDomainERK7QString
libKPim5MessageViewer.so.5:_ZN13MessageViewer14DMARCPolicyJob15setEmailAddressERK7QString
libKPim5MessageViewer.so.5:_ZN13MessageViewer14DMARCPolicyJob15slotCheckDomainERK5QListI10QByteArrayERK7QString
libKPim5MessageViewer.so.5:_ZN13MessageViewer14DMARCPolicyJob18slotCheckSubDomainERK5QListI10QByteArrayERK7QString
libKPim5MessageViewer.so.5:_ZN13MessageViewer14DMARCPolicyJob5startEv
libKPim5MessageViewer.so.5:_ZN13MessageViewer14DMARCPolicyJob6resultERKNS0_11DMARCResultERK7QString
libKPim5MessageViewer.so.5:_ZN13MessageViewer14DMARCPolicyJobC1EP7QObject
libKPim5MessageViewer.so.5:_ZN13MessageViewer14DMARCPolicyJobC2EP7QObject
libKPim5MessageViewer.so.5:_ZN13MessageViewer14DMARCPolicyJobD0Ev
libKPim5MessageViewer.so.5:_ZN13MessageViewer14DMARCPolicyJobD1Ev
libKPim5MessageViewer.so.5:_ZN13MessageViewer14DMARCPolicyJobD2Ev
libKPim5MessageViewer.so.5:_ZN13MessageViewer14DMARCRecordJob11qt_metacallEN11QMetaObject4CallEiPPv
libKPim5MessageViewer.so.5:_ZN13MessageViewer14DMARCRecordJob11qt_metacastEPKc
libKPim5MessageViewer.so.5:_ZN13MessageViewer14DMARCRecordJob13resolvDnsDoneEv
libKPim5MessageViewer.so.5:_ZN13MessageViewer14DMARCRecordJob13setDomainNameERK7QString
libKPim5MessageViewer.so.5:_ZN13MessageViewer14DMARCRecordJob5errorERK7QStringS3_
libKPim5MessageViewer.so.5:_ZN13MessageViewer14DMARCRecordJob5startEv
libKPim5MessageViewer.so.5:_ZN13MessageViewer14DMARCRecordJob7successERK5QListI10QByteArrayERK7QString
libKPim5MessageViewer.so.5:_ZN13MessageViewer14DMARCRecordJobC1EP7QObject
libKPim5MessageViewer.so.5:_ZN13MessageViewer14DMARCRecordJobC2EP7QObject
libKPim5MessageViewer.so.5:_ZN13MessageViewer14DMARCRecordJobD0Ev
libKPim5MessageViewer.so.5:_ZN13MessageViewer14DMARCRecordJobD1Ev
libKPim5MessageViewer.so.5:_ZN13MessageViewer14DMARCRecordJobD2Ev
libKPim5MessageViewer.so.5:_ZN13MessageViewer14FileHtmlWriter12setExtraHeadERK7QString
libKPim5MessageViewer.so.5:_ZN13MessageViewer14FileHtmlWriter12setStyleBodyERK7QString
libKPim5MessageViewer.so.5:_ZN13MessageViewer14FileHtmlWriter3endEv
libKPim5MessageViewer.so.5:_ZN13MessageViewer14FileHtmlWriter5beginEv
libKPim5MessageViewer.so.5:_ZN13MessageViewer14FileHtmlWriter5resetEv
libKPim5MessageViewer.so.5:_ZN13MessageViewer14FileHtmlWriter9embedPartERK10QByteArrayRK7QString
libKPim5MessageViewer.so.5:_ZN13MessageViewer14FileHtmlWriterC1ERK7QString
libKPim5MessageViewer.so.5:_ZN13MessageViewer14FileHtmlWriterC2ERK7QString
libKPim5MessageViewer.so.5:_ZN13MessageViewer14FileHtmlWriterD0Ev
libKPim5MessageViewer.so.5:_ZN13MessageViewer14FileHtmlWriterD1Ev
libKPim5MessageViewer.so.5:_ZN13MessageViewer14FileHtmlWriterD2Ev
libKPim5MessageViewer.so.5:_ZN13MessageViewer14HeaderStrategy10stringListEPKPKci
libKPim5MessageViewer.so.5:_ZN13MessageViewer14HeaderStrategyC1Ev
libKPim5MessageViewer.so.5:_ZN13MessageViewer14HeaderStrategyC2Ev
libKPim5MessageViewer.so.5:_ZN13MessageViewer14HeaderStrategyD0Ev
libKPim5MessageViewer.so.5:_ZN13MessageViewer14HeaderStrategyD1Ev
libKPim5MessageViewer.so.5:_ZN13MessageViewer14HeaderStrategyD2Ev
libKPim5MessageViewer.so.5:_ZN13MessageViewer15ConfigureWidget10readConfigEv
libKPim5MessageViewer.so.5:_ZN13MessageViewer15ConfigureWidget11qt_metacallEN11QMetaObject4CallEiPPv
libKPim5MessageViewer.so.5:_ZN13MessageViewer15ConfigureWidget11qt_metacastEPKc
libKPim5MessageViewer.so.5:_ZN13MessageViewer15ConfigureWidget11writeConfigEv
libKPim5MessageViewer.so.5:_ZN13MessageViewer15ConfigureWidget15settingsChangedEv
libKPim5MessageViewer.so.5:_ZN13MessageViewer15ConfigureWidgetC1EP7QWidget
libKPim5MessageViewer.so.5:_ZN13MessageViewer15ConfigureWidgetC2EP7QWidget
libKPim5MessageViewer.so.5:_ZN13MessageViewer15ConfigureWidgetD0Ev
libKPim5MessageViewer.so.5:_ZN13MessageViewer15ConfigureWidgetD1Ev
libKPim5MessageViewer.so.5:_ZN13MessageViewer15ConfigureWidgetD2Ev
libKPim5MessageViewer.so.5:_ZN13MessageViewer15DKIMCheckPolicy10setSaveKeyEi
libKPim5MessageViewer.so.5:_ZN13MessageViewer15DKIMCheckPolicy11setUseDMarcEb
libKPim5MessageViewer.so.5:_ZN13MessageViewer15DKIMCheckPolicy16setRsaSha1PolicyEi
libKPim5MessageViewer.so.5:_ZN13MessageViewer15DKIMCheckPolicy17setSaveDkimResultEb
libKPim5MessageViewer.so.5:_ZN13MessageViewer15DKIMCheckPolicy18setUseDefaultRulesEb
libKPim5MessageViewer.so.5:_ZN13MessageViewer15DKIMCheckPolicy19setAutogenerateRuleEb
libKPim5MessageViewer.so.5:_ZN13MessageViewer15DKIMCheckPolicy20setUseRelaxedParsingEb
libKPim5MessageViewer.so.5:_ZN13MessageViewer15DKIMCheckPolicy26setPublicRsaTooSmallPolicyEi
libKPim5MessageViewer.so.5:_ZN13MessageViewer15DKIMCheckPolicy27setUseAuthenticationResultsEb
libKPim5MessageViewer.so.5:_ZN13MessageViewer15DKIMCheckPolicy29setCheckIfEmailShouldBeSignedEb
libKPim5MessageViewer.so.5:_ZN13MessageViewer15DKIMCheckPolicy30setVerifySignatureWhenOnlyTestEb
libKPim5MessageViewer.so.5:_ZN13MessageViewer15DKIMCheckPolicy31setUseOnlyAuthenticationResultsEb
libKPim5MessageViewer.so.5:_ZN13MessageViewer15DKIMCheckPolicy37setAutogenerateRuleOnlyIfSenderInSDIDEb
libKPim5MessageViewer.so.5:_ZN13MessageViewer15DKIMCheckPolicyC1Ev
libKPim5MessageViewer.so.5:_ZN13MessageViewer15DKIMCheckPolicyC2Ev
libKPim5MessageViewer.so.5:_ZN13MessageViewer15HeaderStyleUtil10dateStringEPN5KMime7MessageENS0_25HeaderStyleUtilDateFormatE
libKPim5MessageViewer.so.5:_ZN13MessageViewer15HeaderStyleUtil10dateStringERK9QDateTimeNS0_25HeaderStyleUtilDateFormatE
libKPim5MessageViewer.so.5:_ZN13MessageViewer15HeaderStyleUtil12dateShortStrERK9QDateTime
libKPim5MessageViewer.so.5:_ZN13MessageViewer15HeaderStyleUtil12resentToListEPN5KMime7MessageE
libKPim5MessageViewer.so.5:_ZN13MessageViewer15HeaderStyleUtil14resentFromListEPN5KMime7MessageE
libKPim5MessageViewer.so.5:_ZN13MessageViewer15HeaderStyleUtil7dateStrERK9QDateTime
libKPim5MessageViewer.so.5:_ZN13MessageViewer15HeaderStyleUtil9strToHtmlERK7QString6QFlagsIN11KTextToHTML6OptionEE
libKPim5MessageViewer.so.5:_ZN13MessageViewer15HeaderStyleUtilC1Ev
libKPim5MessageViewer.so.5:_ZN13MessageViewer15HeaderStyleUtilC2Ev
libKPim5MessageViewer.so.5:_ZN13MessageViewer15OpenWithUrlInfo10setCommandERK7QString
libKPim5MessageViewer.so.5:_ZN13MessageViewer15OpenWithUrlInfo14setCommandLineERK7QString
libKPim5MessageViewer.so.5:_ZN13MessageViewer15OpenWithUrlInfo6setUrlERK7QString
libKPim5MessageViewer.so.5:_ZN13MessageViewer15OpenWithUrlInfoC1Ev
libKPim5MessageViewer.so.5:_ZN13MessageViewer15OpenWithUrlInfoC2Ev
libKPim5MessageViewer.so.5:_ZN13MessageViewer15OpenWithUrlInfoD1Ev
libKPim5MessageViewer.so.5:_ZN13MessageViewer15OpenWithUrlInfoD2Ev
libKPim5MessageViewer.so.5:_ZN13MessageViewer16DKIMCheckFullJob11qt_metacallEN11QMetaObject4CallEiPPv
libKPim5MessageViewer.so.5:_ZN13MessageViewer16DKIMCheckFullJob11qt_metacastEPKc
libKPim5MessageViewer.so.5:_ZN13MessageViewer16DKIMCheckFullJob11storeResultERKNS_21DKIMCheckSignatureJob20CheckSignatureResultE
libKPim5MessageViewer.so.5:_ZN13MessageViewer16DKIMCheckFullJob12generateRuleERKNS_21DKIMCheckSignatureJob20CheckSignatureResultE
libKPim5MessageViewer.so.5:_ZN13MessageViewer16DKIMCheckFullJob14checkSignatureERK7QVectorINS_21DKIMCheckSignatureJob38DKIMCheckSignatureAuthenticationResultEE
libKPim5MessageViewer.so.5:_ZN13MessageViewer16DKIMCheckFullJob17storeInKeyManagerERK7QStringS3_S3_b
libKPim5MessageViewer.so.5:_ZN13MessageViewer16DKIMCheckFullJob18startCheckFullInfoERK14QSharedPointerIN5KMime7MessageEE
libKPim5MessageViewer.so.5:_ZN13MessageViewer16DKIMCheckFullJob18startCheckFullInfoERKN7Akonadi4ItemE
libKPim5MessageViewer.so.5:_ZN13MessageViewer16DKIMCheckFullJob24slotCheckSignatureResultERKNS_21DKIMCheckSignatureJob20CheckSignatureResultE
libKPim5MessageViewer.so.5:_ZN13MessageViewer16DKIMCheckFullJob26checkAuthenticationResultsEv
libKPim5MessageViewer.so.5:_ZN13MessageViewer16DKIMCheckFullJob35slotCheckAuthenticationStatusResultERKNS_28DKIMAuthenticationStatusInfoE
libKPim5MessageViewer.so.5:_ZN13MessageViewer16DKIMCheckFullJob6resultERKNS_21DKIMCheckSignatureJob20CheckSignatureResultEx
libKPim5MessageViewer.so.5:_ZN13MessageViewer16DKIMCheckFullJob8storeKeyERK7QStringS3_S3_
libKPim5MessageViewer.so.5:_ZN13MessageViewer16DKIMCheckFullJob9setPolicyERKNS_15DKIMCheckPolicyE
libKPim5MessageViewer.so.5:_ZN13MessageViewer16DKIMCheckFullJobC1EP7QObject
libKPim5MessageViewer.so.5:_ZN13MessageViewer16DKIMCheckFullJobC2EP7QObject
libKPim5MessageViewer.so.5:_ZN13MessageViewer16DKIMCheckFullJobD0Ev
libKPim5MessageViewer.so.5:_ZN13MessageViewer16DKIMCheckFullJobD1Ev
libKPim5MessageViewer.so.5:_ZN13MessageViewer16DKIMCheckFullJobD2Ev
libKPim5MessageViewer.so.5:_ZN13MessageViewer16DKIMHeaderParser10headerTypeERK7QString
libKPim5MessageViewer.so.5:_ZN13MessageViewer16DKIMHeaderParser12unfoldHeaderEPKcm
libKPim5MessageViewer.so.5:_ZN13MessageViewer16DKIMHeaderParser17findHeaderLineEndERK10QByteArrayRiPb
libKPim5MessageViewer.so.5:_ZN13MessageViewer16DKIMHeaderParser19setWasAlreadyParsedEb
libKPim5MessageViewer.so.5:_ZN13MessageViewer16DKIMHeaderParser5parseEv
libKPim5MessageViewer.so.5:_ZN13MessageViewer16DKIMHeaderParser7setHeadERK10QByteArray
libKPim5MessageViewer.so.5:_ZN13MessageViewer16DKIMHeaderParserC1Ev
libKPim5MessageViewer.so.5:_ZN13MessageViewer16DKIMHeaderParserC2Ev
libKPim5MessageViewer.so.5:_ZN13MessageViewer16DKIMHeaderParserD1Ev
libKPim5MessageViewer.so.5:_ZN13MessageViewer16DKIMHeaderParserD2Ev
libKPim5MessageViewer.so.5:_ZN13MessageViewer16DKIMManagerRules11exportRulesERK7QStringRK7QVectorINS_8DKIMRuleEE
libKPim5MessageViewer.so.5:_ZN13MessageViewer16DKIMManagerRules11importRulesERK7QString
libKPim5MessageViewer.so.5:_ZN13MessageViewer16DKIMManagerRules11qt_metacallEN11QMetaObject4CallEiPPv
libKPim5MessageViewer.so.5:_ZN13MessageViewer16DKIMManagerRules11qt_metacastEPKc
libKPim5MessageViewer.so.5:_ZN13MessageViewer16DKIMManagerRules4selfEv
libKPim5MessageViewer.so.5:_ZN13MessageViewer16DKIMManagerRules5clearEv
libKPim5MessageViewer.so.5:_ZN13MessageViewer16DKIMManagerRules7addRuleERKNS_8DKIMRuleE
libKPim5MessageViewer.so.5:_ZN13MessageViewer16DKIMManagerRules9saveRulesERK7QVectorINS_8DKIMRuleEE
libKPim5MessageViewer.so.5:_ZN13MessageViewer16DKIMManagerRulesC1EP7QObject
libKPim5MessageViewer.so.5:_ZN13MessageViewer16DKIMManagerRulesC2EP7QObject
libKPim5MessageViewer.so.5:_ZN13MessageViewer16DKIMManagerRulesD0Ev
libKPim5MessageViewer.so.5:_ZN13MessageViewer16DKIMManagerRulesD1Ev
libKPim5MessageViewer.so.5:_ZN13MessageViewer16DKIMManagerRulesD2Ev
libKPim5MessageViewer.so.5:_ZN13MessageViewer16MDNWarningWidget10setCanDenyEb
libKPim5MessageViewer.so.5:_ZN13MessageViewer16MDNWarningWidget11qt_metacallEN11QMetaObject4CallEiPPv
libKPim5MessageViewer.so.5:_ZN13MessageViewer16MDNWarningWidget11qt_metacastEPKc
libKPim5MessageViewer.so.5:_ZN13MessageViewer16MDNWarningWidget12sendResponseENS0_12ResponseTypeEN5KMime3MDN11SendingModeE
libKPim5MessageViewer.so.5:_ZN13MessageViewer16MDNWarningWidget14setInformationERK7QString
libKPim5MessageViewer.so.5:_ZN13MessageViewer16MDNWarningWidget14setSendingModeEN5KMime3MDN11SendingModeE
libKPim5MessageViewer.so.5:_ZN13MessageViewer16MDNWarningWidgetC1EP7QWidget
libKPim5MessageViewer.so.5:_ZN13MessageViewer16MDNWarningWidgetC2EP7QWidget
libKPim5MessageViewer.so.5:_ZN13MessageViewer16MDNWarningWidgetD0Ev
libKPim5MessageViewer.so.5:_ZN13MessageViewer16MDNWarningWidgetD1Ev
libKPim5MessageViewer.so.5:_ZN13MessageViewer16MDNWarningWidgetD2Ev
libKPim5MessageViewer.so.5:_ZN13MessageViewer16PlainHeaderStyleC1Ev
libKPim5MessageViewer.so.5:_ZN13MessageViewer16PlainHeaderStyleC2Ev
libKPim5MessageViewer.so.5:_ZN13MessageViewer16PlainHeaderStyleD0Ev
libKPim5MessageViewer.so.5:_ZN13MessageViewer16PlainHeaderStyleD1Ev
libKPim5MessageViewer.so.5:_ZN13MessageViewer16PlainHeaderStyleD2Ev
libKPim5MessageViewer.so.5:_ZN13MessageViewer16PrintingSettings11qt_metacallEN11QMetaObject4CallEiPPv
libKPim5MessageViewer.so.5:_ZN13MessageViewer16PrintingSettings11qt_metacastEPKc
libKPim5MessageViewer.so.5:_ZN13MessageViewer16PrintingSettings22doResetToDefaultsOtherEv
libKPim5MessageViewer.so.5:_ZN13MessageViewer16PrintingSettings24doLoadFromGlobalSettingsEv
libKPim5MessageViewer.so.5:_ZN13MessageViewer16PrintingSettings4saveEv
libKPim5MessageViewer.so.5:_ZN13MessageViewer16PrintingSettings7changedEv
libKPim5MessageViewer.so.5:_ZN13MessageViewer16PrintingSettingsC1EP7QWidget
libKPim5MessageViewer.so.5:_ZN13MessageViewer16PrintingSettingsC2EP7QWidget
libKPim5MessageViewer.so.5:_ZN13MessageViewer16PrintingSettingsD0Ev
libKPim5MessageViewer.so.5:_ZN13MessageViewer16PrintingSettingsD1Ev
libKPim5MessageViewer.so.5:_ZN13MessageViewer16PrintingSettingsD2Ev
libKPim5MessageViewer.so.5:_ZN13MessageViewer16ScamExpandUrlJob11expandedUrlERK4QUrl
libKPim5MessageViewer.so.5:_ZN13MessageViewer16ScamExpandUrlJob11qt_metacallEN11QMetaObject4CallEiPPv
libKPim5MessageViewer.so.5:_ZN13MessageViewer16ScamExpandUrlJob11qt_metacastEPKc
libKPim5MessageViewer.so.5:_ZN13MessageViewer16ScamExpandUrlJob11urlExpandedERK7QStringS3_
libKPim5MessageViewer.so.5:_ZN13MessageViewer16ScamExpandUrlJob14expandUrlErrorEN13QNetworkReply12NetworkErrorE
libKPim5MessageViewer.so.5:_ZN13MessageViewer16ScamExpandUrlJobC1EP7QObject
libKPim5MessageViewer.so.5:_ZN13MessageViewer16ScamExpandUrlJobC2EP7QObject
libKPim5MessageViewer.so.5:_ZN13MessageViewer16ScamExpandUrlJobD0Ev
libKPim5MessageViewer.so.5:_ZN13MessageViewer16ScamExpandUrlJobD1Ev
libKPim5MessageViewer.so.5:_ZN13MessageViewer16ScamExpandUrlJobD2Ev
libKPim5MessageViewer.so.5:_ZN13MessageViewer17HeaderStylePlugin11qt_metacallEN11QMetaObject4CallEiPPv
libKPim5MessageViewer.so.5:_ZN13MessageViewer17HeaderStylePlugin11qt_metacastEPKc
libKPim5MessageViewer.so.5:_ZN13MessageViewer17HeaderStylePlugin12setIsEnabledEb
libKPim5MessageViewer.so.5:_ZN13MessageViewer17HeaderStylePlugin19showConfigureDialogEP7QWidget
libKPim5MessageViewer.so.5:_ZN13MessageViewer17HeaderStylePluginC1EP7QObject
libKPim5MessageViewer.so.5:_ZN13MessageViewer17HeaderStylePluginC2EP7QObject
libKPim5MessageViewer.so.5:_ZN13MessageViewer17HeaderStylePluginD0Ev
libKPim5MessageViewer.so.5:_ZN13MessageViewer17HeaderStylePluginD1Ev
libKPim5MessageViewer.so.5:_ZN13MessageViewer17HeaderStylePluginD2Ev
libKPim5MessageViewer.so.5:_ZN13MessageViewer17MailWebEnginePage11qt_metacallEN11QMetaObject4CallEiPPv
libKPim5MessageViewer.so.5:_ZN13MessageViewer17MailWebEnginePage11qt_metacastEPKc
libKPim5MessageViewer.so.5:_ZN13MessageViewer17MailWebEnginePage25setPrintElementBackgroundEb
libKPim5MessageViewer.so.5:_ZN13MessageViewer17MailWebEnginePageC1EP7QObject
libKPim5MessageViewer.so.5:_ZN13MessageViewer17MailWebEnginePageC2EP7QObject
libKPim5MessageViewer.so.5:_ZN13MessageViewer17MailWebEngineView10readConfigEv
libKPim5MessageViewer.so.5:_ZN13MessageViewer17MailWebEngineView10scrollDownEi
libKPim5MessageViewer.so.5:_ZN13MessageViewer17MailWebEngineView10urlBlockedERK4QUrl
libKPim5MessageViewer.so.5:_ZN13MessageViewer17MailWebEngineView11qt_metacallEN11QMetaObject4CallEiPPv
libKPim5MessageViewer.so.5:_ZN13MessageViewer17MailWebEngineView11qt_metacastEPKc
libKPim5MessageViewer.so.5:_ZN13MessageViewer17MailWebEngineView11resizeEventEP12QResizeEvent
libKPim5MessageViewer.so.5:_ZN13MessageViewer17MailWebEngineView12scrollPageUpEi
libKPim5MessageViewer.so.5:_ZN13MessageViewer17MailWebEngineView14hideAccessKeysEv
libKPim5MessageViewer.so.5:_ZN13MessageViewer17MailWebEngineView14markAttachmentERK7QStringS3_
libKPim5MessageViewer.so.5:_ZN13MessageViewer17MailWebEngineView14scrollPageDownEi
libKPim5MessageViewer.so.5:_ZN13MessageViewer17MailWebEngineView14scrollToAnchorERK7QString
libKPim5MessageViewer.so.5:_ZN13MessageViewer17MailWebEngineView14setLinkHoveredERK4QUrl
libKPim5MessageViewer.so.5:_ZN13MessageViewer17MailWebEngineView14showAccessKeysEv
libKPim5MessageViewer.so.5:_ZN13MessageViewer17MailWebEngineView15slotShowDetailsEv
libKPim5MessageViewer.so.5:_ZN13MessageViewer17MailWebEngineView15slotZoomChangedEd
libKPim5MessageViewer.so.5:_ZN13MessageViewer17MailWebEngineView16contextMenuEventEP17QContextMenuEvent
libKPim5MessageViewer.so.5:_ZN13MessageViewer17MailWebEngineView16printPreviewPageEP8QPrinter
libKPim5MessageViewer.so.5:_ZN13MessageViewer17MailWebEngineView16wheelZoomChangedEi
libKPim5MessageViewer.so.5:_ZN13MessageViewer17MailWebEngineView17forwardWheelEventEP11QWheelEvent
libKPim5MessageViewer.so.5:_ZN13MessageViewer17MailWebEngineView17messageMayBeAScamEv
libKPim5MessageViewer.so.5:_ZN13MessageViewer17MailWebEngineView18isScrolledToBottomEv
libKPim5MessageViewer.so.5:_ZN13MessageViewer17MailWebEngineView20execPrintPreviewPageEP8QPrinteri
libKPim5MessageViewer.so.5:_ZN13MessageViewer17MailWebEngineView20forwardKeyPressEventEP9QKeyEvent
libKPim5MessageViewer.so.5:_ZN13MessageViewer17MailWebEngineView21forwardMouseMoveEventEP11QMouseEvent
libKPim5MessageViewer.so.5:_ZN13MessageViewer17MailWebEngineView21setElementByIdVisibleERK7QStringb
libKPim5MessageViewer.so.5:_ZN13MessageViewer17MailWebEngineView22formSubmittedForbiddenEv
libKPim5MessageViewer.so.5:_ZN13MessageViewer17MailWebEngineView22forwardKeyReleaseEventEP9QKeyEvent
libKPim5MessageViewer.so.5:_ZN13MessageViewer17MailWebEngineView22forwardMousePressEventEP11QMouseEvent
libKPim5MessageViewer.so.5:_ZN13MessageViewer17MailWebEngineView22initializeCustomSchemeEv
libKPim5MessageViewer.so.5:_ZN13MessageViewer17MailWebEngineView22pageIsScrolledToBottomEb
libKPim5MessageViewer.so.5:_ZN13MessageViewer17MailWebEngineView23removeAttachmentMarkingERK7QString
libKPim5MessageViewer.so.5:_ZN13MessageViewer17MailWebEngineView23setAllowExternalContentEb
libKPim5MessageViewer.so.5:_ZN13MessageViewer17MailWebEngineView24forwardMouseReleaseEventEP11QMouseEvent
libKPim5MessageViewer.so.5:_ZN13MessageViewer17MailWebEngineView24scrollToRelativePositionEd
libKPim5MessageViewer.so.5:_ZN13MessageViewer17MailWebEngineView25setPrintElementBackgroundEb
libKPim5MessageViewer.so.5:_ZN13MessageViewer17MailWebEngineView29saveMainFrameScreenshotInFileERK7QString
libKPim5MessageViewer.so.5:_ZN13MessageViewer17MailWebEngineView7openUrlERK4QUrl
libKPim5MessageViewer.so.5:_ZN13MessageViewer17MailWebEngineView8scrollUpEi
libKPim5MessageViewer.so.5:_ZN13MessageViewer17MailWebEngineView9popupMenuERKN15WebEngineViewer16WebHitTestResultE
libKPim5MessageViewer.so.5:_ZN13MessageViewer17MailWebEngineView9scamCheckEv
libKPim5MessageViewer.so.5:_ZN13MessageViewer17MailWebEngineView9selectAllEv
libKPim5MessageViewer.so.5:_ZN13MessageViewer17MailWebEngineView9setViewerEPNS_13ViewerPrivateE
libKPim5MessageViewer.so.5:_ZN13MessageViewer17MailWebEngineViewC1EP17KActionCollectionP7QWidget
libKPim5MessageViewer.so.5:_ZN13MessageViewer17MailWebEngineViewC2EP17KActionCollectionP7QWidget
libKPim5MessageViewer.so.5:_ZN13MessageViewer17MailWebEngineViewD0Ev
libKPim5MessageViewer.so.5:_ZN13MessageViewer17MailWebEngineViewD1Ev
libKPim5MessageViewer.so.5:_ZN13MessageViewer17MailWebEngineViewD2Ev
libKPim5MessageViewer.so.5:_ZN13MessageViewer17MessageWidgetArea11qt_metacallEN11QMetaObject4CallEiPPv
libKPim5MessageViewer.so.5:_ZN13MessageViewer17MessageWidgetArea11qt_metacastEPKc
libKPim5MessageViewer.so.5:_ZN13MessageViewer17MessageWidgetAreaC1EP7QWidget
libKPim5MessageViewer.so.5:_ZN13MessageViewer17MessageWidgetAreaC2EP7QWidget
libKPim5MessageViewer.so.5:_ZN13MessageViewer17MessageWidgetAreaD0Ev
libKPim5MessageViewer.so.5:_ZN13MessageViewer17MessageWidgetAreaD1Ev
libKPim5MessageViewer.so.5:_ZN13MessageViewer17MessageWidgetAreaD2Ev
libKPim5MessageViewer.so.5:_ZN13MessageViewer17RemoteContentInfo6setUrlERK7QString
libKPim5MessageViewer.so.5:_ZN13MessageViewer17RemoteContentInfo9setStatusENS0_23RemoteContentInfoStatusE
libKPim5MessageViewer.so.5:_ZN13MessageViewer17RemoteContentInfoC1Ev
libKPim5MessageViewer.so.5:_ZN13MessageViewer17RemoteContentInfoC2Ev
libKPim5MessageViewer.so.5:_ZN13MessageViewer17RemoteContentInfoD1Ev
libKPim5MessageViewer.so.5:_ZN13MessageViewer17RemoteContentInfoD2Ev
libKPim5MessageViewer.so.5:_ZN13MessageViewer17RemoteContentMenu10updateMenuEv
libKPim5MessageViewer.so.5:_ZN13MessageViewer17RemoteContentMenu11qt_metacallEN11QMetaObject4CallEiPPv
libKPim5MessageViewer.so.5:_ZN13MessageViewer17RemoteContentMenu11qt_metacastEPKc
libKPim5MessageViewer.so.5:_ZN13MessageViewer17RemoteContentMenu11updateEmailEv
libKPim5MessageViewer.so.5:_ZN13MessageViewer17RemoteContentMenu7setUrlsERK11QStringList
libKPim5MessageViewer.so.5:_ZN13MessageViewer17RemoteContentMenu9appendUrlERK7QString
libKPim5MessageViewer.so.5:_ZN13MessageViewer17RemoteContentMenu9clearUrlsEv
libKPim5MessageViewer.so.5:_ZN13MessageViewer17RemoteContentMenuC1EP7QWidget
libKPim5MessageViewer.so.5:_ZN13MessageViewer17RemoteContentMenuC2EP7QWidget
libKPim5MessageViewer.so.5:_ZN13MessageViewer17RemoteContentMenuD0Ev
libKPim5MessageViewer.so.5:_ZN13MessageViewer17RemoteContentMenuD1Ev
libKPim5MessageViewer.so.5:_ZN13MessageViewer17RemoteContentMenuD2Ev
libKPim5MessageViewer.so.5:_ZN13MessageViewer17ScamCheckShortUrl10isShortUrlERK4QUrl
libKPim5MessageViewer.so.5:_ZN13MessageViewer17ScamCheckShortUrl11expandedUrlERK4QUrl
libKPim5MessageViewer.so.5:_ZN13MessageViewer17ScamCheckShortUrl11qt_metacallEN11QMetaObject4CallEiPPv
libKPim5MessageViewer.so.5:_ZN13MessageViewer17ScamCheckShortUrl11qt_metacastEPKc
libKPim5MessageViewer.so.5:_ZN13MessageViewer17ScamCheckShortUrl19loadLongUrlServicesEv
libKPim5MessageViewer.so.5:_ZN13MessageViewer17ScamCheckShortUrlC1EP7QObject
libKPim5MessageViewer.so.5:_ZN13MessageViewer17ScamCheckShortUrlC2EP7QObject
libKPim5MessageViewer.so.5:_ZN13MessageViewer17ScamCheckShortUrlD0Ev
libKPim5MessageViewer.so.5:_ZN13MessageViewer17ScamCheckShortUrlD1Ev
libKPim5MessageViewer.so.5:_ZN13MessageViewer17ScamCheckShortUrlD2Ev
libKPim5MessageViewer.so.5:_ZN13MessageViewer17ScamDetectionInfo10setEnabledEb
libKPim5MessageViewer.so.5:_ZN13MessageViewer17ScamDetectionInfo16setDomainOrEmailERK7QString
libKPim5MessageViewer.so.5:_ZN13MessageViewer17ScamDetectionInfoC1Ev
libKPim5MessageViewer.so.5:_ZN13MessageViewer17ScamDetectionInfoC2Ev
libKPim5MessageViewer.so.5:_ZN13MessageViewer17ScamDetectionInfoD1Ev
libKPim5MessageViewer.so.5:_ZN13MessageViewer17ScamDetectionInfoD2Ev
libKPim5MessageViewer.so.5:_ZN13MessageViewer17URLHandlerManager15registerHandlerEPKN14MimeTreeParser10URLHandlerE
libKPim5MessageViewer.so.5:_ZN13MessageViewer17URLHandlerManager15registerHandlerEPKNS_9Interface18BodyPartURLHandlerERK7QString
libKPim5MessageViewer.so.5:_ZN13MessageViewer17URLHandlerManager17unregisterHandlerEPKN14MimeTreeParser10URLHandlerE
libKPim5MessageViewer.so.5:_ZN13MessageViewer17URLHandlerManager17unregisterHandlerEPKNS_9Interface18BodyPartURLHandlerE
libKPim5MessageViewer.so.5:_ZN13MessageViewer17URLHandlerManager8instanceEv
libKPim5MessageViewer.so.5:_ZN13MessageViewer17URLHandlerManagerC1Ev
libKPim5MessageViewer.so.5:_ZN13MessageViewer17URLHandlerManagerC2Ev
libKPim5MessageViewer.so.5:_ZN13MessageViewer17URLHandlerManagerD1Ev
libKPim5MessageViewer.so.5:_ZN13MessageViewer17URLHandlerManagerD2Ev
libKPim5MessageViewer.so.5:_ZN13MessageViewer18AttachmentStrategy10headerOnlyEv
libKPim5MessageViewer.so.5:_ZN13MessageViewer18AttachmentStrategy5smartEv
libKPim5MessageViewer.so.5:_ZN13MessageViewer18AttachmentStrategy6createENS0_4TypeE
libKPim5MessageViewer.so.5:_ZN13MessageViewer18AttachmentStrategy6createERK7QString
libKPim5MessageViewer.so.5:_ZN13MessageViewer18AttachmentStrategy6hiddenEv
libKPim5MessageViewer.so.5:_ZN13MessageViewer18AttachmentStrategy6iconicEv
libKPim5MessageViewer.so.5:_ZN13MessageViewer18AttachmentStrategy7inlinedEv
libKPim5MessageViewer.so.5:_ZN13MessageViewer18AttachmentStrategyC1Ev
libKPim5MessageViewer.so.5:_ZN13MessageViewer18AttachmentStrategyC2Ev
libKPim5MessageViewer.so.5:_ZN13MessageViewer18AttachmentStrategyD0Ev
libKPim5MessageViewer.so.5:_ZN13MessageViewer18AttachmentStrategyD1Ev
libKPim5MessageViewer.so.5:_ZN13MessageViewer18AttachmentStrategyD2Ev
libKPim5MessageViewer.so.5:_ZN13MessageViewer18BufferedHtmlWriter12setExtraHeadERK7QString
libKPim5MessageViewer.so.5:_ZN13MessageViewer18BufferedHtmlWriter12setStyleBodyERK7QString
libKPim5MessageViewer.so.5:_ZN13MessageViewer18BufferedHtmlWriter3endEv
libKPim5MessageViewer.so.5:_ZN13MessageViewer18BufferedHtmlWriter5beginEv
libKPim5MessageViewer.so.5:_ZN13MessageViewer18BufferedHtmlWriter5clearEv
libKPim5MessageViewer.so.5:_ZN13MessageViewer18BufferedHtmlWriter5resetEv
libKPim5MessageViewer.so.5:_ZN13MessageViewer18BufferedHtmlWriter9embedPartERK10QByteArrayRK7QString
libKPim5MessageViewer.so.5:_ZN13MessageViewer18BufferedHtmlWriterC1Ev
libKPim5MessageViewer.so.5:_ZN13MessageViewer18BufferedHtmlWriterC2Ev
libKPim5MessageViewer.so.5:_ZN13MessageViewer18BufferedHtmlWriterD0Ev
libKPim5MessageViewer.so.5:_ZN13MessageViewer18BufferedHtmlWriterD1Ev
libKPim5MessageViewer.so.5:_ZN13MessageViewer18BufferedHtmlWriterD2Ev
libKPim5MessageViewer.so.5:_ZN13MessageViewer18DKIMCheckPolicyJob11qt_metacallEN11QMetaObject4CallEiPPv
libKPim5MessageViewer.so.5:_ZN13MessageViewer18DKIMCheckPolicyJob11qt_metacastEPKc
libKPim5MessageViewer.so.5:_ZN13MessageViewer18DKIMCheckPolicyJob14setCheckResultERKNS_21DKIMCheckSignatureJob20CheckSignatureResultE
libKPim5MessageViewer.so.5:_ZN13MessageViewer18DKIMCheckPolicyJob15setEmailAddressERK7QString
libKPim5MessageViewer.so.5:_ZN13MessageViewer18DKIMCheckPolicyJob5startEv
libKPim5MessageViewer.so.5:_ZN13MessageViewer18DKIMCheckPolicyJob6resultERKNS_21DKIMCheckSignatureJob20CheckSignatureResultE
libKPim5MessageViewer.so.5:_ZN13MessageViewer18DKIMCheckPolicyJob9setPolicyERKNS_15DKIMCheckPolicyE
libKPim5MessageViewer.so.5:_ZN13MessageViewer18DKIMCheckPolicyJobC1EP7QObject
libKPim5MessageViewer.so.5:_ZN13MessageViewer18DKIMCheckPolicyJobC2EP7QObject
libKPim5MessageViewer.so.5:_ZN13MessageViewer18DKIMCheckPolicyJobD0Ev
libKPim5MessageViewer.so.5:_ZN13MessageViewer18DKIMCheckPolicyJobD1Ev
libKPim5MessageViewer.so.5:_ZN13MessageViewer18DKIMCheckPolicyJobD2Ev
libKPim5MessageViewer.so.5:_ZN13MessageViewer18DKIMDownloadKeyJob11qt_metacallEN11QMetaObject4CallEiPPv
libKPim5MessageViewer.so.5:_ZN13MessageViewer18DKIMDownloadKeyJob11qt_metacastEPKc
libKPim5MessageViewer.so.5:_ZN13MessageViewer18DKIMDownloadKeyJob13setDomainNameERK7QString
libKPim5MessageViewer.so.5:_ZN13MessageViewer18DKIMDownloadKeyJob15setSelectorNameERK7QString
libKPim5MessageViewer.so.5:_ZN13MessageViewer18DKIMDownloadKeyJob5errorERK7QString
libKPim5MessageViewer.so.5:_ZN13MessageViewer18DKIMDownloadKeyJob5startEv
libKPim5MessageViewer.so.5:_ZN13MessageViewer18DKIMDownloadKeyJob7successERK5QListI10QByteArrayERK7QStringS8_
libKPim5MessageViewer.so.5:_ZN13MessageViewer18DKIMDownloadKeyJobC1EP7QObject
libKPim5MessageViewer.so.5:_ZN13MessageViewer18DKIMDownloadKeyJobC2EP7QObject
libKPim5MessageViewer.so.5:_ZN13MessageViewer18DKIMDownloadKeyJobD0Ev
libKPim5MessageViewer.so.5:_ZN13MessageViewer18DKIMDownloadKeyJobD1Ev
libKPim5MessageViewer.so.5:_ZN13MessageViewer18DKIMDownloadKeyJobD2Ev
libKPim5MessageViewer.so.5:_ZN13MessageViewer18DKIMStoreResultJob11qt_metacallEN11QMetaObject4CallEiPPv
libKPim5MessageViewer.so.5:_ZN13MessageViewer18DKIMStoreResultJob11qt_metacastEPKc
libKPim5MessageViewer.so.5:_ZN13MessageViewer18DKIMStoreResultJob18slotModifyItemDoneEP4KJob
libKPim5MessageViewer.so.5:_ZN13MessageViewer18DKIMStoreResultJob5startEv
libKPim5MessageViewer.so.5:_ZN13MessageViewer18DKIMStoreResultJob7setItemERKN7Akonadi4ItemE
libKPim5MessageViewer.so.5:_ZN13MessageViewer18DKIMStoreResultJob9setResultERKNS_21DKIMCheckSignatureJob20CheckSignatureResultE
libKPim5MessageViewer.so.5:_ZN13MessageViewer18DKIMStoreResultJobC1EP7QObject
libKPim5MessageViewer.so.5:_ZN13MessageViewer18DKIMStoreResultJobC2EP7QObject
libKPim5MessageViewer.so.5:_ZN13MessageViewer18DKIMStoreResultJobD0Ev
libKPim5MessageViewer.so.5:_ZN13MessageViewer18DKIMStoreResultJobD1Ev
libKPim5MessageViewer.so.5:_ZN13MessageViewer18DKIMStoreResultJobD2Ev
libKPim5MessageViewer.so.5:_ZN13MessageViewer18InvitationSettings11qt_metacallEN11QMetaObject4CallEiPPv
libKPim5MessageViewer.so.5:_ZN13MessageViewer18InvitationSettings11qt_metacastEPKc
libKPim5MessageViewer.so.5:_ZN13MessageViewer18InvitationSettings22doResetToDefaultsOtherEv
libKPim5MessageViewer.so.5:_ZN13MessageViewer18InvitationSettings24doLoadFromGlobalSettingsEv
libKPim5MessageViewer.so.5:_ZN13MessageViewer18InvitationSettings4saveEv
libKPim5MessageViewer.so.5:_ZN13MessageViewer18InvitationSettings7changedEv
libKPim5MessageViewer.so.5:_ZN13MessageViewer18InvitationSettingsC1EP7QWidget
libKPim5MessageViewer.so.5:_ZN13MessageViewer18InvitationSettingsC2EP7QWidget
libKPim5MessageViewer.so.5:_ZN13MessageViewer18InvitationSettingsD0Ev
libKPim5MessageViewer.so.5:_ZN13MessageViewer18InvitationSettingsD1Ev
libKPim5MessageViewer.so.5:_ZN13MessageViewer18InvitationSettingsD2Ev
libKPim5MessageViewer.so.5:_ZN13MessageViewer18OpenUrlWithManager11qt_metacallEN11QMetaObject4CallEiPPv
libKPim5MessageViewer.so.5:_ZN13MessageViewer18OpenUrlWithManager11qt_metacastEPKc
libKPim5MessageViewer.so.5:_ZN13MessageViewer18OpenUrlWithManager18setOpenWithUrlInfoERK7QVectorINS_15OpenWithUrlInfoEE
libKPim5MessageViewer.so.5:_ZN13MessageViewer18OpenUrlWithManager4selfEv
libKPim5MessageViewer.so.5:_ZN13MessageViewer18OpenUrlWithManager5clearEv
libKPim5MessageViewer.so.5:_ZN13MessageViewer18OpenUrlWithManager8openWithERK4QUrl
libKPim5MessageViewer.so.5:_ZN13MessageViewer18OpenUrlWithManager9saveRulesEv
libKPim5MessageViewer.so.5:_ZN13MessageViewer18OpenUrlWithManagerC1EP7QObject
libKPim5MessageViewer.so.5:_ZN13MessageViewer18OpenUrlWithManagerC2EP7QObject
libKPim5MessageViewer.so.5:_ZN13MessageViewer18OpenUrlWithManagerD0Ev
libKPim5MessageViewer.so.5:_ZN13MessageViewer18OpenUrlWithManagerD1Ev
libKPim5MessageViewer.so.5:_ZN13MessageViewer18OpenUrlWithManagerD2Ev
libKPim5MessageViewer.so.5:_ZN13MessageViewer18RichHeaderStrategyC1Ev
libKPim5MessageViewer.so.5:_ZN13MessageViewer18RichHeaderStrategyC2Ev
libKPim5MessageViewer.so.5:_ZN13MessageViewer18RichHeaderStrategyD0Ev
libKPim5MessageViewer.so.5:_ZN13MessageViewer18RichHeaderStrategyD1Ev
libKPim5MessageViewer.so.5:_ZN13MessageViewer18RichHeaderStrategyD2Ev
libKPim5MessageViewer.so.5:_ZN13MessageViewer19AttachmentMarkBlock12internalExitEv
libKPim5MessageViewer.so.5:_ZN13MessageViewer19AttachmentMarkBlock13internalEnterEv
libKPim5MessageViewer.so.5:_ZN13MessageViewer19AttachmentMarkBlockC1EPNS_10HtmlWriterEPN5KMime7ContentE
libKPim5MessageViewer.so.5:_ZN13MessageViewer19AttachmentMarkBlockC2EPNS_10HtmlWriterEPN5KMime7ContentE
libKPim5MessageViewer.so.5:_ZN13MessageViewer19AttachmentMarkBlockD0Ev
libKPim5MessageViewer.so.5:_ZN13MessageViewer19AttachmentMarkBlockD1Ev
libKPim5MessageViewer.so.5:_ZN13MessageViewer19AttachmentMarkBlockD2Ev
libKPim5MessageViewer.so.5:_ZN13MessageViewer19DKIMGenerateRuleJob11qt_metacallEN11QMetaObject4CallEiPPv
libKPim5MessageViewer.so.5:_ZN13MessageViewer19DKIMGenerateRuleJob11qt_metacastEPKc
libKPim5MessageViewer.so.5:_ZN13MessageViewer19DKIMGenerateRuleJob21verifyAndGenerateRuleEv
libKPim5MessageViewer.so.5:_ZN13MessageViewer19DKIMGenerateRuleJob5startEv
libKPim5MessageViewer.so.5:_ZN13MessageViewer19DKIMGenerateRuleJob9setResultERKNS_21DKIMCheckSignatureJob20CheckSignatureResultE
libKPim5MessageViewer.so.5:_ZN13MessageViewer19DKIMGenerateRuleJobC1EP7QObject
libKPim5MessageViewer.so.5:_ZN13MessageViewer19DKIMGenerateRuleJobC2EP7QObject
libKPim5MessageViewer.so.5:_ZN13MessageViewer19DKIMGenerateRuleJobD0Ev
libKPim5MessageViewer.so.5:_ZN13MessageViewer19DKIMGenerateRuleJobD1Ev
libKPim5MessageViewer.so.5:_ZN13MessageViewer19DKIMGenerateRuleJobD2Ev
libKPim5MessageViewer.so.5:_ZN13MessageViewer19DKIMResultAttribute10setWarningEi
libKPim5MessageViewer.so.5:_ZN13MessageViewer19DKIMResultAttribute11deserializeERK10QByteArray
libKPim5MessageViewer.so.5:_ZN13MessageViewer19DKIMResultAttribute8setErrorEi
libKPim5MessageViewer.so.5:_ZN13MessageViewer19DKIMResultAttribute9setStatusEi
libKPim5MessageViewer.so.5:_ZN13MessageViewer19DKIMResultAttributeC1Ev
libKPim5MessageViewer.so.5:_ZN13MessageViewer19DKIMResultAttributeC2Ev
libKPim5MessageViewer.so.5:_ZN13MessageViewer19DKIMResultAttributeD0Ev
libKPim5MessageViewer.so.5:_ZN13MessageViewer19DKIMResultAttributeD1Ev
libKPim5MessageViewer.so.5:_ZN13MessageViewer19DKIMResultAttributeD2Ev
libKPim5MessageViewer.so.5:_ZN13MessageViewer19GrantleeHeaderStyleC1Ev
libKPim5MessageViewer.so.5:_ZN13MessageViewer19GrantleeHeaderStyleC2Ev
libKPim5MessageViewer.so.5:_ZN13MessageViewer19GrantleeHeaderStyleD0Ev
libKPim5MessageViewer.so.5:_ZN13MessageViewer19GrantleeHeaderStyleD1Ev
libKPim5MessageViewer.so.5:_ZN13MessageViewer19GrantleeHeaderStyleD2Ev
libKPim5MessageViewer.so.5:_ZN13MessageViewer19RemoteContentDialog11qt_metacallEN11QMetaObject4CallEiPPv
libKPim5MessageViewer.so.5:_ZN13MessageViewer19RemoteContentDialog11qt_metacastEPKc
libKPim5MessageViewer.so.5:_ZN13MessageViewer19RemoteContentDialog7setInfoERKNS_17RemoteContentInfoE
libKPim5MessageViewer.so.5:_ZN13MessageViewer19RemoteContentDialogC1EP7QWidget
libKPim5MessageViewer.so.5:_ZN13MessageViewer19RemoteContentDialogC2EP7QWidget
libKPim5MessageViewer.so.5:_ZN13MessageViewer19RemoteContentDialogD0Ev
libKPim5MessageViewer.so.5:_ZN13MessageViewer19RemoteContentDialogD1Ev
libKPim5MessageViewer.so.5:_ZN13MessageViewer19RemoteContentDialogD2Ev
libKPim5MessageViewer.so.5:_ZN13MessageViewer19RemoteContentWidget11qt_metacallEN11QMetaObject4CallEiPPv
libKPim5MessageViewer.so.5:_ZN13MessageViewer19RemoteContentWidget11qt_metacastEPKc
libKPim5MessageViewer.so.5:_ZN13MessageViewer19RemoteContentWidget14updateOkButtonEb
libKPim5MessageViewer.so.5:_ZN13MessageViewer19RemoteContentWidget15slotTextChangedERK7QString
libKPim5MessageViewer.so.5:_ZN13MessageViewer19RemoteContentWidget7setInfoERKNS_17RemoteContentInfoE
libKPim5MessageViewer.so.5:_ZN13MessageViewer19RemoteContentWidgetC1EP7QWidget
libKPim5MessageViewer.so.5:_ZN13MessageViewer19RemoteContentWidgetC2EP7QWidget
libKPim5MessageViewer.so.5:_ZN13MessageViewer19RemoteContentWidgetD0Ev
libKPim5MessageViewer.so.5:_ZN13MessageViewer19RemoteContentWidgetD1Ev
libKPim5MessageViewer.so.5:_ZN13MessageViewer19RemoteContentWidgetD2Ev
libKPim5MessageViewer.so.5:_ZN13MessageViewer19ViewerPluginManager11qt_metacallEN11QMetaObject4CallEiPPv
libKPim5MessageViewer.so.5:_ZN13MessageViewer19ViewerPluginManager11qt_metacastEPKc
libKPim5MessageViewer.so.5:_ZN13MessageViewer19ViewerPluginManager13setPluginNameERK7QString
libKPim5MessageViewer.so.5:_ZN13MessageViewer19ViewerPluginManager18setPluginDirectoryERK7QString
libKPim5MessageViewer.so.5:_ZN13MessageViewer19ViewerPluginManager20initializePluginListEv
libKPim5MessageViewer.so.5:_ZN13MessageViewer19ViewerPluginManager20pluginFromIdentifierERK7QString
libKPim5MessageViewer.so.5:_ZN13MessageViewer19ViewerPluginManager4selfEv
libKPim5MessageViewer.so.5:_ZN13MessageViewer19ViewerPluginManagerC1EP7QObject
libKPim5MessageViewer.so.5:_ZN13MessageViewer19ViewerPluginManagerC2EP7QObject
libKPim5MessageViewer.so.5:_ZN13MessageViewer19ViewerPluginManagerD0Ev
libKPim5MessageViewer.so.5:_ZN13MessageViewer19ViewerPluginManagerD1Ev
libKPim5MessageViewer.so.5:_ZN13MessageViewer19ViewerPluginManagerD2Ev
libKPim5MessageViewer.so.5:_ZN13MessageViewer20DKIMManagerKeyDialog11qt_metacallEN11QMetaObject4CallEiPPv
libKPim5MessageViewer.so.5:_ZN13MessageViewer20DKIMManagerKeyDialog11qt_metacastEPKc
libKPim5MessageViewer.so.5:_ZN13MessageViewer20DKIMManagerKeyDialogC1EP7QWidget
libKPim5MessageViewer.so.5:_ZN13MessageViewer20DKIMManagerKeyDialogC2EP7QWidget
libKPim5MessageViewer.so.5:_ZN13MessageViewer20DKIMManagerKeyDialogD0Ev
libKPim5MessageViewer.so.5:_ZN13MessageViewer20DKIMManagerKeyDialogD1Ev
libKPim5MessageViewer.so.5:_ZN13MessageViewer20DKIMManagerKeyDialogD2Ev
libKPim5MessageViewer.so.5:_ZN13MessageViewer20DKIMManagerKeyWidget11qt_metacallEN11QMetaObject4CallEiPPv
libKPim5MessageViewer.so.5:_ZN13MessageViewer20DKIMManagerKeyWidget11qt_metacastEPKc
libKPim5MessageViewer.so.5:_ZN13MessageViewer20DKIMManagerKeyWidget14restoreHeadersERK10QByteArray
libKPim5MessageViewer.so.5:_ZN13MessageViewer20DKIMManagerKeyWidget8loadKeysEv
libKPim5MessageViewer.so.5:_ZN13MessageViewer20DKIMManagerKeyWidget8saveKeysEv
libKPim5MessageViewer.so.5:_ZN13MessageViewer20DKIMManagerKeyWidget9resetKeysEv
libKPim5MessageViewer.so.5:_ZN13MessageViewer20DKIMManagerKeyWidgetC1EP7QWidget
libKPim5MessageViewer.so.5:_ZN13MessageViewer20DKIMManagerKeyWidgetC2EP7QWidget
libKPim5MessageViewer.so.5:_ZN13MessageViewer20DKIMManagerKeyWidgetD0Ev
libKPim5MessageViewer.so.5:_ZN13MessageViewer20DKIMManagerKeyWidgetD1Ev
libKPim5MessageViewer.so.5:_ZN13MessageViewer20DKIMManagerKeyWidgetD2Ev
libKPim5MessageViewer.so.5:_ZN13MessageViewer20HeaderStyleInterface11qt_metacallEN11QMetaObject4CallEiPPv
libKPim5MessageViewer.so.5:_ZN13MessageViewer20HeaderStyleInterface11qt_metacastEPKc
libKPim5MessageViewer.so.5:_ZN13MessageViewer20HeaderStyleInterface12styleChangedEPNS_17HeaderStylePluginE
libKPim5MessageViewer.so.5:_ZN13MessageViewer20HeaderStyleInterface12styleUpdatedEv
libKPim5MessageViewer.so.5:_ZN13MessageViewer20HeaderStyleInterface15addActionToMenuEP11KActionMenuP12QActionGroup
libKPim5MessageViewer.so.5:_ZN13MessageViewer20HeaderStyleInterface16slotStyleChangedEv
libKPim5MessageViewer.so.5:_ZN13MessageViewer20HeaderStyleInterface17addHelpTextActionEP7QActionRK7QString
libKPim5MessageViewer.so.5:_ZN13MessageViewer20HeaderStyleInterfaceC1EPNS_17HeaderStylePluginEP7QObject
libKPim5MessageViewer.so.5:_ZN13MessageViewer20HeaderStyleInterfaceC2EPNS_17HeaderStylePluginEP7QObject
libKPim5MessageViewer.so.5:_ZN13MessageViewer20HeaderStyleInterfaceD0Ev
libKPim5MessageViewer.so.5:_ZN13MessageViewer20HeaderStyleInterfaceD1Ev
libKPim5MessageViewer.so.5:_ZN13MessageViewer20HeaderStyleInterfaceD2Ev
libKPim5MessageViewer.so.5:_ZN13MessageViewer20RemoteContentManager11qt_metacallEN11QMetaObject4CallEiPPv
libKPim5MessageViewer.so.5:_ZN13MessageViewer20RemoteContentManager11qt_metacastEPKc
libKPim5MessageViewer.so.5:_ZN13MessageViewer20RemoteContentManager12loadSettingsEv
libKPim5MessageViewer.so.5:_ZN13MessageViewer20RemoteContentManager13writeSettingsEv
libKPim5MessageViewer.so.5:_ZN13MessageViewer20RemoteContentManager16addRemoteContentERKNS_17RemoteContentInfoE
libKPim5MessageViewer.so.5:_ZN13MessageViewer20RemoteContentManager20setRemoveContentInfoERK7QVectorINS_17RemoteContentInfoEE
libKPim5MessageViewer.so.5:_ZN13MessageViewer20RemoteContentManager4selfEv
libKPim5MessageViewer.so.5:_ZN13MessageViewer20RemoteContentManager5clearEv
libKPim5MessageViewer.so.5:_ZN13MessageViewer20RemoteContentManagerC1EP7QObject
libKPim5MessageViewer.so.5:_ZN13MessageViewer20RemoteContentManagerC2EP7QObject
libKPim5MessageViewer.so.5:_ZN13MessageViewer20RemoteContentManagerD0Ev
libKPim5MessageViewer.so.5:_ZN13MessageViewer20RemoteContentManagerD1Ev
libKPim5MessageViewer.so.5:_ZN13MessageViewer20RemoteContentManagerD2Ev
libKPim5MessageViewer.so.5:_ZN13MessageViewer21DKIMCheckSignatureJob10setMessageERK14QSharedPointerIN5KMime7MessageEE
libKPim5MessageViewer.so.5:_ZN13MessageViewer21DKIMCheckSignatureJob10setWarningENS0_11DKIMWarningE
libKPim5MessageViewer.so.5:_ZN13MessageViewer21DKIMCheckSignatureJob11qt_metacallEN11QMetaObject4CallEiPPv
libKPim5MessageViewer.so.5:_ZN13MessageViewer21DKIMCheckSignatureJob11qt_metacastEPKc
libKPim5MessageViewer.so.5:_ZN13MessageViewer21DKIMCheckSignatureJob14checkSignatureERKNS_8DKIMInfoE
libKPim5MessageViewer.so.5:_ZN13MessageViewer21DKIMCheckSignatureJob15setHeaderParserERKNS_16DKIMHeaderParserE
libKPim5MessageViewer.so.5:_ZN13MessageViewer21DKIMCheckSignatureJob37setCheckSignatureAuthenticationResultERK7QVectorINS0_38DKIMCheckSignatureAuthenticationResultEE
libKPim5MessageViewer.so.5:_ZN13MessageViewer21DKIMCheckSignatureJob5startEv
libKPim5MessageViewer.so.5:_ZN13MessageViewer21DKIMCheckSignatureJob6resultERKNS0_20CheckSignatureResultE
libKPim5MessageViewer.so.5:_ZN13MessageViewer21DKIMCheckSignatureJob8storeKeyERK7QStringS3_S3_
libKPim5MessageViewer.so.5:_ZN13MessageViewer21DKIMCheckSignatureJob9setPolicyERKNS_15DKIMCheckPolicyE
libKPim5MessageViewer.so.5:_ZN13MessageViewer21DKIMCheckSignatureJob9setStatusENS0_10DKIMStatusE
libKPim5MessageViewer.so.5:_ZN13MessageViewer21DKIMCheckSignatureJobC1EP7QObject
libKPim5MessageViewer.so.5:_ZN13MessageViewer21DKIMCheckSignatureJobC2EP7QObject
libKPim5MessageViewer.so.5:_ZN13MessageViewer21DKIMCheckSignatureJobD0Ev
libKPim5MessageViewer.so.5:_ZN13MessageViewer21DKIMCheckSignatureJobD1Ev
libKPim5MessageViewer.so.5:_ZN13MessageViewer21DKIMCheckSignatureJobD2Ev
libKPim5MessageViewer.so.5:_ZN13MessageViewer21DKIMManageRulesDialog11qt_metacallEN11QMetaObject4CallEiPPv
libKPim5MessageViewer.so.5:_ZN13MessageViewer21DKIMManageRulesDialog11qt_metacastEPKc
libKPim5MessageViewer.so.5:_ZN13MessageViewer21DKIMManageRulesDialogC1EP7QWidget
libKPim5MessageViewer.so.5:_ZN13MessageViewer21DKIMManageRulesDialogC2EP7QWidget
libKPim5MessageViewer.so.5:_ZN13MessageViewer21DKIMManageRulesDialogD0Ev
libKPim5MessageViewer.so.5:_ZN13MessageViewer21DKIMManageRulesDialogD1Ev
libKPim5MessageViewer.so.5:_ZN13MessageViewer21DKIMManageRulesDialogD2Ev
libKPim5MessageViewer.so.5:_ZN13MessageViewer21DKIMManageRulesWidget11qt_metacallEN11QMetaObject4CallEiPPv
libKPim5MessageViewer.so.5:_ZN13MessageViewer21DKIMManageRulesWidget11qt_metacastEPKc
libKPim5MessageViewer.so.5:_ZN13MessageViewer21DKIMManageRulesWidget11updateRulesEv
libKPim5MessageViewer.so.5:_ZN13MessageViewer21DKIMManageRulesWidget12loadSettingsEv
libKPim5MessageViewer.so.5:_ZN13MessageViewer21DKIMManageRulesWidget12saveSettingsEv
libKPim5MessageViewer.so.5:_ZN13MessageViewer21DKIMManageRulesWidget14restoreHeadersERK10QByteArray
libKPim5MessageViewer.so.5:_ZN13MessageViewer21DKIMManageRulesWidget18updateExportButtonEb
libKPim5MessageViewer.so.5:_ZN13MessageViewer21DKIMManageRulesWidget7addRuleEv
libKPim5MessageViewer.so.5:_ZN13MessageViewer21DKIMManageRulesWidgetC1EP7QWidget
libKPim5MessageViewer.so.5:_ZN13MessageViewer21DKIMManageRulesWidgetC2EP7QWidget
libKPim5MessageViewer.so.5:_ZN13MessageViewer21DKIMManageRulesWidgetD0Ev
libKPim5MessageViewer.so.5:_ZN13MessageViewer21DKIMManageRulesWidgetD1Ev
libKPim5MessageViewer.so.5:_ZN13MessageViewer21DKIMManageRulesWidgetD2Ev
libKPim5MessageViewer.so.5:_ZN13MessageViewer21MessageViewerRenderer16setCurrentWidgetEP7QWidget
libKPim5MessageViewer.so.5:_ZN13MessageViewer21MessageViewerRenderer17recreateCssHelperEv
libKPim5MessageViewer.so.5:_ZN13MessageViewer21MessageViewerRendererC1Ev
libKPim5MessageViewer.so.5:_ZN13MessageViewer21MessageViewerRendererC2Ev
libKPim5MessageViewer.so.5:_ZN13MessageViewer21MessageViewerRendererD1Ev
libKPim5MessageViewer.so.5:_ZN13MessageViewer21MessageViewerRendererD2Ev
libKPim5MessageViewer.so.5:_ZN13MessageViewer21MessageViewerSettings11qt_metacallEN11QMetaObject4CallEiPPv
libKPim5MessageViewer.so.5:_ZN13MessageViewer21MessageViewerSettings11qt_metacastEPKc
libKPim5MessageViewer.so.5:_ZN13MessageViewer21MessageViewerSettings11requestSyncEv
libKPim5MessageViewer.so.5:_ZN13MessageViewer21MessageViewerSettings4selfEv
libKPim5MessageViewer.so.5:_ZN13MessageViewer21MessageViewerSettingsD0Ev
libKPim5MessageViewer.so.5:_ZN13MessageViewer21MessageViewerSettingsD1Ev
libKPim5MessageViewer.so.5:_ZN13MessageViewer21MessageViewerSettingsD2Ev
libKPim5MessageViewer.so.5:_ZN13MessageViewer21ShowNextMessageWidget11qt_metacallEN11QMetaObject4CallEiPPv
libKPim5MessageViewer.so.5:_ZN13MessageViewer21ShowNextMessageWidget11qt_metacastEPKc
libKPim5MessageViewer.so.5:_ZN13MessageViewer21ShowNextMessageWidget12updateButtonEbb
libKPim5MessageViewer.so.5:_ZN13MessageViewer21ShowNextMessageWidget15showNextMessageEv
libKPim5MessageViewer.so.5:_ZN13MessageViewer21ShowNextMessageWidget19showPreviousMessageEv
libKPim5MessageViewer.so.5:_ZN13MessageViewer21ShowNextMessageWidgetC1EP7QWidget
libKPim5MessageViewer.so.5:_ZN13MessageViewer21ShowNextMessageWidgetC2EP7QWidget
libKPim5MessageViewer.so.5:_ZN13MessageViewer21ShowNextMessageWidgetD0Ev
libKPim5MessageViewer.so.5:_ZN13MessageViewer21ShowNextMessageWidgetD1Ev
libKPim5MessageViewer.so.5:_ZN13MessageViewer21ShowNextMessageWidgetD2Ev
libKPim5MessageViewer.so.5:_ZN13MessageViewer21ViewerPluginInterface10setMessageERK14QSharedPointerIN5KMime7MessageEE
libKPim5MessageViewer.so.5:_ZN13MessageViewer21ViewerPluginInterface10showWidgetEv
libKPim5MessageViewer.so.5:_ZN13MessageViewer21ViewerPluginInterface11closePluginEv
libKPim5MessageViewer.so.5:_ZN13MessageViewer21ViewerPluginInterface11qt_metacallEN11QMetaObject4CallEiPPv
libKPim5MessageViewer.so.5:_ZN13MessageViewer21ViewerPluginInterface11qt_metacastEPKc
libKPim5MessageViewer.so.5:_ZN13MessageViewer21ViewerPluginInterface12updateActionERKN7Akonadi4ItemE
libKPim5MessageViewer.so.5:_ZN13MessageViewer21ViewerPluginInterface14activatePluginEPS0_
libKPim5MessageViewer.so.5:_ZN13MessageViewer21ViewerPluginInterface14setMessageItemERKN7Akonadi4ItemE
libKPim5MessageViewer.so.5:_ZN13MessageViewer21ViewerPluginInterface17addHelpTextActionEP7QActionRK7QString
libKPim5MessageViewer.so.5:_ZN13MessageViewer21ViewerPluginInterface17refreshActionListEP17KActionCollection
libKPim5MessageViewer.so.5:_ZN13MessageViewer21ViewerPluginInterface18slotActivatePluginEv
libKPim5MessageViewer.so.5:_ZN13MessageViewer21ViewerPluginInterface20setCurrentCollectionERKN7Akonadi10CollectionE
libKPim5MessageViewer.so.5:_ZN13MessageViewer21ViewerPluginInterface6setUrlERK4QUrl
libKPim5MessageViewer.so.5:_ZN13MessageViewer21ViewerPluginInterface7executeEv
libKPim5MessageViewer.so.5:_ZN13MessageViewer21ViewerPluginInterface7setTextERK7QString
libKPim5MessageViewer.so.5:_ZN13MessageViewer21ViewerPluginInterfaceC1EP7QObject
libKPim5MessageViewer.so.5:_ZN13MessageViewer21ViewerPluginInterfaceC2EP7QObject
libKPim5MessageViewer.so.5:_ZN13MessageViewer21ViewerPluginInterfaceD0Ev
libKPim5MessageViewer.so.5:_ZN13MessageViewer21ViewerPluginInterfaceD1Ev
libKPim5MessageViewer.so.5:_ZN13MessageViewer21ViewerPluginInterfaceD2Ev
libKPim5MessageViewer.so.5:_ZN13MessageViewer22HeaderStyleMenuManager10readConfigEv
libKPim5MessageViewer.so.5:_ZN13MessageViewer22HeaderStyleMenuManager11qt_metacallEN11QMetaObject4CallEiPPv
libKPim5MessageViewer.so.5:_ZN13MessageViewer22HeaderStyleMenuManager11qt_metacastEPKc
libKPim5MessageViewer.so.5:_ZN13MessageViewer22HeaderStyleMenuManager12styleChangedEPNS_17HeaderStylePluginE
libKPim5MessageViewer.so.5:_ZN13MessageViewer22HeaderStyleMenuManager12styleUpdatedEv
libKPim5MessageViewer.so.5:_ZN13MessageViewer22HeaderStyleMenuManager13setPluginNameERK7QString
libKPim5MessageViewer.so.5:_ZN13MessageViewer22HeaderStyleMenuManager16slotStyleChangedEPNS_17HeaderStylePluginE
libKPim5MessageViewer.so.5:_ZN13MessageViewer22HeaderStyleMenuManagerC1EP17KActionCollectionP7QObject
libKPim5MessageViewer.so.5:_ZN13MessageViewer22HeaderStyleMenuManagerC2EP17KActionCollectionP7QObject
libKPim5MessageViewer.so.5:_ZN13MessageViewer22HeaderStyleMenuManagerD0Ev
libKPim5MessageViewer.so.5:_ZN13MessageViewer22HeaderStyleMenuManagerD1Ev
libKPim5MessageViewer.so.5:_ZN13MessageViewer22HeaderStyleMenuManagerD2Ev
libKPim5MessageViewer.so.5:_ZN13MessageViewer22MarkMessageReadHandler11qt_metacallEN11QMetaObject4CallEiPPv
libKPim5MessageViewer.so.5:_ZN13MessageViewer22MarkMessageReadHandler11qt_metacastEPKc
libKPim5MessageViewer.so.5:_ZN13MessageViewer22MarkMessageReadHandler29MarkMessageReadHandlerPrivate14handleMessagesEv
libKPim5MessageViewer.so.5:_ZN13MessageViewer22MarkMessageReadHandler7setItemERKN7Akonadi4ItemE
libKPim5MessageViewer.so.5:_ZN13MessageViewer22MarkMessageReadHandlerC1EP7QObject
libKPim5MessageViewer.so.5:_ZN13MessageViewer22MarkMessageReadHandlerC2EP7QObject
libKPim5MessageViewer.so.5:_ZN13MessageViewer22MarkMessageReadHandlerD0Ev
libKPim5MessageViewer.so.5:_ZN13MessageViewer22MarkMessageReadHandlerD1Ev
libKPim5MessageViewer.so.5:_ZN13MessageViewer22MarkMessageReadHandlerD2Ev
libKPim5MessageViewer.so.5:_ZN13MessageViewer22ScamDetectionWebEngine11qt_metacallEN11QMetaObject4CallEiPPv
libKPim5MessageViewer.so.5:_ZN13MessageViewer22ScamDetectionWebEngine11qt_metacastEPKc
libKPim5MessageViewer.so.5:_ZN13MessageViewer22ScamDetectionWebEngine11showDetailsEv
libKPim5MessageViewer.so.5:_ZN13MessageViewer22ScamDetectionWebEngine17messageMayBeAScamEv
libKPim5MessageViewer.so.5:_ZN13MessageViewer22ScamDetectionWebEngine19resultScanDetectionEb
libKPim5MessageViewer.so.5:_ZN13MessageViewer22ScamDetectionWebEngine8scanPageEP14QWebEnginePage
libKPim5MessageViewer.so.5:_ZN13MessageViewer22ScamDetectionWebEngineC1EP7QObject
libKPim5MessageViewer.so.5:_ZN13MessageViewer22ScamDetectionWebEngineC2EP7QObject
libKPim5MessageViewer.so.5:_ZN13MessageViewer22ScamDetectionWebEngineD0Ev
libKPim5MessageViewer.so.5:_ZN13MessageViewer22ScamDetectionWebEngineD1Ev
libKPim5MessageViewer.so.5:_ZN13MessageViewer22ScamDetectionWebEngineD2Ev
libKPim5MessageViewer.so.5:_ZN13MessageViewer23DKIMManageRulesComboBox11qt_metacallEN11QMetaObject4CallEiPPv
libKPim5MessageViewer.so.5:_ZN13MessageViewer23DKIMManageRulesComboBox11qt_metacastEPKc
libKPim5MessageViewer.so.5:_ZN13MessageViewer23DKIMManageRulesComboBox11setRuleTypeENS_8DKIMRule8RuleTypeE
libKPim5MessageViewer.so.5:_ZN13MessageViewer23DKIMManageRulesComboBox4initEv
libKPim5MessageViewer.so.5:_ZN13MessageViewer23DKIMManageRulesComboBoxC1EP7QWidget
libKPim5MessageViewer.so.5:_ZN13MessageViewer23DKIMManageRulesComboBoxC2EP7QWidget
libKPim5MessageViewer.so.5:_ZN13MessageViewer23DKIMManageRulesComboBoxD0Ev
libKPim5MessageViewer.so.5:_ZN13MessageViewer23DKIMManageRulesComboBoxD1Ev
libKPim5MessageViewer.so.5:_ZN13MessageViewer23DKIMManageRulesComboBoxD2Ev
libKPim5MessageViewer.so.5:_ZN13MessageViewer23GrantleeHeaderFormatterC1Ev
libKPim5MessageViewer.so.5:_ZN13MessageViewer23GrantleeHeaderFormatterC2Ev
libKPim5MessageViewer.so.5:_ZN13MessageViewer23GrantleeHeaderFormatterD1Ev
libKPim5MessageViewer.so.5:_ZN13MessageViewer23GrantleeHeaderFormatterD2Ev
libKPim5MessageViewer.so.5:_ZN13MessageViewer23GrantleeHeaderTestStyle15setAbsolutePathERK7QString
libKPim5MessageViewer.so.5:_ZN13MessageViewer23GrantleeHeaderTestStyle15setMainFilenameERK7QString
libKPim5MessageViewer.so.5:_ZN13MessageViewer23GrantleeHeaderTestStyle22setExtraDisplayHeadersERK11QStringList
libKPim5MessageViewer.so.5:_ZN13MessageViewer23GrantleeHeaderTestStyleC1Ev
libKPim5MessageViewer.so.5:_ZN13MessageViewer23GrantleeHeaderTestStyleC2Ev
libKPim5MessageViewer.so.5:_ZN13MessageViewer23GrantleeHeaderTestStyleD0Ev
libKPim5MessageViewer.so.5:_ZN13MessageViewer23GrantleeHeaderTestStyleD1Ev
libKPim5MessageViewer.so.5:_ZN13MessageViewer23GrantleeHeaderTestStyleD2Ev
libKPim5MessageViewer.so.5:_ZN13MessageViewer23MessagePartRenderPluginD0Ev
libKPim5MessageViewer.so.5:_ZN13MessageViewer23MessagePartRenderPluginD1Ev
libKPim5MessageViewer.so.5:_ZN13MessageViewer23MessagePartRenderPluginD2Ev
libKPim5MessageViewer.so.5:_ZN13MessageViewer23MessagePartRendererBaseC1Ev
libKPim5MessageViewer.so.5:_ZN13MessageViewer23MessagePartRendererBaseC2Ev
libKPim5MessageViewer.so.5:_ZN13MessageViewer23MessagePartRendererBaseD0Ev
libKPim5MessageViewer.so.5:_ZN13MessageViewer23MessagePartRendererBaseD1Ev
libKPim5MessageViewer.so.5:_ZN13MessageViewer23MessagePartRendererBaseD2Ev
libKPim5MessageViewer.so.5:_ZN13MessageViewer23RemoteContentWidgetItem9setStatusENS_17RemoteContentInfo23RemoteContentInfoStatusE
libKPim5MessageViewer.so.5:_ZN13MessageViewer23RemoteContentWidgetItemC1EP11QTreeWidget
libKPim5MessageViewer.so.5:_ZN13MessageViewer23RemoteContentWidgetItemC2EP11QTreeWidget
libKPim5MessageViewer.so.5:_ZN13MessageViewer23RemoteContentWidgetItemD0Ev
libKPim5MessageViewer.so.5:_ZN13MessageViewer23RemoteContentWidgetItemD1Ev
libKPim5MessageViewer.so.5:_ZN13MessageViewer23RemoteContentWidgetItemD2Ev
libKPim5MessageViewer.so.5:_ZN13MessageViewer23ViewerPluginToolManager10createViewEv
libKPim5MessageViewer.so.5:_ZN13MessageViewer23ViewerPluginToolManager11qt_metacallEN11QMetaObject4CallEiPPv
libKPim5MessageViewer.so.5:_ZN13MessageViewer23ViewerPluginToolManager11qt_metacastEPKc
libKPim5MessageViewer.so.5:_ZN13MessageViewer23ViewerPluginToolManager13closeAllToolsEv
libKPim5MessageViewer.so.5:_ZN13MessageViewer23ViewerPluginToolManager13setPluginNameERK7QString
libKPim5MessageViewer.so.5:_ZN13MessageViewer23ViewerPluginToolManager13updateActionsERKN7Akonadi4ItemE
libKPim5MessageViewer.so.5:_ZN13MessageViewer23ViewerPluginToolManager14activatePluginEPNS_21ViewerPluginInterfaceE
libKPim5MessageViewer.so.5:_ZN13MessageViewer23ViewerPluginToolManager17refreshActionListEv
libKPim5MessageViewer.so.5:_ZN13MessageViewer23ViewerPluginToolManager18setPluginDirectoryERK7QString
libKPim5MessageViewer.so.5:_ZN13MessageViewer23ViewerPluginToolManager19setActionCollectionEP17KActionCollection
libKPim5MessageViewer.so.5:_ZN13MessageViewer23ViewerPluginToolManager20initializePluginListEv
libKPim5MessageViewer.so.5:_ZN13MessageViewer23ViewerPluginToolManagerC1EP7QWidgetP7QObject
libKPim5MessageViewer.so.5:_ZN13MessageViewer23ViewerPluginToolManagerC2EP7QWidgetP7QObject
libKPim5MessageViewer.so.5:_ZN13MessageViewer23ViewerPluginToolManagerD0Ev
libKPim5MessageViewer.so.5:_ZN13MessageViewer23ViewerPluginToolManagerD1Ev
libKPim5MessageViewer.so.5:_ZN13MessageViewer23ViewerPluginToolManagerD2Ev
libKPim5MessageViewer.so.5:_ZN13MessageViewer24HeaderStylePluginManager11qt_metacallEN11QMetaObject4CallEiPPv
libKPim5MessageViewer.so.5:_ZN13MessageViewer24HeaderStylePluginManager11qt_metacastEPKc
libKPim5MessageViewer.so.5:_ZN13MessageViewer24HeaderStylePluginManager20pluginFromIdentifierERK7QString
libKPim5MessageViewer.so.5:_ZN13MessageViewer24HeaderStylePluginManager4selfEv
libKPim5MessageViewer.so.5:_ZN13MessageViewer24HeaderStylePluginManagerC1EP7QObject
libKPim5MessageViewer.so.5:_ZN13MessageViewer24HeaderStylePluginManagerC2EP7QObject
libKPim5MessageViewer.so.5:_ZN13MessageViewer24HeaderStylePluginManagerD0Ev
libKPim5MessageViewer.so.5:_ZN13MessageViewer24HeaderStylePluginManagerD1Ev
libKPim5MessageViewer.so.5:_ZN13MessageViewer24HeaderStylePluginManagerD2Ev
libKPim5MessageViewer.so.5:_ZN13MessageViewer24ScamCheckShortUrlManager11qt_metacallEN11QMetaObject4CallEiPPv
libKPim5MessageViewer.so.5:_ZN13MessageViewer24ScamCheckShortUrlManager11qt_metacastEPKc
libKPim5MessageViewer.so.5:_ZN13MessageViewer24ScamCheckShortUrlManager4selfEv
libKPim5MessageViewer.so.5:_ZN13MessageViewer24ScamCheckShortUrlManagerC1EP7QObject
libKPim5MessageViewer.so.5:_ZN13MessageViewer24ScamCheckShortUrlManagerC2EP7QObject
libKPim5MessageViewer.so.5:_ZN13MessageViewer24ScamCheckShortUrlManagerD0Ev
libKPim5MessageViewer.so.5:_ZN13MessageViewer24ScamCheckShortUrlManagerD1Ev
libKPim5MessageViewer.so.5:_ZN13MessageViewer24ScamCheckShortUrlManagerD2Ev
libKPim5MessageViewer.so.5:_ZN13MessageViewer25BodyPartURLHandlerManager15registerHandlerEPKNS_9Interface18BodyPartURLHandlerERK7QString
libKPim5MessageViewer.so.5:_ZN13MessageViewer25BodyPartURLHandlerManager17unregisterHandlerEPKNS_9Interface18BodyPartURLHandlerE
libKPim5MessageViewer.so.5:_ZN13MessageViewer25BodyPartURLHandlerManagerD0Ev
libKPim5MessageViewer.so.5:_ZN13MessageViewer25BodyPartURLHandlerManagerD1Ev
libKPim5MessageViewer.so.5:_ZN13MessageViewer25BodyPartURLHandlerManagerD2Ev
libKPim5MessageViewer.so.5:_ZN13MessageViewer25DKIMManageRulesWidgetItem10updateInfoEv
libKPim5MessageViewer.so.5:_ZN13MessageViewer25DKIMManageRulesWidgetItem7setRuleERKNS_8DKIMRuleE
libKPim5MessageViewer.so.5:_ZN13MessageViewer25DKIMManageRulesWidgetItemC1EP11QTreeWidget
libKPim5MessageViewer.so.5:_ZN13MessageViewer25DKIMManageRulesWidgetItemC2EP11QTreeWidget
libKPim5MessageViewer.so.5:_ZN13MessageViewer25DKIMManageRulesWidgetItemD0Ev
libKPim5MessageViewer.so.5:_ZN13MessageViewer25DKIMManageRulesWidgetItemD1Ev
libKPim5MessageViewer.so.5:_ZN13MessageViewer25DKIMManageRulesWidgetItemD2Ev
libKPim5MessageViewer.so.5:_ZN13MessageViewer25MessageViewerSettingsBase4selfEv
libKPim5MessageViewer.so.5:_ZN13MessageViewer25MessageViewerSettingsBaseC1Ev
libKPim5MessageViewer.so.5:_ZN13MessageViewer25MessageViewerSettingsBaseC2Ev
libKPim5MessageViewer.so.5:_ZN13MessageViewer25MessageViewerSettingsBaseD0Ev
libKPim5MessageViewer.so.5:_ZN13MessageViewer25MessageViewerSettingsBaseD1Ev
libKPim5MessageViewer.so.5:_ZN13MessageViewer25MessageViewerSettingsBaseD2Ev
libKPim5MessageViewer.so.5:_ZN13MessageViewer26MessagePartRendererFactory13setPluginPathERK7QString
libKPim5MessageViewer.so.5:_ZN13MessageViewer26MessagePartRendererFactory8instanceEv
libKPim5MessageViewer.so.5:_ZN13MessageViewer26MessagePartRendererFactoryC1Ev
libKPim5MessageViewer.so.5:_ZN13MessageViewer26MessagePartRendererFactoryC2Ev
libKPim5MessageViewer.so.5:_ZN13MessageViewer26MessagePartRendererFactoryD1Ev
libKPim5MessageViewer.so.5:_ZN13MessageViewer26MessagePartRendererFactoryD2Ev
libKPim5MessageViewer.so.5:_ZN13MessageViewer26MessagePartRendererManager10loadByNameERK7QString
libKPim5MessageViewer.so.5:_ZN13MessageViewer26MessagePartRendererManager11qt_metacallEN11QMetaObject4CallEiPPv
libKPim5MessageViewer.so.5:_ZN13MessageViewer26MessagePartRendererManager11qt_metacastEPKc
libKPim5MessageViewer.so.5:_ZN13MessageViewer26MessagePartRendererManager13createContextEv
libKPim5MessageViewer.so.5:_ZN13MessageViewer26MessagePartRendererManager18initializeRendererEv
libKPim5MessageViewer.so.5:_ZN13MessageViewer26MessagePartRendererManager4selfEv
libKPim5MessageViewer.so.5:_ZN13MessageViewer26MessagePartRendererManagerC1EP7QObject
libKPim5MessageViewer.so.5:_ZN13MessageViewer26MessagePartRendererManagerC2EP7QObject
libKPim5MessageViewer.so.5:_ZN13MessageViewer26MessagePartRendererManagerD0Ev
libKPim5MessageViewer.so.5:_ZN13MessageViewer26MessagePartRendererManagerD1Ev
libKPim5MessageViewer.so.5:_ZN13MessageViewer26MessagePartRendererManagerD2Ev
libKPim5MessageViewer.so.5:_ZN13MessageViewer26ScamDetectionWarningWidget11qt_metacallEN11QMetaObject4CallEiPPv
libKPim5MessageViewer.so.5:_ZN13MessageViewer26ScamDetectionWarningWidget11qt_metacastEPKc
libKPim5MessageViewer.so.5:_ZN13MessageViewer26ScamDetectionWarningWidget11showDetailsEv
libKPim5MessageViewer.so.5:_ZN13MessageViewer26ScamDetectionWarningWidget14addToWhiteListEv
libKPim5MessageViewer.so.5:_ZN13MessageViewer26ScamDetectionWarningWidget15slotShowDetailsERK7QString
libKPim5MessageViewer.so.5:_ZN13MessageViewer26ScamDetectionWarningWidget15slotShowWarningEv
libKPim5MessageViewer.so.5:_ZN13MessageViewer26ScamDetectionWarningWidget16setUseInTestAppsEb
libKPim5MessageViewer.so.5:_ZN13MessageViewer26ScamDetectionWarningWidget17messageIsNotAScamEv
libKPim5MessageViewer.so.5:_ZN13MessageViewer26ScamDetectionWarningWidget18moveMessageToTrashEv
libKPim5MessageViewer.so.5:_ZN13MessageViewer26ScamDetectionWarningWidget18slotAddToWhiteListEv
libKPim5MessageViewer.so.5:_ZN13MessageViewer26ScamDetectionWarningWidget21slotMessageIsNotAScamEv
libKPim5MessageViewer.so.5:_ZN13MessageViewer26ScamDetectionWarningWidget24slotDisableScamDetectionEv
libKPim5MessageViewer.so.5:_ZN13MessageViewer26ScamDetectionWarningWidgetC1EP7QWidget
libKPim5MessageViewer.so.5:_ZN13MessageViewer26ScamDetectionWarningWidgetC2EP7QWidget
libKPim5MessageViewer.so.5:_ZN13MessageViewer26ScamDetectionWarningWidgetD0Ev
libKPim5MessageViewer.so.5:_ZN13MessageViewer26ScamDetectionWarningWidgetD1Ev
libKPim5MessageViewer.so.5:_ZN13MessageViewer26ScamDetectionWarningWidgetD2Ev
libKPim5MessageViewer.so.5:_ZN13MessageViewer28AbstractMessageLoadedHandler10setSessionEPN7Akonadi7SessionE
libKPim5MessageViewer.so.5:_ZN13MessageViewer28AbstractMessageLoadedHandlerC1Ev
libKPim5MessageViewer.so.5:_ZN13MessageViewer28AbstractMessageLoadedHandlerC2Ev
libKPim5MessageViewer.so.5:_ZN13MessageViewer28AbstractMessageLoadedHandlerD0Ev
libKPim5MessageViewer.so.5:_ZN13MessageViewer28AbstractMessageLoadedHandlerD1Ev
libKPim5MessageViewer.so.5:_ZN13MessageViewer28AbstractMessageLoadedHandlerD2Ev
libKPim5MessageViewer.so.5:_ZN13MessageViewer28DKIMAuthenticationStatusInfo13setAuthservIdERK7QString
libKPim5MessageViewer.so.5:_ZN13MessageViewer28DKIMAuthenticationStatusInfo13setReasonSpecERK7QString
libKPim5MessageViewer.so.5:_ZN13MessageViewer28DKIMAuthenticationStatusInfo14setAuthVersionEi
libKPim5MessageViewer.so.5:_ZN13MessageViewer28DKIMAuthenticationStatusInfo19parseAuthResultInfoER7QStringb
libKPim5MessageViewer.so.5:_ZN13MessageViewer28DKIMAuthenticationStatusInfo21setListAuthStatusInfoERK7QVectorINS0_14AuthStatusInfoEE
libKPim5MessageViewer.so.5:_ZN13MessageViewer28DKIMAuthenticationStatusInfo25parseAuthenticationStatusERK7QStringb
libKPim5MessageViewer.so.5:_ZN13MessageViewer28DKIMAuthenticationStatusInfoC1Ev
libKPim5MessageViewer.so.5:_ZN13MessageViewer28DKIMAuthenticationStatusInfoC2Ev
libKPim5MessageViewer.so.5:_ZN13MessageViewer28RemoteContentConfigureDialog11qt_metacallEN11QMetaObject4CallEiPPv
libKPim5MessageViewer.so.5:_ZN13MessageViewer28RemoteContentConfigureDialog11qt_metacastEPKc
libKPim5MessageViewer.so.5:_ZN13MessageViewer28RemoteContentConfigureDialogC1EP7QWidget
libKPim5MessageViewer.so.5:_ZN13MessageViewer28RemoteContentConfigureDialogC2EP7QWidget
libKPim5MessageViewer.so.5:_ZN13MessageViewer28RemoteContentConfigureDialogD0Ev
libKPim5MessageViewer.so.5:_ZN13MessageViewer28RemoteContentConfigureDialogD1Ev
libKPim5MessageViewer.so.5:_ZN13MessageViewer28RemoteContentConfigureDialogD2Ev
libKPim5MessageViewer.so.5:_ZN13MessageViewer28RemoteContentConfigureWidget11qt_metacallEN11QMetaObject4CallEiPPv
libKPim5MessageViewer.so.5:_ZN13MessageViewer28RemoteContentConfigureWidget11qt_metacastEPKc
libKPim5MessageViewer.so.5:_ZN13MessageViewer28RemoteContentConfigureWidget12readSettingsEv
libKPim5MessageViewer.so.5:_ZN13MessageViewer28RemoteContentConfigureWidget12saveSettingsEv
libKPim5MessageViewer.so.5:_ZN13MessageViewer28RemoteContentConfigureWidget15fillContentInfoERKNS_17RemoteContentInfoEPNS_23RemoteContentWidgetItemE
libKPim5MessageViewer.so.5:_ZN13MessageViewer28RemoteContentConfigureWidget19modifyRemoteContentEPNS_23RemoteContentWidgetItemE
libKPim5MessageViewer.so.5:_ZN13MessageViewer28RemoteContentConfigureWidget23insertRemoteContentInfoERKNS_17RemoteContentInfoE
libKPim5MessageViewer.so.5:_ZN13MessageViewer28RemoteContentConfigureWidget30slotCustomContextMenuRequestedERK6QPoint
libKPim5MessageViewer.so.5:_ZN13MessageViewer28RemoteContentConfigureWidget7slotAddEv
libKPim5MessageViewer.so.5:_ZN13MessageViewer28RemoteContentConfigureWidgetC1EP7QWidget
libKPim5MessageViewer.so.5:_ZN13MessageViewer28RemoteContentConfigureWidgetC2EP7QWidget
libKPim5MessageViewer.so.5:_ZN13MessageViewer28RemoteContentConfigureWidgetD0Ev
libKPim5MessageViewer.so.5:_ZN13MessageViewer28RemoteContentConfigureWidgetD1Ev
libKPim5MessageViewer.so.5:_ZN13MessageViewer28RemoteContentConfigureWidgetD2Ev
libKPim5MessageViewer.so.5:_ZN13MessageViewer29MessageDisplayFormatAttribute11deserializeERK10QByteArray
libKPim5MessageViewer.so.5:_ZN13MessageViewer29MessageDisplayFormatAttribute16setMessageFormatENS_6Viewer20DisplayFormatMessageE
libKPim5MessageViewer.so.5:_ZN13MessageViewer29MessageDisplayFormatAttribute16setRemoteContentEb
libKPim5MessageViewer.so.5:_ZN13MessageViewer29MessageDisplayFormatAttributeC1Ev
libKPim5MessageViewer.so.5:_ZN13MessageViewer29MessageDisplayFormatAttributeC2Ev
libKPim5MessageViewer.so.5:_ZN13MessageViewer29MessageDisplayFormatAttributeD0Ev
libKPim5MessageViewer.so.5:_ZN13MessageViewer29MessageDisplayFormatAttributeD1Ev
libKPim5MessageViewer.so.5:_ZN13MessageViewer29MessageDisplayFormatAttributeD2Ev
libKPim5MessageViewer.so.5:_ZN13MessageViewer31DKIMManagerAuthenticationServer11qt_metacallEN11QMetaObject4CallEiPPv
libKPim5MessageViewer.so.5:_ZN13MessageViewer31DKIMManagerAuthenticationServer11qt_metacastEPKc
libKPim5MessageViewer.so.5:_ZN13MessageViewer31DKIMManagerAuthenticationServer13setServerListERK11QStringList
libKPim5MessageViewer.so.5:_ZN13MessageViewer31DKIMManagerAuthenticationServer4selfEv
libKPim5MessageViewer.so.5:_ZN13MessageViewer31DKIMManagerAuthenticationServerC1EP7QObject
libKPim5MessageViewer.so.5:_ZN13MessageViewer31DKIMManagerAuthenticationServerC2EP7QObject
libKPim5MessageViewer.so.5:_ZN13MessageViewer31DKIMManagerAuthenticationServerD0Ev
libKPim5MessageViewer.so.5:_ZN13MessageViewer31DKIMManagerAuthenticationServerD1Ev
libKPim5MessageViewer.so.5:_ZN13MessageViewer31DKIMManagerAuthenticationServerD2Ev
libKPim5MessageViewer.so.5:_ZN13MessageViewer31RemoteContentStatusTypeComboBox11qt_metacallEN11QMetaObject4CallEiPPv
libKPim5MessageViewer.so.5:_ZN13MessageViewer31RemoteContentStatusTypeComboBox11qt_metacastEPKc
libKPim5MessageViewer.so.5:_ZN13MessageViewer31RemoteContentStatusTypeComboBox9setStatusENS_17RemoteContentInfo23RemoteContentInfoStatusE
libKPim5MessageViewer.so.5:_ZN13MessageViewer31RemoteContentStatusTypeComboBoxC1EP7QWidget
libKPim5MessageViewer.so.5:_ZN13MessageViewer31RemoteContentStatusTypeComboBoxC2EP7QWidget
libKPim5MessageViewer.so.5:_ZN13MessageViewer31RemoteContentStatusTypeComboBoxD0Ev
libKPim5MessageViewer.so.5:_ZN13MessageViewer31RemoteContentStatusTypeComboBoxD1Ev
libKPim5MessageViewer.so.5:_ZN13MessageViewer31RemoteContentStatusTypeComboBoxD2Ev
libKPim5MessageViewer.so.5:_ZN13MessageViewer32DKIMAuthenticationStatusInfoUtil10ccontent_pEv
libKPim5MessageViewer.so.5:_ZN13MessageViewer32DKIMAuthenticationStatusInfoUtil10qcontent_pEv
libKPim5MessageViewer.so.5:_ZN13MessageViewer32DKIMAuthenticationStatusInfoUtil11localPart_pEv
libKPim5MessageViewer.so.5:_ZN13MessageViewer32DKIMAuthenticationStatusInfoUtil11regexMatchOERK7QString
libKPim5MessageViewer.so.5:_ZN13MessageViewer32DKIMAuthenticationStatusInfoUtil11subDomain_pEv
libKPim5MessageViewer.so.5:_ZN13MessageViewer32DKIMAuthenticationStatusInfoUtil12domainName_pEv
libKPim5MessageViewer.so.5:_ZN13MessageViewer32DKIMAuthenticationStatusInfoUtil12quotedPair_pEv
libKPim5MessageViewer.so.5:_ZN13MessageViewer32DKIMAuthenticationStatusInfoUtil13dotAtomText_pEv
libKPim5MessageViewer.so.5:_ZN13MessageViewer32DKIMAuthenticationStatusInfoUtil14quotedString_pEv
libKPim5MessageViewer.so.5:_ZN13MessageViewer32DKIMAuthenticationStatusInfoUtil15quotedString_cpEv
libKPim5MessageViewer.so.5:_ZN13MessageViewer32DKIMAuthenticationStatusInfoUtil5atextEv
libKPim5MessageViewer.so.5:_ZN13MessageViewer32DKIMAuthenticationStatusInfoUtil5fws_pEv
libKPim5MessageViewer.so.5:_ZN13MessageViewer32DKIMAuthenticationStatusInfoUtil5wsp_pEv
libKPim5MessageViewer.so.5:_ZN13MessageViewer32DKIMAuthenticationStatusInfoUtil6cfws_pEv
libKPim5MessageViewer.so.5:_ZN13MessageViewer32DKIMAuthenticationStatusInfoUtil6fws_opEv
libKPim5MessageViewer.so.5:_ZN13MessageViewer32DKIMAuthenticationStatusInfoUtil7cfws_opEv
libKPim5MessageViewer.so.5:_ZN13MessageViewer32DKIMAuthenticationStatusInfoUtil7ctext_pEv
libKPim5MessageViewer.so.5:_ZN13MessageViewer32DKIMAuthenticationStatusInfoUtil7qtext_pEv
libKPim5MessageViewer.so.5:_ZN13MessageViewer32DKIMAuthenticationStatusInfoUtil7token_pEv
libKPim5MessageViewer.so.5:_ZN13MessageViewer32DKIMAuthenticationStatusInfoUtil7value_pEv
libKPim5MessageViewer.so.5:_ZN13MessageViewer32DKIMAuthenticationStatusInfoUtil7vchar_pEv
libKPim5MessageViewer.so.5:_ZN13MessageViewer32DKIMAuthenticationStatusInfoUtil8ldhStr_pEv
libKPim5MessageViewer.so.5:_ZN13MessageViewer32DKIMAuthenticationStatusInfoUtil8letDig_pEv
libKPim5MessageViewer.so.5:_ZN13MessageViewer32DKIMAuthenticationStatusInfoUtil8obsFws_pEv
libKPim5MessageViewer.so.5:_ZN13MessageViewer32DKIMAuthenticationStatusInfoUtil8value_cpEv
libKPim5MessageViewer.so.5:_ZN13MessageViewer32DKIMAuthenticationStatusInfoUtil9comment_pEv
libKPim5MessageViewer.so.5:_ZN13MessageViewer32DKIMAuthenticationStatusInfoUtil9dotAtom_pEv
libKPim5MessageViewer.so.5:_ZN13MessageViewer32DKIMAuthenticationStatusInfoUtil9keyword_pEv
libKPim5MessageViewer.so.5:_ZN13MessageViewer32DKIMCheckAuthenticationStatusJob11qt_metacallEN11QMetaObject4CallEiPPv
libKPim5MessageViewer.so.5:_ZN13MessageViewer32DKIMCheckAuthenticationStatusJob11qt_metacastEPKc
libKPim5MessageViewer.so.5:_ZN13MessageViewer32DKIMCheckAuthenticationStatusJob15setHeaderParserERKNS_16DKIMHeaderParserE
libKPim5MessageViewer.so.5:_ZN13MessageViewer32DKIMCheckAuthenticationStatusJob20setUseRelaxedParsingEb
libKPim5MessageViewer.so.5:_ZN13MessageViewer32DKIMCheckAuthenticationStatusJob5startEv
libKPim5MessageViewer.so.5:_ZN13MessageViewer32DKIMCheckAuthenticationStatusJob6resultERKNS_28DKIMAuthenticationStatusInfoE
libKPim5MessageViewer.so.5:_ZN13MessageViewer32DKIMCheckAuthenticationStatusJobC1EP7QObject
libKPim5MessageViewer.so.5:_ZN13MessageViewer32DKIMCheckAuthenticationStatusJobC2EP7QObject
libKPim5MessageViewer.so.5:_ZN13MessageViewer32DKIMCheckAuthenticationStatusJobD0Ev
libKPim5MessageViewer.so.5:_ZN13MessageViewer32DKIMCheckAuthenticationStatusJobD1Ev
libKPim5MessageViewer.so.5:_ZN13MessageViewer32DKIMCheckAuthenticationStatusJobD2Ev
libKPim5MessageViewer.so.5:_ZN13MessageViewer36MessageViewerConfigureSettingsPlugin11qt_metacallEN11QMetaObject4CallEiPPv
libKPim5MessageViewer.so.5:_ZN13MessageViewer36MessageViewerConfigureSettingsPlugin11qt_metacastEPKc
libKPim5MessageViewer.so.5:_ZN13MessageViewer36MessageViewerConfigureSettingsPlugin13configChangedEv
libKPim5MessageViewer.so.5:_ZN13MessageViewer36MessageViewerConfigureSettingsPlugin19showConfigureDialogEP7QWidget
libKPim5MessageViewer.so.5:_ZN13MessageViewer36MessageViewerConfigureSettingsPluginC1EP7QObject
libKPim5MessageViewer.so.5:_ZN13MessageViewer36MessageViewerConfigureSettingsPluginC2EP7QObject
libKPim5MessageViewer.so.5:_ZN13MessageViewer36MessageViewerConfigureSettingsPluginD0Ev
libKPim5MessageViewer.so.5:_ZN13MessageViewer36MessageViewerConfigureSettingsPluginD1Ev
libKPim5MessageViewer.so.5:_ZN13MessageViewer36MessageViewerConfigureSettingsPluginD2Ev
libKPim5MessageViewer.so.5:_ZN13MessageViewer37DKIMAuthenticationStatusInfoConverter13setStatusInfoERKNS_28DKIMAuthenticationStatusInfoE
libKPim5MessageViewer.so.5:_ZN13MessageViewer37DKIMAuthenticationStatusInfoConverterC1Ev
libKPim5MessageViewer.so.5:_ZN13MessageViewer37DKIMAuthenticationStatusInfoConverterC2Ev
libKPim5MessageViewer.so.5:_ZN13MessageViewer37DKIMAuthenticationStatusInfoConverterD1Ev
libKPim5MessageViewer.so.5:_ZN13MessageViewer37DKIMAuthenticationStatusInfoConverterD2Ev
libKPim5MessageViewer.so.5:_ZN13MessageViewer37ScamDetectionWhiteListSettingsManager11qt_metacallEN11QMetaObject4CallEiPPv
libKPim5MessageViewer.so.5:_ZN13MessageViewer37ScamDetectionWhiteListSettingsManager11qt_metacastEPKc
libKPim5MessageViewer.so.5:_ZN13MessageViewer37ScamDetectionWhiteListSettingsManager4selfEv
libKPim5MessageViewer.so.5:_ZN13MessageViewer37ScamDetectionWhiteListSettingsManagerC1EP7QObject
libKPim5MessageViewer.so.5:_ZN13MessageViewer37ScamDetectionWhiteListSettingsManagerC2EP7QObject
libKPim5MessageViewer.so.5:_ZN13MessageViewer37ScamDetectionWhiteListSettingsManagerD0Ev
libKPim5MessageViewer.so.5:_ZN13MessageViewer37ScamDetectionWhiteListSettingsManagerD1Ev
libKPim5MessageViewer.so.5:_ZN13MessageViewer37ScamDetectionWhiteListSettingsManagerD2Ev
libKPim5MessageViewer.so.5:_ZN13MessageViewer38MessageViewerCheckBeforeDeletingPlugin11qt_metacallEN11QMetaObject4CallEiPPv
libKPim5MessageViewer.so.5:_ZN13MessageViewer38MessageViewerCheckBeforeDeletingPlugin11qt_metacastEPKc
libKPim5MessageViewer.so.5:_ZN13MessageViewer38MessageViewerCheckBeforeDeletingPlugin12setIsEnabledEb
libKPim5MessageViewer.so.5:_ZN13MessageViewer38MessageViewerCheckBeforeDeletingPlugin13configChangedEv
libKPim5MessageViewer.so.5:_ZN13MessageViewer38MessageViewerCheckBeforeDeletingPlugin19showConfigureDialogEP7QWidget
libKPim5MessageViewer.so.5:_ZN13MessageViewer38MessageViewerCheckBeforeDeletingPluginC1EP7QObject
libKPim5MessageViewer.so.5:_ZN13MessageViewer38MessageViewerCheckBeforeDeletingPluginC2EP7QObject
libKPim5MessageViewer.so.5:_ZN13MessageViewer38MessageViewerCheckBeforeDeletingPluginD0Ev
libKPim5MessageViewer.so.5:_ZN13MessageViewer38MessageViewerCheckBeforeDeletingPluginD1Ev
libKPim5MessageViewer.so.5:_ZN13MessageViewer38MessageViewerCheckBeforeDeletingPluginD2Ev
libKPim5MessageViewer.so.5:_ZN13MessageViewer41MessageViewerCheckBeforeDeletingInterface11qt_metacallEN11QMetaObject4CallEiPPv
libKPim5MessageViewer.so.5:_ZN13MessageViewer41MessageViewerCheckBeforeDeletingInterface11qt_metacastEPKc
libKPim5MessageViewer.so.5:_ZN13MessageViewer41MessageViewerCheckBeforeDeletingInterface12reloadConfigEv
libKPim5MessageViewer.so.5:_ZN13MessageViewer41MessageViewerCheckBeforeDeletingInterface13createActionsEP17KActionCollection
libKPim5MessageViewer.so.5:_ZN13MessageViewer41MessageViewerCheckBeforeDeletingInterface13setParametersERKNS_42MessageViewerCheckBeforeDeletingParametersE
libKPim5MessageViewer.so.5:_ZN13MessageViewer41MessageViewerCheckBeforeDeletingInterface15setParentWidgetEP7QWidget
libKPim5MessageViewer.so.5:_ZN13MessageViewer41MessageViewerCheckBeforeDeletingInterface9configureEP7QWidget
libKPim5MessageViewer.so.5:_ZN13MessageViewer41MessageViewerCheckBeforeDeletingInterfaceC1EP7QObject
libKPim5MessageViewer.so.5:_ZN13MessageViewer41MessageViewerCheckBeforeDeletingInterfaceC2EP7QObject
libKPim5MessageViewer.so.5:_ZN13MessageViewer41MessageViewerCheckBeforeDeletingInterfaceD0Ev
libKPim5MessageViewer.so.5:_ZN13MessageViewer41MessageViewerCheckBeforeDeletingInterfaceD1Ev
libKPim5MessageViewer.so.5:_ZN13MessageViewer41MessageViewerCheckBeforeDeletingInterfaceD2Ev
libKPim5MessageViewer.so.5:_ZN13MessageViewer42MessageViewerCheckBeforeDeletingParameters13setDeleteTypeENS0_10DeleteTypeE
libKPim5MessageViewer.so.5:_ZN13MessageViewer42MessageViewerCheckBeforeDeletingParameters8setItemsERK7QVectorIN7Akonadi4ItemEE
libKPim5MessageViewer.so.5:_ZN13MessageViewer42MessageViewerCheckBeforeDeletingParametersC1ERKS0_
libKPim5MessageViewer.so.5:_ZN13MessageViewer42MessageViewerCheckBeforeDeletingParametersC1Ev
libKPim5MessageViewer.so.5:_ZN13MessageViewer42MessageViewerCheckBeforeDeletingParametersC2ERKS0_
libKPim5MessageViewer.so.5:_ZN13MessageViewer42MessageViewerCheckBeforeDeletingParametersC2Ev
libKPim5MessageViewer.so.5:_ZN13MessageViewer42MessageViewerCheckBeforeDeletingParametersD1Ev
libKPim5MessageViewer.so.5:_ZN13MessageViewer42MessageViewerCheckBeforeDeletingParametersD2Ev
libKPim5MessageViewer.so.5:_ZN13MessageViewer42MessageViewerCheckBeforeDeletingParametersaSERKS0_
libKPim5MessageViewer.so.5:_ZN13MessageViewer42MessageViewerConfigureSettingsPluginWidget11qt_metacallEN11QMetaObject4CallEiPPv
libKPim5MessageViewer.so.5:_ZN13MessageViewer42MessageViewerConfigureSettingsPluginWidget11qt_metacastEPKc
libKPim5MessageViewer.so.5:_ZN13MessageViewer42MessageViewerConfigureSettingsPluginWidget16configureChangedEv
libKPim5MessageViewer.so.5:_ZN13MessageViewer42MessageViewerConfigureSettingsPluginWidgetC1EP7QWidget
libKPim5MessageViewer.so.5:_ZN13MessageViewer42MessageViewerConfigureSettingsPluginWidgetC2EP7QWidget
libKPim5MessageViewer.so.5:_ZN13MessageViewer42MessageViewerConfigureSettingsPluginWidgetD0Ev
libKPim5MessageViewer.so.5:_ZN13MessageViewer42MessageViewerConfigureSettingsPluginWidgetD1Ev
libKPim5MessageViewer.so.5:_ZN13MessageViewer42MessageViewerConfigureSettingsPluginWidgetD2Ev
libKPim5MessageViewer.so.5:_ZN13MessageViewer43MessageViewerConfigureSettingsPluginManager11qt_metacallEN11QMetaObject4CallEiPPv
libKPim5MessageViewer.so.5:_ZN13MessageViewer43MessageViewerConfigureSettingsPluginManager11qt_metacastEPKc
libKPim5MessageViewer.so.5:_ZN13MessageViewer43MessageViewerConfigureSettingsPluginManager20pluginFromIdentifierERK7QString
libKPim5MessageViewer.so.5:_ZN13MessageViewer43MessageViewerConfigureSettingsPluginManager4selfEv
libKPim5MessageViewer.so.5:_ZN13MessageViewer43MessageViewerConfigureSettingsPluginManagerC1EP7QObject
libKPim5MessageViewer.so.5:_ZN13MessageViewer43MessageViewerConfigureSettingsPluginManagerC2EP7QObject
libKPim5MessageViewer.so.5:_ZN13MessageViewer43MessageViewerConfigureSettingsPluginManagerD0Ev
libKPim5MessageViewer.so.5:_ZN13MessageViewer43MessageViewerConfigureSettingsPluginManagerD1Ev
libKPim5MessageViewer.so.5:_ZN13MessageViewer43MessageViewerConfigureSettingsPluginManagerD2Ev
libKPim5MessageViewer.so.5:_ZN13MessageViewer44MessageViewerCheckBeforeDeletingPluginWidget11qt_metacallEN11QMetaObject4CallEiPPv
libKPim5MessageViewer.so.5:_ZN13MessageViewer44MessageViewerCheckBeforeDeletingPluginWidget11qt_metacastEPKc
libKPim5MessageViewer.so.5:_ZN13MessageViewer44MessageViewerCheckBeforeDeletingPluginWidget16configureChangedEv
libKPim5MessageViewer.so.5:_ZN13MessageViewer44MessageViewerCheckBeforeDeletingPluginWidgetC1EP7QWidget
libKPim5MessageViewer.so.5:_ZN13MessageViewer44MessageViewerCheckBeforeDeletingPluginWidgetC2EP7QWidget
libKPim5MessageViewer.so.5:_ZN13MessageViewer44MessageViewerCheckBeforeDeletingPluginWidgetD0Ev
libKPim5MessageViewer.so.5:_ZN13MessageViewer44MessageViewerCheckBeforeDeletingPluginWidgetD1Ev
libKPim5MessageViewer.so.5:_ZN13MessageViewer44MessageViewerCheckBeforeDeletingPluginWidgetD2Ev
libKPim5MessageViewer.so.5:_ZN13MessageViewer45MessageViewerCheckBeforeDeletingPluginManager11qt_metacallEN11QMetaObject4CallEiPPv
libKPim5MessageViewer.so.5:_ZN13MessageViewer45MessageViewerCheckBeforeDeletingPluginManager11qt_metacastEPKc
libKPim5MessageViewer.so.5:_ZN13MessageViewer45MessageViewerCheckBeforeDeletingPluginManager20pluginFromIdentifierERK7QString
libKPim5MessageViewer.so.5:_ZN13MessageViewer45MessageViewerCheckBeforeDeletingPluginManager4selfEv
libKPim5MessageViewer.so.5:_ZN13MessageViewer45MessageViewerCheckBeforeDeletingPluginManagerC1EP7QObject
libKPim5MessageViewer.so.5:_ZN13MessageViewer45MessageViewerCheckBeforeDeletingPluginManagerC2EP7QObject
libKPim5MessageViewer.so.5:_ZN13MessageViewer45MessageViewerCheckBeforeDeletingPluginManagerD0Ev
libKPim5MessageViewer.so.5:_ZN13MessageViewer45MessageViewerCheckBeforeDeletingPluginManagerD1Ev
libKPim5MessageViewer.so.5:_ZN13MessageViewer45MessageViewerCheckBeforeDeletingPluginManagerD2Ev
libKPim5MessageViewer.so.5:_ZN13MessageViewer4Util11processHtmlERK7QString
libKPim5MessageViewer.so.5:_ZN13MessageViewer4Util12codecForNameERK10QByteArray
libKPim5MessageViewer.so.5:_ZN13MessageViewer4Util14checkOverwriteERK4QUrlP7QWidget
libKPim5MessageViewer.so.5:_ZN13MessageViewer4Util14parseBodyStyleERK7QString
libKPim5MessageViewer.so.5:_ZN13MessageViewer4Util15createAppActionERK28QExplicitlySharedDataPointerI8KServiceEbP12QActionGroupP7QObject
libKPim5MessageViewer.so.5:_ZN13MessageViewer4Util15saveAttachmentsERK7QVectorIPN5KMime7ContentEEP7QWidgetR5QListI4QUrlE
libKPim5MessageViewer.so.5:_ZN13MessageViewer4Util17saveMessageInMboxERK7QVectorIN7Akonadi4ItemEEP7QWidgetb
libKPim5MessageViewer.so.5:_ZN13MessageViewer4Util18excludeExtraHeaderERK7QString
libKPim5MessageViewer.so.5:_ZN13MessageViewer4Util18iconPathForContentEPN5KMime7ContentEi
libKPim5MessageViewer.so.5:_ZN13MessageViewer4Util19iconPathForMimetypeERK7QStringiS3_S3_
libKPim5MessageViewer.so.5:_ZN13MessageViewer4Util20generateMboxFileNameERKN7Akonadi4ItemE
libKPim5MessageViewer.so.5:_ZN13MessageViewer4Util26containsExternalReferencesERK7QStringS3_
libKPim5MessageViewer.so.5:_ZN13MessageViewer4Util26saveMessageInMboxAndGetUrlER4QUrlRK7QVectorIN7Akonadi4ItemEEP7QWidgetb
libKPim5MessageViewer.so.5:_ZN13MessageViewer4Util28generateFileNameForExtensionERKN7Akonadi4ItemERK7QString
libKPim5MessageViewer.so.5:_ZN13MessageViewer4Util9htmlCodecERK10QByteArrayS3_
libKPim5MessageViewer.so.5:_ZN13MessageViewer6KXFace10UnCompressEPciii
libKPim5MessageViewer.so.5:_ZN13MessageViewer6KXFace11qt_metacallEN11QMetaObject4CallEiPPv
libKPim5MessageViewer.so.5:_ZN13MessageViewer6KXFace11qt_metacastEPKc
libKPim5MessageViewer.so.5:_ZN13MessageViewer6KXFace3GenEPc
libKPim5MessageViewer.so.5:_ZN13MessageViewer6KXFace4SameEPcii
libKPim5MessageViewer.so.5:_ZN13MessageViewer6KXFace6BigAddEh
libKPim5MessageViewer.so.5:_ZN13MessageViewer6KXFace6BigDivEhPh
libKPim5MessageViewer.so.5:_ZN13MessageViewer6KXFace6BigMulEh
libKPim5MessageViewer.so.5:_ZN13MessageViewer6KXFace6BigPopEPK4prob
libKPim5MessageViewer.so.5:_ZN13MessageViewer6KXFace7BigPushEP4prob
libKPim5MessageViewer.so.5:_ZN13MessageViewer6KXFace7BigReadEPc
libKPim5MessageViewer.so.5:_ZN13MessageViewer6KXFace7CompAllEPc
libKPim5MessageViewer.so.5:_ZN13MessageViewer6KXFace7GenFaceEv
libKPim5MessageViewer.so.5:_ZN13MessageViewer6KXFace7RevPushEPK4prob
libKPim5MessageViewer.so.5:_ZN13MessageViewer6KXFace7toImageERK7QString
libKPim5MessageViewer.so.5:_ZN13MessageViewer6KXFace8AllBlackEPcii
libKPim5MessageViewer.so.5:_ZN13MessageViewer6KXFace8AllWhiteEPcii
libKPim5MessageViewer.so.5:_ZN13MessageViewer6KXFace8BigClearEv
libKPim5MessageViewer.so.5:_ZN13MessageViewer6KXFace8BigWriteEPc
libKPim5MessageViewer.so.5:_ZN13MessageViewer6KXFace8CompressEPciii
libKPim5MessageViewer.so.5:_ZN13MessageViewer6KXFace8PopGreysEPcii
libKPim5MessageViewer.so.5:_ZN13MessageViewer6KXFace8ReadFaceEPc
libKPim5MessageViewer.so.5:_ZN13MessageViewer6KXFace9PushGreysEPcii
libKPim5MessageViewer.so.5:_ZN13MessageViewer6KXFace9UnCompAllEPc
libKPim5MessageViewer.so.5:_ZN13MessageViewer6KXFace9UnGenFaceEv
libKPim5MessageViewer.so.5:_ZN13MessageViewer6KXFace9WriteFaceEv
libKPim5MessageViewer.so.5:_ZN13MessageViewer6KXFace9fromImageERK6QImage
libKPim5MessageViewer.so.5:_ZN13MessageViewer6KXFaceC1Ev
libKPim5MessageViewer.so.5:_ZN13MessageViewer6KXFaceC2Ev
libKPim5MessageViewer.so.5:_ZN13MessageViewer6KXFaceD0Ev
libKPim5MessageViewer.so.5:_ZN13MessageViewer6KXFaceD1Ev
libKPim5MessageViewer.so.5:_ZN13MessageViewer6KXFaceD2Ev
libKPim5MessageViewer.so.5:_ZN13MessageViewer6Viewer10closeEventEP11QCloseEvent
libKPim5MessageViewer.so.5:_ZN13MessageViewer6Viewer10initializeEv
libKPim5MessageViewer.so.5:_ZN13MessageViewer6Viewer10mainWindowEv
libKPim5MessageViewer.so.5:_ZN13MessageViewer6Viewer10readConfigEv
libKPim5MessageViewer.so.5:_ZN13MessageViewer6Viewer10setMessageERK14QSharedPointerIN5KMime7MessageEEN14MimeTreeParser10UpdateModeE
libKPim5MessageViewer.so.5:_ZN13MessageViewer6Viewer10showReaderEPN5KMime7ContentEbRK7QString
libKPim5MessageViewer.so.5:_ZN13MessageViewer6Viewer10slotZoomInEv
libKPim5MessageViewer.so.5:_ZN13MessageViewer6Viewer10urlClickedERKN7Akonadi4ItemERK4QUrl
libKPim5MessageViewer.so.5:_ZN13MessageViewer6Viewer11changeEventEP6QEvent
libKPim5MessageViewer.so.5:_ZN13MessageViewer6Viewer11exportToPdfERK7QString
libKPim5MessageViewer.so.5:_ZN13MessageViewer6Viewer11itemRemovedEv
libKPim5MessageViewer.so.5:_ZN13MessageViewer6Viewer11qt_metacallEN11QMetaObject4CallEiPPv
libKPim5MessageViewer.so.5:_ZN13MessageViewer6Viewer11qt_metacastEPKc
libKPim5MessageViewer.so.5:_ZN13MessageViewer6Viewer11resizeEventEP12QResizeEvent
libKPim5MessageViewer.so.5:_ZN13MessageViewer6Viewer11setPrintingEb
libKPim5MessageViewer.so.5:_ZN13MessageViewer6Viewer11showMessageERK14QSharedPointerIN5KMime7MessageEERK7QString
libKPim5MessageViewer.so.5:_ZN13MessageViewer6Viewer11slotZoomOutEv
libKPim5MessageViewer.so.5:_ZN13MessageViewer6Viewer11writeConfigEb
libKPim5MessageViewer.so.5:_ZN13MessageViewer6Viewer11zoomChangedEd
libKPim5MessageViewer.so.5:_ZN13MessageViewer6Viewer12printMessageERKN7Akonadi4ItemE
libKPim5MessageViewer.so.5:_ZN13MessageViewer6Viewer12printPreviewEv
libKPim5MessageViewer.so.5:_ZN13MessageViewer6Viewer12slotJumpDownEv
libKPim5MessageViewer.so.5:_ZN13MessageViewer6Viewer12slotScrollUpEv
libKPim5MessageViewer.so.5:_ZN13MessageViewer6Viewer13deleteMessageERKN7Akonadi4ItemE
libKPim5MessageViewer.so.5:_ZN13MessageViewer6Viewer13deleteMessageEv
libKPim5MessageViewer.so.5:_ZN13MessageViewer6Viewer13runJavaScriptERK7QString
libKPim5MessageViewer.so.5:_ZN13MessageViewer6Viewer13setPluginNameERK7QString
libKPim5MessageViewer.so.5:_ZN13MessageViewer6Viewer13setZoomFactorEd
libKPim5MessageViewer.so.5:_ZN13MessageViewer6Viewer13slotZoomResetEv
libKPim5MessageViewer.so.5:_ZN13MessageViewer6Viewer14createFetchJobERKN7Akonadi4ItemE
libKPim5MessageViewer.so.5:_ZN13MessageViewer6Viewer14dkimViewerMenuEv
libKPim5MessageViewer.so.5:_ZN13MessageViewer6Viewer14dkimWidgetInfoEv
libKPim5MessageViewer.so.5:_ZN13MessageViewer6Viewer14replyMessageToERK14QSharedPointerIN5KMime7MessageEEb
libKPim5MessageViewer.so.5:_ZN13MessageViewer6Viewer14setMessageItemERKN7Akonadi4ItemEN14MimeTreeParser10UpdateModeE
libKPim5MessageViewer.so.5:_ZN13MessageViewer6Viewer14setMessagePartEPN5KMime7ContentE
libKPim5MessageViewer.so.5:_ZN13MessageViewer6Viewer14setMessagePathERK7QString
libKPim5MessageViewer.so.5:_ZN13MessageViewer6Viewer14slotScrollDownEv
libKPim5MessageViewer.so.5:_ZN13MessageViewer6Viewer14slotScrollNextEv
libKPim5MessageViewer.so.5:_ZN13MessageViewer6Viewer15setUseFixedFontEb
libKPim5MessageViewer.so.5:_ZN13MessageViewer6Viewer15showNextMessageEv
libKPim5MessageViewer.so.5:_ZN13MessageViewer6Viewer15slotSaveMessageEv
libKPim5MessageViewer.so.5:_ZN13MessageViewer6Viewer15slotScrollPriorEv
libKPim5MessageViewer.so.5:_ZN13MessageViewer6Viewer16displayPopupMenuERKN7Akonadi4ItemERKN15WebEngineViewer16WebHitTestResultERK6QPoint
libKPim5MessageViewer.so.5:_ZN13MessageViewer6Viewer16hasMultiMessagesEb
libKPim5MessageViewer.so.5:_ZN13MessageViewer6Viewer16printingFinishedEv
libKPim5MessageViewer.so.5:_ZN13MessageViewer6Viewer17displaySplashPageERK7QStringRK5QHashIS1_8QVariantERK10QByteArray
libKPim5MessageViewer.so.5:_ZN13MessageViewer6Viewer17requestConfigSyncEv
libKPim5MessageViewer.so.5:_ZN13MessageViewer6Viewer17setFolderIdentityEj
libKPim5MessageViewer.so.5:_ZN13MessageViewer6Viewer18makeResourceOnlineENS0_18ResourceOnlineModeE
libKPim5MessageViewer.so.5:_ZN13MessageViewer6Viewer18moveMessageToTrashEv
libKPim5MessageViewer.so.5:_ZN13MessageViewer6Viewer18setIdentityManagerEPN19KIdentityManagement15IdentityManagerE
libKPim5MessageViewer.so.5:_ZN13MessageViewer6Viewer19printPreviewMessageERKN7Akonadi4ItemE
libKPim5MessageViewer.so.5:_ZN13MessageViewer6Viewer19setOverrideEncodingERK7QString
libKPim5MessageViewer.so.5:_ZN13MessageViewer6Viewer19showPreviousMessageEv
libKPim5MessageViewer.so.5:_ZN13MessageViewer6Viewer20enableMessageDisplayEv
libKPim5MessageViewer.so.5:_ZN13MessageViewer6Viewer20setWebViewZoomFactorEd
libKPim5MessageViewer.so.5:_ZN13MessageViewer6Viewer20showDevelopmentToolsEv
libKPim5MessageViewer.so.5:_ZN13MessageViewer6Viewer20showStatusBarMessageERK7QString
libKPim5MessageViewer.so.5:_ZN13MessageViewer6Viewer20slotAttachmentSaveAsEv
libKPim5MessageViewer.so.5:_ZN13MessageViewer6Viewer21setAttachmentStrategyEPKNS_18AttachmentStrategyE
libKPim5MessageViewer.so.5:_ZN13MessageViewer6Viewer21setHtmlLoadExtDefaultEb
libKPim5MessageViewer.so.5:_ZN13MessageViewer6Viewer21slotAttachmentSaveAllEv
libKPim5MessageViewer.so.5:_ZN13MessageViewer6Viewer21slotChangeDisplayMailENS0_20DisplayFormatMessageEb
libKPim5MessageViewer.so.5:_ZN13MessageViewer6Viewer21slotShowMessageSourceEv
libKPim5MessageViewer.so.5:_ZN13MessageViewer6Viewer22pageIsScrolledToBottomEb
libKPim5MessageViewer.so.5:_ZN13MessageViewer6Viewer22setHtmlLoadExtOverrideEb
libKPim5MessageViewer.so.5:_ZN13MessageViewer6Viewer22viewerPluginActionListE6QFlagsINS_21ViewerPluginInterface19SpecificFeatureTypeEE
libKPim5MessageViewer.so.5:_ZN13MessageViewer6Viewer23addMessageLoadedHandlerEPNS_28AbstractMessageLoadedHandlerE
libKPim5MessageViewer.so.5:_ZN13MessageViewer6Viewer23setShowSignatureDetailsEb
libKPim5MessageViewer.so.5:_ZN13MessageViewer6Viewer24copySelectionToClipboardEv
libKPim5MessageViewer.so.5:_ZN13MessageViewer6Viewer24setShowEncryptionDetailsEb
libKPim5MessageViewer.so.5:_ZN13MessageViewer6Viewer25setPrintElementBackgroundEb
libKPim5MessageViewer.so.5:_ZN13MessageViewer6Viewer25slotGeneralPaletteChangedEv
libKPim5MessageViewer.so.5:_ZN13MessageViewer6Viewer26removeMessageLoadedHandlerEPNS_28AbstractMessageLoadedHandlerE
libKPim5MessageViewer.so.5:_ZN13MessageViewer6Viewer26setDecryptMessageOverwriteEb
libKPim5MessageViewer.so.5:_ZN13MessageViewer6Viewer29saveMainFrameScreenshotInFileERK7QString
libKPim5MessageViewer.so.5:_ZN13MessageViewer6Viewer29updateShowMultiMessagesButtonEbb
libKPim5MessageViewer.so.5:_ZN13MessageViewer6Viewer30showOpenAttachmentFolderWidgetERK5QListI4QUrlE
libKPim5MessageViewer.so.5:_ZN13MessageViewer6Viewer32setDisplayFormatMessageOverwriteENS0_20DisplayFormatMessageE
libKPim5MessageViewer.so.5:_ZN13MessageViewer6Viewer5clearEN14MimeTreeParser10UpdateModeE
libKPim5MessageViewer.so.5:_ZN13MessageViewer6Viewer5eventEP6QEvent
libKPim5MessageViewer.so.5:_ZN13MessageViewer6Viewer5printEv
libKPim5MessageViewer.so.5:_ZN13MessageViewer6Viewer6updateEN14MimeTreeParser10UpdateModeE
libKPim5MessageViewer.so.5:_ZN13MessageViewer6Viewer8atBottomEv
libKPim5MessageViewer.so.5:_ZN13MessageViewer6Viewer8slotFindEv
libKPim5MessageViewer.so.5:_ZN13MessageViewer6Viewer9popupMenuERKN7Akonadi4ItemERK4QUrlS7_RK6QPoint
libKPim5MessageViewer.so.5:_ZN13MessageViewer6Viewer9selectAllEv
libKPim5MessageViewer.so.5:_ZN13MessageViewer6ViewerC1EP7QWidgetS2_P17KActionCollection
libKPim5MessageViewer.so.5:_ZN13MessageViewer6ViewerC2EP7QWidgetS2_P17KActionCollection
libKPim5MessageViewer.so.5:_ZN13MessageViewer6ViewerD0Ev
libKPim5MessageViewer.so.5:_ZN13MessageViewer6ViewerD1Ev
libKPim5MessageViewer.so.5:_ZN13MessageViewer6ViewerD2Ev
libKPim5MessageViewer.so.5:_ZN13MessageViewer8DKIMInfo10setIDomainERK7QString
libKPim5MessageViewer.so.5:_ZN13MessageViewer8DKIMInfo10setVersionEi
libKPim5MessageViewer.so.5:_ZN13MessageViewer8DKIMInfo11setBodyHashERK7QString
libKPim5MessageViewer.so.5:_ZN13MessageViewer8DKIMInfo11setSelectorERK7QString
libKPim5MessageViewer.so.5:_ZN13MessageViewer8DKIMInfo12setSignatureERK7QString
libKPim5MessageViewer.so.5:_ZN13MessageViewer8DKIMInfo13setExpireTimeEx
libKPim5MessageViewer.so.5:_ZN13MessageViewer8DKIMInfo18setBodyLengthCountEi
libKPim5MessageViewer.so.5:_ZN13MessageViewer8DKIMInfo19setBodyCanonizationENS0_20CanonicalizationTypeE
libKPim5MessageViewer.so.5:_ZN13MessageViewer8DKIMInfo19setHashingAlgorithmENS0_20HashingAlgorithmTypeE
libKPim5MessageViewer.so.5:_ZN13MessageViewer8DKIMInfo19setListSignedHeaderERK11QStringList
libKPim5MessageViewer.so.5:_ZN13MessageViewer8DKIMInfo19setSigningAlgorithmERK7QString
libKPim5MessageViewer.so.5:_ZN13MessageViewer8DKIMInfo20setCopiedHeaderFieldERK11QStringList
libKPim5MessageViewer.so.5:_ZN13MessageViewer8DKIMInfo21setHeaderCanonizationENS0_20CanonicalizationTypeE
libKPim5MessageViewer.so.5:_ZN13MessageViewer8DKIMInfo21setSignatureTimeStampEx
libKPim5MessageViewer.so.5:_ZN13MessageViewer8DKIMInfo24setAgentOrUserIdentifierERK7QString
libKPim5MessageViewer.so.5:_ZN13MessageViewer8DKIMInfo8setQueryERK7QString
libKPim5MessageViewer.so.5:_ZN13MessageViewer8DKIMInfo9parseDKIMERK7QString
libKPim5MessageViewer.so.5:_ZN13MessageViewer8DKIMInfo9setDomainERK7QString
libKPim5MessageViewer.so.5:_ZN13MessageViewer8DKIMInfoC1Ev
libKPim5MessageViewer.so.5:_ZN13MessageViewer8DKIMInfoC2Ev
libKPim5MessageViewer.so.5:_ZN13MessageViewer8DKIMRule10setEnabledEb
libKPim5MessageViewer.so.5:_ZN13MessageViewer8DKIMRule11setPriorityEi
libKPim5MessageViewer.so.5:_ZN13MessageViewer8DKIMRule11setRuleTypeENS0_8RuleTypeE
libKPim5MessageViewer.so.5:_ZN13MessageViewer8DKIMRule25setSignedDomainIdentifierERK11QStringList
libKPim5MessageViewer.so.5:_ZN13MessageViewer8DKIMRule7setFromERK7QString
libKPim5MessageViewer.so.5:_ZN13MessageViewer8DKIMRule9setDomainERK7QString
libKPim5MessageViewer.so.5:_ZN13MessageViewer8DKIMRule9setListIdERK7QString
libKPim5MessageViewer.so.5:_ZN13MessageViewer8DKIMRuleC1Ev
libKPim5MessageViewer.so.5:_ZN13MessageViewer8DKIMRuleC2Ev
libKPim5MessageViewer.so.5:_ZN13MessageViewer8DKIMUtil11cleanStringE7QString
libKPim5MessageViewer.so.5:_ZN13MessageViewer8DKIMUtil11emailDomainERK7QString
libKPim5MessageViewer.so.5:_ZN13MessageViewer8DKIMUtil12generateHashERK10QByteArrayN18QCryptographicHash9AlgorithmE
libKPim5MessageViewer.so.5:_ZN13MessageViewer8DKIMUtil14emailSubDomainERK7QString
libKPim5MessageViewer.so.5:_ZN13MessageViewer8DKIMUtil21defaultConfigFileNameEv
libKPim5MessageViewer.so.5:_ZN13MessageViewer8DKIMUtil22bodyCanonizationSimpleE7QString
libKPim5MessageViewer.so.5:_ZN13MessageViewer8DKIMUtil23bodyCanonizationRelaxedE7QString
libKPim5MessageViewer.so.5:_ZN13MessageViewer8DKIMUtil24headerCanonizationSimpleERK7QStringS3_
libKPim5MessageViewer.so.5:_ZN13MessageViewer8DKIMUtil25headerCanonizationRelaxedERK7QStringS3_b
libKPim5MessageViewer.so.5:_ZN13MessageViewer8DKIMUtil39convertAuthenticationMethodEnumToStringENS_21DKIMCheckSignatureJob20AuthenticationMethodE
libKPim5MessageViewer.so.5:_ZN13MessageViewer8DKIMUtil39convertAuthenticationMethodStringToEnumERK7QString
libKPim5MessageViewer.so.5:_ZN13MessageViewer9CSSHelper11updateColorEv
libKPim5MessageViewer.so.5:_ZN13MessageViewer9CSSHelperC1EPK12QPaintDevice
libKPim5MessageViewer.so.5:_ZN13MessageViewer9CSSHelperC2EPK12QPaintDevice
libKPim5MessageViewer.so.5:_ZN13MessageViewer9CSSHelperD0Ev
libKPim5MessageViewer.so.5:_ZN13MessageViewer9CSSHelperD1Ev
libKPim5MessageViewer.so.5:_ZN13MessageViewer9CSSHelperD2Ev
libKPim5MessageViewer.so.5:_ZN13MessageViewer9DMARCInfo10parseDMARCERK7QString
libKPim5MessageViewer.so.5:_ZN13MessageViewer9DMARCInfo10setVersionERK7QString
libKPim5MessageViewer.so.5:_ZN13MessageViewer9DMARCInfo13setPercentageEi
libKPim5MessageViewer.so.5:_ZN13MessageViewer9DMARCInfo18setSubDomainPolicyERK7QString
libKPim5MessageViewer.so.5:_ZN13MessageViewer9DMARCInfo8setAdkimERK7QString
libKPim5MessageViewer.so.5:_ZN13MessageViewer9DMARCInfo9setPolicyERK7QString
libKPim5MessageViewer.so.5:_ZN13MessageViewer9DMARCInfoC1Ev
libKPim5MessageViewer.so.5:_ZN13MessageViewer9DMARCInfoC2Ev
libKPim5MessageViewer.so.5:_ZN13MessageViewer9HTMLBlock4exitEv
libKPim5MessageViewer.so.5:_ZN13MessageViewer9HTMLBlock5enterEv
libKPim5MessageViewer.so.5:_ZN13MessageViewer9HTMLBlockC1Ev
libKPim5MessageViewer.so.5:_ZN13MessageViewer9HTMLBlockC2Ev
libKPim5MessageViewer.so.5:_ZN13MessageViewer9HTMLBlockD0Ev
libKPim5MessageViewer.so.5:_ZN13MessageViewer9HTMLBlockD1Ev
libKPim5MessageViewer.so.5:_ZN13MessageViewer9HTMLBlockD2Ev
libKPim5MessageViewer.so.5:_ZNK13MessageViewer10HtmlWriter5codecEv
libKPim5MessageViewer.so.5:_ZNK13MessageViewer10HtmlWriter6streamEv
libKPim5MessageViewer.so.5:_ZNK13MessageViewer11DKIMManager10metaObjectEv
libKPim5MessageViewer.so.5:_ZNK13MessageViewer11DKIMManager6policyEv
libKPim5MessageViewer.so.5:_ZNK13MessageViewer11EmptySource10htmlWriterEv
libKPim5MessageViewer.so.5:_ZNK13MessageViewer11EmptySource10isPrintingEv
libKPim5MessageViewer.so.5:_ZNK13MessageViewer11EmptySource10levelQuoteEv
libKPim5MessageViewer.so.5:_ZNK13MessageViewer11EmptySource13preferredModeEv
libKPim5MessageViewer.so.5:_ZNK13MessageViewer11EmptySource13showEmoticonsEv
libKPim5MessageViewer.so.5:_ZNK13MessageViewer11EmptySource14autoImportKeysEv
libKPim5MessageViewer.so.5:_ZNK13MessageViewer11EmptySource14decryptMessageEv
libKPim5MessageViewer.so.5:_ZNK13MessageViewer11EmptySource16htmlLoadExternalEv
libKPim5MessageViewer.so.5:_ZNK13MessageViewer11EmptySource18attachmentStrategyEv
libKPim5MessageViewer.so.5:_ZNK13MessageViewer11EmptySource20showExpandQuotesMarkEv
libKPim5MessageViewer.so.5:_ZNK13MessageViewer11EmptySource20showSignatureDetailsEv
libKPim5MessageViewer.so.5:_ZNK13MessageViewer11EmptySource21showEncryptionDetailsEv
libKPim5MessageViewer.so.5:_ZNK13MessageViewer11EmptySource9cssHelperEv
libKPim5MessageViewer.so.5:_ZNK13MessageViewer11HeaderStyle10allowAsyncEv
libKPim5MessageViewer.so.5:_ZNK13MessageViewer11HeaderStyle10isPrintingEv
libKPim5MessageViewer.so.5:_ZNK13MessageViewer11HeaderStyle10isTopLevelEv
libKPim5MessageViewer.so.5:_ZNK13MessageViewer11HeaderStyle10nodeHelperEv
libKPim5MessageViewer.so.5:_ZNK13MessageViewer11HeaderStyle12sourceObjectEv
libKPim5MessageViewer.so.5:_ZNK13MessageViewer11HeaderStyle13messageStatusEv
libKPim5MessageViewer.so.5:_ZNK13MessageViewer11HeaderStyle13showEmoticonsEv
libKPim5MessageViewer.so.5:_ZNK13MessageViewer11HeaderStyle14attachmentHtmlEv
libKPim5MessageViewer.so.5:_ZNK13MessageViewer11HeaderStyle14headerStrategyEv
libKPim5MessageViewer.so.5:_ZNK13MessageViewer11HeaderStyle15readOnlyMessageEv
libKPim5MessageViewer.so.5:_ZNK13MessageViewer11HeaderStyle5themeEv
libKPim5MessageViewer.so.5:_ZNK13MessageViewer11HeaderStyle9vCardNameEv
libKPim5MessageViewer.so.5:_ZNK13MessageViewer12ViewerPlugin10metaObjectEv
libKPim5MessageViewer.so.5:_ZNK13MessageViewer12ViewerPlugin18hasConfigureDialogEv
libKPim5MessageViewer.so.5:_ZNK13MessageViewer12ViewerPlugin9isEnabledEv
libKPim5MessageViewer.so.5:_ZNK13MessageViewer13CSSHelperBase10quoteColorEi
libKPim5MessageViewer.so.5:_ZNK13MessageViewer13CSSHelperBase12pgpWarnColorEv
libKPim5MessageViewer.so.5:_ZNK13MessageViewer13CSSHelperBase12quoteFontTagEi
libKPim5MessageViewer.so.5:_ZNK13MessageViewer13CSSHelperBase13extraPrintCssERK7QString
libKPim5MessageViewer.so.5:_ZNK13MessageViewer13CSSHelperBase14cssDefinitionsERKNS0_16HtmlHeadSettingsE
libKPim5MessageViewer.so.5:_ZNK13MessageViewer13CSSHelperBase14extraCommonCssERK7QString
libKPim5MessageViewer.so.5:_ZNK13MessageViewer13CSSHelperBase14extraScreenCssERK7QString
libKPim5MessageViewer.so.5:_ZNK13MessageViewer13CSSHelperBase14quoteColorNameEi
libKPim5MessageViewer.so.5:_ZNK13MessageViewer13CSSHelperBase15fullAddressListEv
libKPim5MessageViewer.so.5:_ZNK13MessageViewer13CSSHelperBase15useBrowserColorERKNS0_16HtmlHeadSettingsE
libKPim5MessageViewer.so.5:_ZNK13MessageViewer13CSSHelperBase16addEndBlockQuoteEi
libKPim5MessageViewer.so.5:_ZNK13MessageViewer13CSSHelperBase16nonQuotedFontTagEv
libKPim5MessageViewer.so.5:_ZNK13MessageViewer13CSSHelperBase18addStartBlockQuoteEi
libKPim5MessageViewer.so.5:_ZNK13MessageViewer13CSSHelperBase18quoteCssDefinitionEv
libKPim5MessageViewer.so.5:_ZNK13MessageViewer13CSSHelperBase19linkColorDefinitionERKNS0_16HtmlHeadSettingsE
libKPim5MessageViewer.so.5:_ZNK13MessageViewer13CSSHelperBase19printCssDefinitionsERKNS0_16HtmlHeadSettingsE
libKPim5MessageViewer.so.5:_ZNK13MessageViewer13CSSHelperBase20commonCssDefinitionsEv
libKPim5MessageViewer.so.5:_ZNK13MessageViewer13CSSHelperBase20screenCssDefinitionsEPKS0_RKNS0_16HtmlHeadSettingsE
libKPim5MessageViewer.so.5:_ZNK13MessageViewer13CSSHelperBase22defaultPrintHeaderFontEv
libKPim5MessageViewer.so.5:_ZNK13MessageViewer13CSSHelperBase23defaultScreenHeaderFontEv
libKPim5MessageViewer.so.5:_ZNK13MessageViewer13CSSHelperBase8bodyFontEbb
libKPim5MessageViewer.so.5:_ZNK13MessageViewer13CSSHelperBase8fontSizeEbb
libKPim5MessageViewer.so.5:_ZNK13MessageViewer13CSSHelperBase8htmlHeadERKNS0_16HtmlHeadSettingsE
libKPim5MessageViewer.so.5:_ZNK13MessageViewer13DKIMKeyRecord13hashAlgorithmEv
libKPim5MessageViewer.so.5:_ZNK13MessageViewer13DKIMKeyRecord4noteEv
libKPim5MessageViewer.so.5:_ZNK13MessageViewer13DKIMKeyRecord5flagsEv
libKPim5MessageViewer.so.5:_ZNK13MessageViewer13DKIMKeyRecord7keyTypeEv
libKPim5MessageViewer.so.5:_ZNK13MessageViewer13DKIMKeyRecord7serviceEv
libKPim5MessageViewer.so.5:_ZNK13MessageViewer13DKIMKeyRecord7versionEv
libKPim5MessageViewer.so.5:_ZNK13MessageViewer13DKIMKeyRecord9publicKeyEv
libKPim5MessageViewer.so.5:_ZNK13MessageViewer13DKIMKeyRecordeqERKS0_
libKPim5MessageViewer.so.5:_ZNK13MessageViewer13IconNameCache17iconPathFromLocalERK7QString
libKPim5MessageViewer.so.5:_ZNK13MessageViewer13IconNameCache5EntryltERKS1_
libKPim5MessageViewer.so.5:_ZNK13MessageViewer13IconNameCache8iconPathERK7QStringi
libKPim5MessageViewer.so.5:_ZNK13MessageViewer13IconNameCache8picsPathEv
libKPim5MessageViewer.so.5:_ZNK13MessageViewer13ViewerPrivate10htmlWriterEv
libKPim5MessageViewer.so.5:_ZNK13MessageViewer13ViewerPrivate10mdnWarningEv
libKPim5MessageViewer.so.5:_ZNK13MessageViewer13ViewerPrivate10metaObjectEv
libKPim5MessageViewer.so.5:_ZNK13MessageViewer13ViewerPrivate10nodeHelperEv
libKPim5MessageViewer.so.5:_ZNK13MessageViewer13ViewerPrivate11messageItemEv
libKPim5MessageViewer.so.5:_ZNK13MessageViewer13ViewerPrivate11nodeFromUrlERK4QUrl
libKPim5MessageViewer.so.5:_ZNK13MessageViewer13ViewerPrivate12printingModeEv
libKPim5MessageViewer.so.5:_ZNK13MessageViewer13ViewerPrivate13overrideCodecEv
libKPim5MessageViewer.so.5:_ZNK13MessageViewer13ViewerPrivate13showEmoticonsEv
libKPim5MessageViewer.so.5:_ZNK13MessageViewer13ViewerPrivate14decryptMessageEv
libKPim5MessageViewer.so.5:_ZNK13MessageViewer13ViewerPrivate16htmlLoadExternalEv
libKPim5MessageViewer.so.5:_ZNK13MessageViewer13ViewerPrivate16overrideEncodingEv
libKPim5MessageViewer.so.5:_ZNK13MessageViewer13ViewerPrivate16selectedContentsEv
libKPim5MessageViewer.so.5:_ZNK13MessageViewer13ViewerPrivate17headerStylePluginEv
libKPim5MessageViewer.so.5:_ZNK13MessageViewer13ViewerPrivate17remoteContentMenuEv
libKPim5MessageViewer.so.5:_ZNK13MessageViewer13ViewerPrivate17renderAttachmentsEPN5KMime7ContentERK6QColor
libKPim5MessageViewer.so.5:_ZNK13MessageViewer13ViewerPrivate17saveSplitterSizesEv
libKPim5MessageViewer.so.5:_ZNK13MessageViewer13ViewerPrivate17webViewZoomFactorEv
libKPim5MessageViewer.so.5:_ZNK13MessageViewer13ViewerPrivate18attachmentStrategyEv
libKPim5MessageViewer.so.5:_ZNK13MessageViewer13ViewerPrivate19htmlLoadExtOverrideEv
libKPim5MessageViewer.so.5:_ZNK13MessageViewer13ViewerPrivate19mimePartTreeIsEmptyEv
libKPim5MessageViewer.so.5:_ZNK13MessageViewer13ViewerPrivate20showSignatureDetailsEv
libKPim5MessageViewer.so.5:_ZNK13MessageViewer13ViewerPrivate21htmlMailGlobalSettingEv
libKPim5MessageViewer.so.5:_ZNK13MessageViewer13ViewerPrivate21interceptorUrlActionsERKN15WebEngineViewer16WebHitTestResultE
libKPim5MessageViewer.so.5:_ZNK13MessageViewer13ViewerPrivate21showEncryptionDetailsEv
libKPim5MessageViewer.so.5:_ZNK13MessageViewer13ViewerPrivate24messageIsInSpecialFolderEv
libKPim5MessageViewer.so.5:_ZNK13MessageViewer13ViewerPrivate29displayFormatMessageOverwriteEv
libKPim5MessageViewer.so.5:_ZNK13MessageViewer13ViewerPrivate6viewerEv
libKPim5MessageViewer.so.5:_ZNK13MessageViewer13ViewerPrivate7messageEv
libKPim5MessageViewer.so.5:_ZNK13MessageViewer13ViewerPrivate8htmlMailEv
libKPim5MessageViewer.so.5:_ZNK13MessageViewer13ViewerPrivate8imageUrlEv
libKPim5MessageViewer.so.5:_ZNK13MessageViewer13ViewerPrivate9cssHelperEv
libKPim5MessageViewer.so.5:_ZNK13MessageViewer14DKIMManagerKey10metaObjectEv
libKPim5MessageViewer.so.5:_ZNK13MessageViewer14DKIMManagerKey4keysEv
libKPim5MessageViewer.so.5:_ZNK13MessageViewer14DKIMRuleDialog10metaObjectEv
libKPim5MessageViewer.so.5:_ZNK13MessageViewer14DKIMRuleDialog4ruleEv
libKPim5MessageViewer.so.5:_ZNK13MessageViewer14DKIMRuleWidget10metaObjectEv
libKPim5MessageViewer.so.5:_ZNK13MessageViewer14DKIMRuleWidget4ruleEv
libKPim5MessageViewer.so.5:_ZNK13MessageViewer14DKIMViewerMenu10metaObjectEv
libKPim5MessageViewer.so.5:_ZNK13MessageViewer14DKIMViewerMenu4menuEv
libKPim5MessageViewer.so.5:_ZNK13MessageViewer14DKIMWidgetInfo10metaObjectEv
libKPim5MessageViewer.so.5:_ZNK13MessageViewer14DKIMWidgetInfo13currentItemIdEv
libKPim5MessageViewer.so.5:_ZNK13MessageViewer14DKIMWidgetInfo6resultEv
libKPim5MessageViewer.so.5:_ZNK13MessageViewer14DMARCPolicyJob10metaObjectEv
libKPim5MessageViewer.so.5:_ZNK13MessageViewer14DMARCPolicyJob11emailDomainEv
libKPim5MessageViewer.so.5:_ZNK13MessageViewer14DMARCPolicyJob12emailAddressEv
libKPim5MessageViewer.so.5:_ZNK13MessageViewer14DMARCPolicyJob14emailSubDomainERK7QString
libKPim5MessageViewer.so.5:_ZNK13MessageViewer14DMARCPolicyJob21generateDMARCFromListERK5QListI10QByteArrayE
libKPim5MessageViewer.so.5:_ZNK13MessageViewer14DMARCPolicyJob8canStartEv
libKPim5MessageViewer.so.5:_ZNK13MessageViewer14DMARCRecordJob10domainNameEv
libKPim5MessageViewer.so.5:_ZNK13MessageViewer14DMARCRecordJob10metaObjectEv
libKPim5MessageViewer.so.5:_ZNK13MessageViewer14DMARCRecordJob14resolvDnsValueEv
libKPim5MessageViewer.so.5:_ZNK13MessageViewer14DMARCRecordJob8canStartEv
libKPim5MessageViewer.so.5:_ZNK13MessageViewer14FileHtmlWriter6deviceEv
libKPim5MessageViewer.so.5:_ZNK13MessageViewer14HeaderStrategy10showHeaderERK7QString
libKPim5MessageViewer.so.5:_ZNK13MessageViewer14HeaderStrategy13headersToHideEv
libKPim5MessageViewer.so.5:_ZNK13MessageViewer14HeaderStrategy16headersToDisplayEv
libKPim5MessageViewer.so.5:_ZNK13MessageViewer14KRunURLHandler11handleClickERK4QUrlPNS_13ViewerPrivateE
libKPim5MessageViewer.so.5:_ZNK13MessageViewer15ConfigureWidget10metaObjectEv
libKPim5MessageViewer.so.5:_ZNK13MessageViewer15DKIMCheckPolicy13rsaSha1PolicyEv
libKPim5MessageViewer.so.5:_ZNK13MessageViewer15DKIMCheckPolicy14saveDkimResultEv
libKPim5MessageViewer.so.5:_ZNK13MessageViewer15DKIMCheckPolicy15useDefaultRulesEv
libKPim5MessageViewer.so.5:_ZNK13MessageViewer15DKIMCheckPolicy16autogenerateRuleEv
libKPim5MessageViewer.so.5:_ZNK13MessageViewer15DKIMCheckPolicy17useRelaxedParsingEv
libKPim5MessageViewer.so.5:_ZNK13MessageViewer15DKIMCheckPolicy23publicRsaTooSmallPolicyEv
libKPim5MessageViewer.so.5:_ZNK13MessageViewer15DKIMCheckPolicy24useAuthenticationResultsEv
libKPim5MessageViewer.so.5:_ZNK13MessageViewer15DKIMCheckPolicy26checkIfEmailShouldBeSignedEv
libKPim5MessageViewer.so.5:_ZNK13MessageViewer15DKIMCheckPolicy27verifySignatureWhenOnlyTestEv
libKPim5MessageViewer.so.5:_ZNK13MessageViewer15DKIMCheckPolicy28useOnlyAuthenticationResultsEv
libKPim5MessageViewer.so.5:_ZNK13MessageViewer15DKIMCheckPolicy34autogenerateRuleOnlyIfSenderInSDIDEv
libKPim5MessageViewer.so.5:_ZNK13MessageViewer15DKIMCheckPolicy7saveKeyEv
libKPim5MessageViewer.so.5:_ZNK13MessageViewer15DKIMCheckPolicy8useDMarcEv
libKPim5MessageViewer.so.5:_ZNK13MessageViewer15HeaderStyleUtil10spamStatusEPN5KMime7MessageE
libKPim5MessageViewer.so.5:_ZNK13MessageViewer15HeaderStyleUtil11directionOfERK7QString
libKPim5MessageViewer.so.5:_ZNK13MessageViewer15HeaderStyleUtil12imgToDataUrlERK6QImage
libKPim5MessageViewer.so.5:_ZNK13MessageViewer15HeaderStyleUtil13drawSpamMeterENS_9SpamErrorEddRK7QStringS4_
libKPim5MessageViewer.so.5:_ZNK13MessageViewer15HeaderStyleUtil13subjectStringEPN5KMime7MessageE6QFlagsIN11KTextToHTML6OptionEE
libKPim5MessageViewer.so.5:_ZNK13MessageViewer15HeaderStyleUtil19updateXFaceSettingsE6QImageRNS0_13xfaceSettingsE
libKPim5MessageViewer.so.5:_ZNK13MessageViewer15HeaderStyleUtil22subjectDirectionStringEPN5KMime7MessageE
libKPim5MessageViewer.so.5:_ZNK13MessageViewer15HeaderStyleUtil5xfaceEPKNS_11HeaderStyleEPN5KMime7MessageE
libKPim5MessageViewer.so.5:_ZNK13MessageViewer15OpenWithUrlInfo11commandLineEv
libKPim5MessageViewer.so.5:_ZNK13MessageViewer15OpenWithUrlInfo3urlEv
libKPim5MessageViewer.so.5:_ZNK13MessageViewer15OpenWithUrlInfo7commandEv
libKPim5MessageViewer.so.5:_ZNK13MessageViewer15OpenWithUrlInfo7isValidEv
libKPim5MessageViewer.so.5:_ZNK13MessageViewer15OpenWithUrlInfoeqERKS0_
libKPim5MessageViewer.so.5:_ZNK13MessageViewer15SMimeURLHandler11handleClickERK4QUrlPNS_13ViewerPrivateE
libKPim5MessageViewer.so.5:_ZNK13MessageViewer15SMimeURLHandler16statusBarMessageERK4QUrlPNS_13ViewerPrivateE
libKPim5MessageViewer.so.5:_ZNK13MessageViewer16DKIMCheckFullJob10metaObjectEv
libKPim5MessageViewer.so.5:_ZNK13MessageViewer16DKIMCheckFullJob6policyEv
libKPim5MessageViewer.so.5:_ZNK13MessageViewer16DKIMHeaderParser11listHeadersEv
libKPim5MessageViewer.so.5:_ZNK13MessageViewer16DKIMHeaderParser16wasAlreadyParsedEv
libKPim5MessageViewer.so.5:_ZNK13MessageViewer16DKIMHeaderParser4headEv
libKPim5MessageViewer.so.5:_ZNK13MessageViewer16DKIMHeaderParsereqERKS0_
libKPim5MessageViewer.so.5:_ZNK13MessageViewer16DKIMManagerRules10metaObjectEv
libKPim5MessageViewer.so.5:_ZNK13MessageViewer16DKIMManagerRules5rulesEv
libKPim5MessageViewer.so.5:_ZNK13MessageViewer16DKIMManagerRules7isEmptyEv
libKPim5MessageViewer.so.5:_ZNK13MessageViewer16MDNWarningWidget10metaObjectEv
libKPim5MessageViewer.so.5:_ZNK13MessageViewer16MDNWarningWidget11sendingModeEv
libKPim5MessageViewer.so.5:_ZNK13MessageViewer16MailToURLHandler16statusBarMessageERK4QUrlPNS_13ViewerPrivateE
libKPim5MessageViewer.so.5:_ZNK13MessageViewer16PlainHeaderStyle4nameEv
libKPim5MessageViewer.so.5:_ZNK13MessageViewer16PlainHeaderStyle6formatEPN5KMime7MessageE
libKPim5MessageViewer.so.5:_ZNK13MessageViewer16PrintingSettings10metaObjectEv
libKPim5MessageViewer.so.5:_ZNK13MessageViewer16ScamExpandUrlJob10metaObjectEv
libKPim5MessageViewer.so.5:_ZNK13MessageViewer17HeaderStylePlugin10metaObjectEv
libKPim5MessageViewer.so.5:_ZNK13MessageViewer17HeaderStylePlugin13extraPrintCssERK7QString
libKPim5MessageViewer.so.5:_ZNK13MessageViewer17HeaderStylePlugin14attachmentHtmlEv
libKPim5MessageViewer.so.5:_ZNK13MessageViewer17HeaderStylePlugin14elidedTextSizeEv
libKPim5MessageViewer.so.5:_ZNK13MessageViewer17HeaderStylePlugin14extraCommonCssERK7QString
libKPim5MessageViewer.so.5:_ZNK13MessageViewer17HeaderStylePlugin14extraScreenCssERK7QString
libKPim5MessageViewer.so.5:_ZNK13MessageViewer17HeaderStylePlugin18hasConfigureDialogEv
libKPim5MessageViewer.so.5:_ZNK13MessageViewer17HeaderStylePlugin9alignmentEv
libKPim5MessageViewer.so.5:_ZNK13MessageViewer17HeaderStylePlugin9hasMarginEv
libKPim5MessageViewer.so.5:_ZNK13MessageViewer17HeaderStylePlugin9isEnabledEv
libKPim5MessageViewer.so.5:_ZNK13MessageViewer17HtmlAnchorHandler11handleClickERK4QUrlPNS_13ViewerPrivateE
libKPim5MessageViewer.so.5:_ZNK13MessageViewer17MailWebEnginePage10metaObjectEv
libKPim5MessageViewer.so.5:_ZNK13MessageViewer17MailWebEngineView10metaObjectEv
libKPim5MessageViewer.so.5:_ZNK13MessageViewer17MailWebEngineView21interceptorUrlActionsERKN15WebEngineViewer16WebHitTestResultE
libKPim5MessageViewer.so.5:_ZNK13MessageViewer17MessageWidgetArea10metaObjectEv
libKPim5MessageViewer.so.5:_ZNK13MessageViewer17RemoteContentInfo3urlEv
libKPim5MessageViewer.so.5:_ZNK13MessageViewer17RemoteContentInfo6statusEv
libKPim5MessageViewer.so.5:_ZNK13MessageViewer17RemoteContentInfo7isValidEv
libKPim5MessageViewer.so.5:_ZNK13MessageViewer17RemoteContentMenu10metaObjectEv
libKPim5MessageViewer.so.5:_ZNK13MessageViewer17RemoteContentMenu4urlsEv
libKPim5MessageViewer.so.5:_ZNK13MessageViewer17ScamCheckShortUrl10metaObjectEv
libKPim5MessageViewer.so.5:_ZNK13MessageViewer17ScamDetectionInfo10scamChecksEv
libKPim5MessageViewer.so.5:_ZNK13MessageViewer17ScamDetectionInfo13domainOrEmailEv
libKPim5MessageViewer.so.5:_ZNK13MessageViewer17ScamDetectionInfo7enabledEv
libKPim5MessageViewer.so.5:_ZNK13MessageViewer17ScamDetectionInfo7isValidEv
libKPim5MessageViewer.so.5:_ZNK13MessageViewer17ScamDetectionInfoeqERKS0_
libKPim5MessageViewer.so.5:_ZNK13MessageViewer17URLHandlerManager10handleDragERK4QUrlPNS_13ViewerPrivateE
libKPim5MessageViewer.so.5:_ZNK13MessageViewer17URLHandlerManager11handleClickERK4QUrlPNS_13ViewerPrivateE
libKPim5MessageViewer.so.5:_ZNK13MessageViewer17URLHandlerManager14willHandleDragERK4QUrlPNS_13ViewerPrivateE
libKPim5MessageViewer.so.5:_ZNK13MessageViewer17URLHandlerManager16handleShiftClickERK4QUrlPNS_13ViewerPrivateE
libKPim5MessageViewer.so.5:_ZNK13MessageViewer17URLHandlerManager16statusBarMessageERK4QUrlPNS_13ViewerPrivateE
libKPim5MessageViewer.so.5:_ZNK13MessageViewer17URLHandlerManager24handleContextMenuRequestERK4QUrlRK6QPointPNS_13ViewerPrivateE
libKPim5MessageViewer.so.5:_ZNK13MessageViewer18AttachmentStrategy30requiresAttachmentListInHeaderEv
libKPim5MessageViewer.so.5:_ZNK13MessageViewer18BufferedHtmlWriter4dataEv
libKPim5MessageViewer.so.5:_ZNK13MessageViewer18BufferedHtmlWriter6deviceEv
libKPim5MessageViewer.so.5:_ZNK13MessageViewer18DKIMCheckPolicyJob10metaObjectEv
libKPim5MessageViewer.so.5:_ZNK13MessageViewer18DKIMCheckPolicyJob11checkResultEv
libKPim5MessageViewer.so.5:_ZNK13MessageViewer18DKIMCheckPolicyJob12emailAddressEv
libKPim5MessageViewer.so.5:_ZNK13MessageViewer18DKIMCheckPolicyJob6policyEv
libKPim5MessageViewer.so.5:_ZNK13MessageViewer18DKIMCheckPolicyJob8canStartEv
libKPim5MessageViewer.so.5:_ZNK13MessageViewer18DKIMDownloadKeyJob10domainNameEv
libKPim5MessageViewer.so.5:_ZNK13MessageViewer18DKIMDownloadKeyJob10metaObjectEv
libKPim5MessageViewer.so.5:_ZNK13MessageViewer18DKIMDownloadKeyJob12selectorNameEv
libKPim5MessageViewer.so.5:_ZNK13MessageViewer18DKIMDownloadKeyJob14resolvDnsValueEv
libKPim5MessageViewer.so.5:_ZNK13MessageViewer18DKIMDownloadKeyJob8canStartEv
libKPim5MessageViewer.so.5:_ZNK13MessageViewer18DKIMDownloadKeyJob9dnsLookupEv
libKPim5MessageViewer.so.5:_ZNK13MessageViewer18DKIMStoreResultJob10metaObjectEv
libKPim5MessageViewer.so.5:_ZNK13MessageViewer18DKIMStoreResultJob8canStartEv
libKPim5MessageViewer.so.5:_ZNK13MessageViewer18InvitationSettings10helpAnchorEv
libKPim5MessageViewer.so.5:_ZNK13MessageViewer18InvitationSettings10metaObjectEv
libKPim5MessageViewer.so.5:_ZNK13MessageViewer18OpenUrlWithManager10metaObjectEv
libKPim5MessageViewer.so.5:_ZNK13MessageViewer18OpenUrlWithManager15openWithUrlInfoEv
libKPim5MessageViewer.so.5:_ZNK13MessageViewer19AttachmentMarkBlock10exitStringEv
libKPim5MessageViewer.so.5:_ZNK13MessageViewer19AttachmentMarkBlock11enterStringEv
libKPim5MessageViewer.so.5:_ZNK13MessageViewer19DKIMGenerateRuleJob10metaObjectEv
libKPim5MessageViewer.so.5:_ZNK13MessageViewer19DKIMGenerateRuleJob6resultEv
libKPim5MessageViewer.so.5:_ZNK13MessageViewer19DKIMGenerateRuleJob8canStartEv
libKPim5MessageViewer.so.5:_ZNK13MessageViewer19DKIMResultAttribute10serializedEv
libKPim5MessageViewer.so.5:_ZNK13MessageViewer19DKIMResultAttribute4typeEv
libKPim5MessageViewer.so.5:_ZNK13MessageViewer19DKIMResultAttribute5cloneEv
libKPim5MessageViewer.so.5:_ZNK13MessageViewer19DKIMResultAttribute5errorEv
libKPim5MessageViewer.so.5:_ZNK13MessageViewer19DKIMResultAttribute6statusEv
libKPim5MessageViewer.so.5:_ZNK13MessageViewer19DKIMResultAttribute7warningEv
libKPim5MessageViewer.so.5:_ZNK13MessageViewer19DKIMResultAttributeeqERKS0_
libKPim5MessageViewer.so.5:_ZNK13MessageViewer19GrantleeHeaderStyle4nameEv
libKPim5MessageViewer.so.5:_ZNK13MessageViewer19GrantleeHeaderStyle6formatEPN5KMime7MessageE
libKPim5MessageViewer.so.5:_ZNK13MessageViewer19RemoteContentDialog10metaObjectEv
libKPim5MessageViewer.so.5:_ZNK13MessageViewer19RemoteContentDialog4infoEv
libKPim5MessageViewer.so.5:_ZNK13MessageViewer19RemoteContentWidget10metaObjectEv
libKPim5MessageViewer.so.5:_ZNK13MessageViewer19RemoteContentWidget4infoEv
libKPim5MessageViewer.so.5:_ZNK13MessageViewer19ViewerPluginManager10metaObjectEv
libKPim5MessageViewer.so.5:_ZNK13MessageViewer19ViewerPluginManager10pluginNameEv
libKPim5MessageViewer.so.5:_ZNK13MessageViewer19ViewerPluginManager11pluginsListEv
libKPim5MessageViewer.so.5:_ZNK13MessageViewer19ViewerPluginManager15configGroupNameEv
libKPim5MessageViewer.so.5:_ZNK13MessageViewer19ViewerPluginManager15pluginDirectoryEv
libKPim5MessageViewer.so.5:_ZNK13MessageViewer19ViewerPluginManager15pluginsDataListEv
libKPim5MessageViewer.so.5:_ZNK13MessageViewer19ViewerPluginManager22configPrefixSettingKeyEv
libKPim5MessageViewer.so.5:_ZNK13MessageViewer20AttachmentURLHandler10handleDragERK4QUrlPNS_13ViewerPrivateE
libKPim5MessageViewer.so.5:_ZNK13MessageViewer20AttachmentURLHandler10nodeForUrlERK4QUrlPNS_13ViewerPrivateE
libKPim5MessageViewer.so.5:_ZNK13MessageViewer20AttachmentURLHandler11handleClickERK4QUrlPNS_13ViewerPrivateE
libKPim5MessageViewer.so.5:_ZNK13MessageViewer20AttachmentURLHandler14willHandleDragERK4QUrlPNS_13ViewerPrivateE
libKPim5MessageViewer.so.5:_ZNK13MessageViewer20AttachmentURLHandler16handleShiftClickERK4QUrlPNS_13ViewerPrivateE
libKPim5MessageViewer.so.5:_ZNK13MessageViewer20AttachmentURLHandler16statusBarMessageERK4QUrlPNS_13ViewerPrivateE
libKPim5MessageViewer.so.5:_ZNK13MessageViewer20AttachmentURLHandler20attachmentIsInHeaderERK4QUrl
libKPim5MessageViewer.so.5:_ZNK13MessageViewer20AttachmentURLHandler24handleContextMenuRequestERK4QUrlRK6QPointPNS_13ViewerPrivateE
libKPim5MessageViewer.so.5:_ZNK13MessageViewer20ContactUidURLHandler11handleClickERK4QUrlPNS_13ViewerPrivateE
libKPim5MessageViewer.so.5:_ZNK13MessageViewer20ContactUidURLHandler16statusBarMessageERK4QUrlPNS_13ViewerPrivateE
libKPim5MessageViewer.so.5:_ZNK13MessageViewer20ContactUidURLHandler24handleContextMenuRequestERK4QUrlRK6QPointPNS_13ViewerPrivateE
libKPim5MessageViewer.so.5:_ZNK13MessageViewer20DKIMManagerKeyDialog10metaObjectEv
libKPim5MessageViewer.so.5:_ZNK13MessageViewer20DKIMManagerKeyWidget10metaObjectEv
libKPim5MessageViewer.so.5:_ZNK13MessageViewer20DKIMManagerKeyWidget11saveHeadersEv
libKPim5MessageViewer.so.5:_ZNK13MessageViewer20HeaderStyleInterface10metaObjectEv
libKPim5MessageViewer.so.5:_ZNK13MessageViewer20HeaderStyleInterface17headerStylePluginEv
libKPim5MessageViewer.so.5:_ZNK13MessageViewer20HeaderStyleInterface6actionEv
libKPim5MessageViewer.so.5:_ZNK13MessageViewer20RemoteContentManager10metaObjectEv
libKPim5MessageViewer.so.5:_ZNK13MessageViewer20RemoteContentManager11isAutorizedERK4QUrlRb
libKPim5MessageViewer.so.5:_ZNK13MessageViewer20RemoteContentManager11isAutorizedERK7QString
libKPim5MessageViewer.so.5:_ZNK13MessageViewer20RemoteContentManager17removeContentInfoEv
libKPim5MessageViewer.so.5:_ZNK13MessageViewer20RemoteContentManager8isUniqueERKNS_17RemoteContentInfoE
libKPim5MessageViewer.so.5:_ZNK13MessageViewer20RemoteContentManager9isBlockedERK4QUrlRb
libKPim5MessageViewer.so.5:_ZNK13MessageViewer21DKIMCheckSignatureJob10metaObjectEv
libKPim5MessageViewer.so.5:_ZNK13MessageViewer21DKIMCheckSignatureJob20CheckSignatureResult7isValidEv
libKPim5MessageViewer.so.5:_ZNK13MessageViewer21DKIMCheckSignatureJob20CheckSignatureResulteqERKS1_
libKPim5MessageViewer.so.5:_ZNK13MessageViewer21DKIMCheckSignatureJob20CheckSignatureResultneERKS1_
libKPim5MessageViewer.so.5:_ZNK13MessageViewer21DKIMCheckSignatureJob22bodyCanonizationResultEv
libKPim5MessageViewer.so.5:_ZNK13MessageViewer21DKIMCheckSignatureJob24headerCanonizationResultEv
libKPim5MessageViewer.so.5:_ZNK13MessageViewer21DKIMCheckSignatureJob38DKIMCheckSignatureAuthenticationResult7isValidEv
libKPim5MessageViewer.so.5:_ZNK13MessageViewer21DKIMCheckSignatureJob38DKIMCheckSignatureAuthenticationResulteqERKS1_
libKPim5MessageViewer.so.5:_ZNK13MessageViewer21DKIMCheckSignatureJob5errorEv
libKPim5MessageViewer.so.5:_ZNK13MessageViewer21DKIMCheckSignatureJob6policyEv
libKPim5MessageViewer.so.5:_ZNK13MessageViewer21DKIMCheckSignatureJob6statusEv
libKPim5MessageViewer.so.5:_ZNK13MessageViewer21DKIMCheckSignatureJob7messageEv
libKPim5MessageViewer.so.5:_ZNK13MessageViewer21DKIMCheckSignatureJob7warningEv
libKPim5MessageViewer.so.5:_ZNK13MessageViewer21DKIMCheckSignatureJob9dkimValueEv
libKPim5MessageViewer.so.5:_ZNK13MessageViewer21DKIMManageRulesDialog10metaObjectEv
libKPim5MessageViewer.so.5:_ZNK13MessageViewer21DKIMManageRulesWidget10metaObjectEv
libKPim5MessageViewer.so.5:_ZNK13MessageViewer21DKIMManageRulesWidget11saveHeadersEv
libKPim5MessageViewer.so.5:_ZNK13MessageViewer21DKIMManageRulesWidget5rulesEv
libKPim5MessageViewer.so.5:_ZNK13MessageViewer21MessageViewerRenderer13currentWidgetEv
libKPim5MessageViewer.so.5:_ZNK13MessageViewer21MessageViewerRenderer9cssHelperEv
libKPim5MessageViewer.so.5:_ZNK13MessageViewer21MessageViewerSettings10metaObjectEv
libKPim5MessageViewer.so.5:_ZNK13MessageViewer21ShowNextMessageWidget10metaObjectEv
libKPim5MessageViewer.so.5:_ZNK13MessageViewer21ViewerPluginInterface10metaObjectEv
libKPim5MessageViewer.so.5:_ZNK13MessageViewer21ViewerPluginInterface7actionsEv
libKPim5MessageViewer.so.5:_ZNK13MessageViewer22HeaderStyleMenuManager10metaObjectEv
libKPim5MessageViewer.so.5:_ZNK13MessageViewer22HeaderStyleMenuManager4menuEv
libKPim5MessageViewer.so.5:_ZNK13MessageViewer22MarkMessageReadHandler10metaObjectEv
libKPim5MessageViewer.so.5:_ZNK13MessageViewer22ScamDetectionWebEngine10metaObjectEv
libKPim5MessageViewer.so.5:_ZNK13MessageViewer22ShowAuditLogURLHandler10handleDragERK4QUrlPNS_13ViewerPrivateE
libKPim5MessageViewer.so.5:_ZNK13MessageViewer22ShowAuditLogURLHandler11handleClickERK4QUrlPNS_13ViewerPrivateE
libKPim5MessageViewer.so.5:_ZNK13MessageViewer22ShowAuditLogURLHandler16statusBarMessageERK4QUrlPNS_13ViewerPrivateE
libKPim5MessageViewer.so.5:_ZNK13MessageViewer22ShowAuditLogURLHandler24handleContextMenuRequestERK4QUrlRK6QPointPNS_13ViewerPrivateE
libKPim5MessageViewer.so.5:_ZNK13MessageViewer23DKIMManageRulesComboBox10metaObjectEv
libKPim5MessageViewer.so.5:_ZNK13MessageViewer23DKIMManageRulesComboBox8ruleTypeEv
libKPim5MessageViewer.so.5:_ZNK13MessageViewer23EmbeddedImageURLHandler10handleDragERK4QUrlPNS_13ViewerPrivateE
libKPim5MessageViewer.so.5:_ZNK13MessageViewer23EmbeddedImageURLHandler14willHandleDragERK4QUrlPNS_13ViewerPrivateE
libKPim5MessageViewer.so.5:_ZNK13MessageViewer23GrantleeHeaderFormatter6formatERK7QStringRK14QSharedPointerIN8Grantlee12TemplateImplEERK11QStringListbPKNS_11HeaderStyleEPN5KMime7MessageEb
libKPim5MessageViewer.so.5:_ZNK13MessageViewer23GrantleeHeaderFormatter6toHtmlERK11QStringListRK7QStringS6_PKNS_11HeaderStyleEPN5KMime7MessageEb
libKPim5MessageViewer.so.5:_ZNK13MessageViewer23GrantleeHeaderFormatter6toHtmlERKNS0_31GrantleeHeaderFormatterSettingsE
libKPim5MessageViewer.so.5:_ZNK13MessageViewer23GrantleeHeaderTestStyle4nameEv
libKPim5MessageViewer.so.5:_ZNK13MessageViewer23GrantleeHeaderTestStyle6formatEPN5KMime7MessageE
libKPim5MessageViewer.so.5:_ZNK13MessageViewer23InternalImageURLHandler10handleDragERK4QUrlPNS_13ViewerPrivateE
libKPim5MessageViewer.so.5:_ZNK13MessageViewer23InternalImageURLHandler14willHandleDragERK4QUrlPNS_13ViewerPrivateE
libKPim5MessageViewer.so.5:_ZNK13MessageViewer23KMailProtocolURLHandler11handleClickERK4QUrlPNS_13ViewerPrivateE
libKPim5MessageViewer.so.5:_ZNK13MessageViewer23KMailProtocolURLHandler16statusBarMessageERK4QUrlPNS_13ViewerPrivateE
libKPim5MessageViewer.so.5:_ZNK13MessageViewer23MessagePartRenderPlugin10urlHandlerEi
libKPim5MessageViewer.so.5:_ZNK13MessageViewer23RemoteContentWidgetItem6statusEv
libKPim5MessageViewer.so.5:_ZNK13MessageViewer23ViewerPluginToolManager10metaObjectEv
libKPim5MessageViewer.so.5:_ZNK13MessageViewer23ViewerPluginToolManager10pluginNameEv
libKPim5MessageViewer.so.5:_ZNK13MessageViewer23ViewerPluginToolManager15pluginDirectoryEv
libKPim5MessageViewer.so.5:_ZNK13MessageViewer23ViewerPluginToolManager22viewerPluginActionListE6QFlagsINS_21ViewerPluginInterface19SpecificFeatureTypeEE
libKPim5MessageViewer.so.5:_ZNK13MessageViewer24HeaderStylePluginManager10metaObjectEv
libKPim5MessageViewer.so.5:_ZNK13MessageViewer24HeaderStylePluginManager11pluginsListEv
libKPim5MessageViewer.so.5:_ZNK13MessageViewer24HeaderStylePluginManager14pluginListNameEv
libKPim5MessageViewer.so.5:_ZNK13MessageViewer24HeaderStylePluginManager15configGroupNameEv
libKPim5MessageViewer.so.5:_ZNK13MessageViewer24HeaderStylePluginManager15pluginsDataListEv
libKPim5MessageViewer.so.5:_ZNK13MessageViewer24HeaderStylePluginManager22configPrefixSettingKeyEv
libKPim5MessageViewer.so.5:_ZNK13MessageViewer24ScamCheckShortUrlManager10metaObjectEv
libKPim5MessageViewer.so.5:_ZNK13MessageViewer24ScamCheckShortUrlManager17scamCheckShortUrlEv
libKPim5MessageViewer.so.5:_ZNK13MessageViewer25BodyPartURLHandlerManager11handleClickERK4QUrlPNS_13ViewerPrivateE
libKPim5MessageViewer.so.5:_ZNK13MessageViewer25BodyPartURLHandlerManager15handlersForPartEPN5KMime7ContentE
libKPim5MessageViewer.so.5:_ZNK13MessageViewer25BodyPartURLHandlerManager16statusBarMessageERK4QUrlPNS_13ViewerPrivateE
libKPim5MessageViewer.so.5:_ZNK13MessageViewer25BodyPartURLHandlerManager24handleContextMenuRequestERK4QUrlRK6QPointPNS_13ViewerPrivateE
libKPim5MessageViewer.so.5:_ZNK13MessageViewer25DKIMManageRulesWidgetItem4ruleEv
libKPim5MessageViewer.so.5:_ZNK13MessageViewer26MessagePartRendererFactory16renderersForPartEPK11QMetaObjectRK14QSharedPointerIN14MimeTreeParser11MessagePartEE
libKPim5MessageViewer.so.5:_ZNK13MessageViewer26MessagePartRendererManager10metaObjectEv
libKPim5MessageViewer.so.5:_ZNK13MessageViewer26ScamDetectionWarningWidget10metaObjectEv
libKPim5MessageViewer.so.5:_ZNK13MessageViewer28AbstractMessageLoadedHandler7sessionEv
libKPim5MessageViewer.so.5:_ZNK13MessageViewer28DKIMAuthenticationStatusInfo10authservIdEv
libKPim5MessageViewer.so.5:_ZNK13MessageViewer28DKIMAuthenticationStatusInfo10reasonSpecEv
libKPim5MessageViewer.so.5:_ZNK13MessageViewer28DKIMAuthenticationStatusInfo11authVersionEv
libKPim5MessageViewer.so.5:_ZNK13MessageViewer28DKIMAuthenticationStatusInfo14AuthStatusInfo7isValidEv
libKPim5MessageViewer.so.5:_ZNK13MessageViewer28DKIMAuthenticationStatusInfo14AuthStatusInfoeqERKS1_
libKPim5MessageViewer.so.5:_ZNK13MessageViewer28DKIMAuthenticationStatusInfo18listAuthStatusInfoEv
libKPim5MessageViewer.so.5:_ZNK13MessageViewer28DKIMAuthenticationStatusInfoeqERKS0_
libKPim5MessageViewer.so.5:_ZNK13MessageViewer28RemoteContentConfigureDialog10metaObjectEv
libKPim5MessageViewer.so.5:_ZNK13MessageViewer28RemoteContentConfigureWidget10metaObjectEv
libKPim5MessageViewer.so.5:_ZNK13MessageViewer29ExpandCollapseQuoteURLManager10handleDragERK4QUrlPNS_13ViewerPrivateE
libKPim5MessageViewer.so.5:_ZNK13MessageViewer29ExpandCollapseQuoteURLManager11handleClickERK4QUrlPNS_13ViewerPrivateE
libKPim5MessageViewer.so.5:_ZNK13MessageViewer29ExpandCollapseQuoteURLManager16statusBarMessageERK4QUrlPNS_13ViewerPrivateE
libKPim5MessageViewer.so.5:_ZNK13MessageViewer29MessageDisplayFormatAttribute10serializedEv
libKPim5MessageViewer.so.5:_ZNK13MessageViewer29MessageDisplayFormatAttribute13messageFormatEv
libKPim5MessageViewer.so.5:_ZNK13MessageViewer29MessageDisplayFormatAttribute13remoteContentEv
libKPim5MessageViewer.so.5:_ZNK13MessageViewer29MessageDisplayFormatAttribute4typeEv
libKPim5MessageViewer.so.5:_ZNK13MessageViewer29MessageDisplayFormatAttribute5cloneEv
libKPim5MessageViewer.so.5:_ZNK13MessageViewer29MessageDisplayFormatAttributeeqERKS0_
libKPim5MessageViewer.so.5:_ZNK13MessageViewer31DKIMManagerAuthenticationServer10metaObjectEv
libKPim5MessageViewer.so.5:_ZNK13MessageViewer31DKIMManagerAuthenticationServer10serverListEv
libKPim5MessageViewer.so.5:_ZNK13MessageViewer31RemoteContentStatusTypeComboBox10metaObjectEv
libKPim5MessageViewer.so.5:_ZNK13MessageViewer31RemoteContentStatusTypeComboBox6statusEv
libKPim5MessageViewer.so.5:_ZNK13MessageViewer32DKIMCheckAuthenticationStatusJob10metaObjectEv
libKPim5MessageViewer.so.5:_ZNK13MessageViewer32DKIMCheckAuthenticationStatusJob17useRelaxedParsingEv
libKPim5MessageViewer.so.5:_ZNK13MessageViewer32DKIMCheckAuthenticationStatusJob8canStartEv
libKPim5MessageViewer.so.5:_ZNK13MessageViewer36MessageViewerConfigureSettingsPlugin10metaObjectEv
libKPim5MessageViewer.so.5:_ZNK13MessageViewer37DKIMAuthenticationStatusInfoConverter10statusInfoEv
libKPim5MessageViewer.so.5:_ZNK13MessageViewer37DKIMAuthenticationStatusInfoConverter7convertEv
libKPim5MessageViewer.so.5:_ZNK13MessageViewer37ScamDetectionWhiteListSettingsManager10metaObjectEv
libKPim5MessageViewer.so.5:_ZNK13MessageViewer38MessageViewerCheckBeforeDeletingPlugin10metaObjectEv
libKPim5MessageViewer.so.5:_ZNK13MessageViewer38MessageViewerCheckBeforeDeletingPlugin9isEnabledEv
libKPim5MessageViewer.so.5:_ZNK13MessageViewer41MessageViewerCheckBeforeDeletingInterface10metaObjectEv
libKPim5MessageViewer.so.5:_ZNK13MessageViewer41MessageViewerCheckBeforeDeletingInterface10parametersEv
libKPim5MessageViewer.so.5:_ZNK13MessageViewer41MessageViewerCheckBeforeDeletingInterface12parentWidgetEv
libKPim5MessageViewer.so.5:_ZNK13MessageViewer41MessageViewerCheckBeforeDeletingInterface7actionsEv
libKPim5MessageViewer.so.5:_ZNK13MessageViewer42MessageViewerCheckBeforeDeletingParameters10deleteTypeEv
libKPim5MessageViewer.so.5:_ZNK13MessageViewer42MessageViewerCheckBeforeDeletingParameters5itemsEv
libKPim5MessageViewer.so.5:_ZNK13MessageViewer42MessageViewerCheckBeforeDeletingParameters7isValidEv
libKPim5MessageViewer.so.5:_ZNK13MessageViewer42MessageViewerCheckBeforeDeletingParameterseqERKS0_
libKPim5MessageViewer.so.5:_ZNK13MessageViewer42MessageViewerConfigureSettingsPluginWidget10helpAnchorEv
libKPim5MessageViewer.so.5:_ZNK13MessageViewer42MessageViewerConfigureSettingsPluginWidget10metaObjectEv
libKPim5MessageViewer.so.5:_ZNK13MessageViewer43MessageViewerConfigureSettingsPluginManager10metaObjectEv
libKPim5MessageViewer.so.5:_ZNK13MessageViewer43MessageViewerConfigureSettingsPluginManager11pluginsListEv
libKPim5MessageViewer.so.5:_ZNK13MessageViewer43MessageViewerConfigureSettingsPluginManager15configGroupNameEv
libKPim5MessageViewer.so.5:_ZNK13MessageViewer43MessageViewerConfigureSettingsPluginManager15pluginsDataListEv
libKPim5MessageViewer.so.5:_ZNK13MessageViewer43MessageViewerConfigureSettingsPluginManager22configPrefixSettingKeyEv
libKPim5MessageViewer.so.5:_ZNK13MessageViewer44MessageViewerCheckBeforeDeletingPluginWidget10helpAnchorEv
libKPim5MessageViewer.so.5:_ZNK13MessageViewer44MessageViewerCheckBeforeDeletingPluginWidget10metaObjectEv
libKPim5MessageViewer.so.5:_ZNK13MessageViewer45MessageViewerCheckBeforeDeletingPluginManager10metaObjectEv
libKPim5MessageViewer.so.5:_ZNK13MessageViewer45MessageViewerCheckBeforeDeletingPluginManager11pluginsListEv
libKPim5MessageViewer.so.5:_ZNK13MessageViewer45MessageViewerCheckBeforeDeletingPluginManager15configGroupNameEv
libKPim5MessageViewer.so.5:_ZNK13MessageViewer45MessageViewerCheckBeforeDeletingPluginManager15pluginsDataListEv
libKPim5MessageViewer.so.5:_ZNK13MessageViewer45MessageViewerCheckBeforeDeletingPluginManager22configPrefixSettingKeyEv
libKPim5MessageViewer.so.5:_ZNK13MessageViewer6KXFace10metaObjectEv
libKPim5MessageViewer.so.5:_ZNK13MessageViewer6Viewer10copyActionEv
libKPim5MessageViewer.so.5:_ZNK13MessageViewer6Viewer10mdnWarningEv
libKPim5MessageViewer.so.5:_ZNK13MessageViewer6Viewer10metaObjectEv
libKPim5MessageViewer.so.5:_ZNK13MessageViewer6Viewer10urlClickedEv
libKPim5MessageViewer.so.5:_ZNK13MessageViewer6Viewer11isFixedFontEv
libKPim5MessageViewer.so.5:_ZNK13MessageViewer6Viewer11messageItemEv
libKPim5MessageViewer.so.5:_ZNK13MessageViewer6Viewer11messagePathEv
libKPim5MessageViewer.so.5:_ZNK13MessageViewer6Viewer12printingModeEv
libKPim5MessageViewer.so.5:_ZNK13MessageViewer6Viewer12saveAsActionEv
libKPim5MessageViewer.so.5:_ZNK13MessageViewer6Viewer12selectedTextEv
libKPim5MessageViewer.so.5:_ZNK13MessageViewer6Viewer13copyURLActionEv
libKPim5MessageViewer.so.5:_ZNK13MessageViewer6Viewer13urlOpenActionEv
libKPim5MessageViewer.so.5:_ZNK13MessageViewer6Viewer15imageUrlClickedEv
libKPim5MessageViewer.so.5:_ZNK13MessageViewer6Viewer15selectAllActionEv
libKPim5MessageViewer.so.5:_ZNK13MessageViewer6Viewer15shareTextActionEv
libKPim5MessageViewer.so.5:_ZNK13MessageViewer6Viewer15speakTextActionEv
libKPim5MessageViewer.so.5:_ZNK13MessageViewer6Viewer16htmlLoadExternalEv
libKPim5MessageViewer.so.5:_ZNK13MessageViewer6Viewer16messageTreeModelEv
libKPim5MessageViewer.so.5:_ZNK13MessageViewer6Viewer16overrideEncodingEv
libKPim5MessageViewer.so.5:_ZNK13MessageViewer6Viewer16viewSourceActionEv
libKPim5MessageViewer.so.5:_ZNK13MessageViewer6Viewer17copyImageLocationEv
libKPim5MessageViewer.so.5:_ZNK13MessageViewer6Viewer17headerStylePluginEv
libKPim5MessageViewer.so.5:_ZNK13MessageViewer6Viewer17remoteContentMenuEv
libKPim5MessageViewer.so.5:_ZNK13MessageViewer6Viewer17webViewZoomFactorEv
libKPim5MessageViewer.so.5:_ZNK13MessageViewer6Viewer18attachmentStrategyEv
libKPim5MessageViewer.so.5:_ZNK13MessageViewer6Viewer19findInMessageActionEv
libKPim5MessageViewer.so.5:_ZNK13MessageViewer6Viewer19htmlLoadExtOverrideEv
libKPim5MessageViewer.so.5:_ZNK13MessageViewer6Viewer19mimePartTreeIsEmptyEv
libKPim5MessageViewer.so.5:_ZNK13MessageViewer6Viewer19shareServiceUrlMenuEv
libKPim5MessageViewer.so.5:_ZNK13MessageViewer6Viewer19toggleFixFontActionEv
libKPim5MessageViewer.so.5:_ZNK13MessageViewer6Viewer20showSignatureDetailsEv
libKPim5MessageViewer.so.5:_ZNK13MessageViewer6Viewer21disableEmoticonActionEv
libKPim5MessageViewer.so.5:_ZNK13MessageViewer6Viewer21interceptorUrlActionsERKN15WebEngineViewer16WebHitTestResultE
libKPim5MessageViewer.so.5:_ZNK13MessageViewer6Viewer21showEncryptionDetailsEv
libKPim5MessageViewer.so.5:_ZNK13MessageViewer6Viewer22developmentToolsActionEv
libKPim5MessageViewer.so.5:_ZNK13MessageViewer6Viewer24toggleMimePartTreeActionEv
libKPim5MessageViewer.so.5:_ZNK13MessageViewer6Viewer29displayFormatMessageOverwriteEv
libKPim5MessageViewer.so.5:_ZNK13MessageViewer6Viewer30saveMessageDisplayFormatActionEv
libKPim5MessageViewer.so.5:_ZNK13MessageViewer6Viewer31resetMessageDisplayFormatActionEv
libKPim5MessageViewer.so.5:_ZNK13MessageViewer6Viewer7messageEv
libKPim5MessageViewer.so.5:_ZNK13MessageViewer6Viewer8htmlMailEv
libKPim5MessageViewer.so.5:_ZNK13MessageViewer6Viewer9cssHelperEv
libKPim5MessageViewer.so.5:_ZNK13MessageViewer7KeyInfoeqERKS0_
libKPim5MessageViewer.so.5:_ZNK13MessageViewer7KeyInfoneERKS0_
libKPim5MessageViewer.so.5:_ZNK13MessageViewer8DKIMInfo10expireTimeEv
libKPim5MessageViewer.so.5:_ZNK13MessageViewer8DKIMInfo15bodyLengthCountEv
libKPim5MessageViewer.so.5:_ZNK13MessageViewer8DKIMInfo16bodyCanonizationEv
libKPim5MessageViewer.so.5:_ZNK13MessageViewer8DKIMInfo16hashingAlgorithmEv
libKPim5MessageViewer.so.5:_ZNK13MessageViewer8DKIMInfo16listSignedHeaderEv
libKPim5MessageViewer.so.5:_ZNK13MessageViewer8DKIMInfo16signingAlgorithmEv
libKPim5MessageViewer.so.5:_ZNK13MessageViewer8DKIMInfo17copiedHeaderFieldEv
libKPim5MessageViewer.so.5:_ZNK13MessageViewer8DKIMInfo18headerCanonizationEv
libKPim5MessageViewer.so.5:_ZNK13MessageViewer8DKIMInfo18signatureTimeStampEv
libKPim5MessageViewer.so.5:_ZNK13MessageViewer8DKIMInfo21agentOrUserIdentifierEv
libKPim5MessageViewer.so.5:_ZNK13MessageViewer8DKIMInfo5queryEv
libKPim5MessageViewer.so.5:_ZNK13MessageViewer8DKIMInfo6domainEv
libKPim5MessageViewer.so.5:_ZNK13MessageViewer8DKIMInfo7iDomainEv
libKPim5MessageViewer.so.5:_ZNK13MessageViewer8DKIMInfo7isValidEv
libKPim5MessageViewer.so.5:_ZNK13MessageViewer8DKIMInfo7versionEv
libKPim5MessageViewer.so.5:_ZNK13MessageViewer8DKIMInfo8bodyHashEv
libKPim5MessageViewer.so.5:_ZNK13MessageViewer8DKIMInfo8selectorEv
libKPim5MessageViewer.so.5:_ZNK13MessageViewer8DKIMInfo9signatureEv
libKPim5MessageViewer.so.5:_ZNK13MessageViewer8DKIMInfoeqERKS0_
libKPim5MessageViewer.so.5:_ZNK13MessageViewer8DKIMRule22signedDomainIdentifierEv
libKPim5MessageViewer.so.5:_ZNK13MessageViewer8DKIMRule4fromEv
libKPim5MessageViewer.so.5:_ZNK13MessageViewer8DKIMRule6domainEv
libKPim5MessageViewer.so.5:_ZNK13MessageViewer8DKIMRule6listIdEv
libKPim5MessageViewer.so.5:_ZNK13MessageViewer8DKIMRule7enabledEv
libKPim5MessageViewer.so.5:_ZNK13MessageViewer8DKIMRule7isValidEv
libKPim5MessageViewer.so.5:_ZNK13MessageViewer8DKIMRule8priorityEv
libKPim5MessageViewer.so.5:_ZNK13MessageViewer8DKIMRule8ruleTypeEv
libKPim5MessageViewer.so.5:_ZNK13MessageViewer8DKIMRuleeqERKS0_
libKPim5MessageViewer.so.5:_ZNK13MessageViewer8DKIMRuleneERKS0_
libKPim5MessageViewer.so.5:_ZNK13MessageViewer9CSSHelper11endBodyHtmlEv
libKPim5MessageViewer.so.5:_ZNK13MessageViewer9CSSHelper8htmlHeadERKNS_13CSSHelperBase16HtmlHeadSettingsE
libKPim5MessageViewer.so.5:_ZNK13MessageViewer9DMARCInfo10percentageEv
libKPim5MessageViewer.so.5:_ZNK13MessageViewer9DMARCInfo15subDomainPolicyEv
libKPim5MessageViewer.so.5:_ZNK13MessageViewer9DMARCInfo5adkimEv
libKPim5MessageViewer.so.5:_ZNK13MessageViewer9DMARCInfo6policyEv
libKPim5MessageViewer.so.5:_ZNK13MessageViewer9DMARCInfo7versionEv
libKPim5MessageViewer.so.5:_ZNK13MessageViewer9DMARCInfoeqERKS0_
libKPim5MessageViewer.so.5:_ZNK13MessageViewer9HTMLBlock3dirEv
libKPim5MessageViewer.so.5:_ZThn16_N13MessageViewer14DKIMRuleDialogD0Ev
libKPim5MessageViewer.so.5:_ZThn16_N13MessageViewer14DKIMRuleDialogD1Ev
libKPim5MessageViewer.so.5:_ZThn16_N13MessageViewer14DKIMRuleWidgetD0Ev
libKPim5MessageViewer.so.5:_ZThn16_N13MessageViewer14DKIMRuleWidgetD1Ev
libKPim5MessageViewer.so.5:_ZThn16_N13MessageViewer14DKIMWidgetInfoD0Ev
libKPim5MessageViewer.so.5:_ZThn16_N13MessageViewer14DKIMWidgetInfoD1Ev
libKPim5MessageViewer.so.5:_ZThn16_N13MessageViewer15ConfigureWidgetD0Ev
libKPim5MessageViewer.so.5:_ZThn16_N13MessageViewer15ConfigureWidgetD1Ev
libKPim5MessageViewer.so.5:_ZThn16_N13MessageViewer16MDNWarningWidgetD0Ev
libKPim5MessageViewer.so.5:_ZThn16_N13MessageViewer16MDNWarningWidgetD1Ev
libKPim5MessageViewer.so.5:_ZThn16_N13MessageViewer16PrintingSettingsD0Ev
libKPim5MessageViewer.so.5:_ZThn16_N13MessageViewer16PrintingSettingsD1Ev
libKPim5MessageViewer.so.5:_ZThn16_N13MessageViewer17MailWebEngineViewD0Ev
libKPim5MessageViewer.so.5:_ZThn16_N13MessageViewer17MailWebEngineViewD1Ev
libKPim5MessageViewer.so.5:_ZThn16_N13MessageViewer17MessageWidgetAreaD0Ev
libKPim5MessageViewer.so.5:_ZThn16_N13MessageViewer17MessageWidgetAreaD1Ev
libKPim5MessageViewer.so.5:_ZThn16_N13MessageViewer17RemoteContentMenuD0Ev
libKPim5MessageViewer.so.5:_ZThn16_N13MessageViewer17RemoteContentMenuD1Ev
libKPim5MessageViewer.so.5:_ZThn16_N13MessageViewer18InvitationSettingsD0Ev
libKPim5MessageViewer.so.5:_ZThn16_N13MessageViewer18InvitationSettingsD1Ev
libKPim5MessageViewer.so.5:_ZThn16_N13MessageViewer19RemoteContentDialogD0Ev
libKPim5MessageViewer.so.5:_ZThn16_N13MessageViewer19RemoteContentDialogD1Ev
libKPim5MessageViewer.so.5:_ZThn16_N13MessageViewer19RemoteContentWidgetD0Ev
libKPim5MessageViewer.so.5:_ZThn16_N13MessageViewer19RemoteContentWidgetD1Ev
libKPim5MessageViewer.so.5:_ZThn16_N13MessageViewer20DKIMManagerKeyDialogD0Ev
libKPim5MessageViewer.so.5:_ZThn16_N13MessageViewer20DKIMManagerKeyDialogD1Ev
libKPim5MessageViewer.so.5:_ZThn16_N13MessageViewer20DKIMManagerKeyWidgetD0Ev
libKPim5MessageViewer.so.5:_ZThn16_N13MessageViewer20DKIMManagerKeyWidgetD1Ev
libKPim5MessageViewer.so.5:_ZThn16_N13MessageViewer21DKIMManageRulesDialogD0Ev
libKPim5MessageViewer.so.5:_ZThn16_N13MessageViewer21DKIMManageRulesDialogD1Ev
libKPim5MessageViewer.so.5:_ZThn16_N13MessageViewer21DKIMManageRulesWidgetD0Ev
libKPim5MessageViewer.so.5:_ZThn16_N13MessageViewer21DKIMManageRulesWidgetD1Ev
libKPim5MessageViewer.so.5:_ZThn16_N13MessageViewer21ShowNextMessageWidgetD0Ev
libKPim5MessageViewer.so.5:_ZThn16_N13MessageViewer21ShowNextMessageWidgetD1Ev
libKPim5MessageViewer.so.5:_ZThn16_N13MessageViewer22MarkMessageReadHandler7setItemERKN7Akonadi4ItemE
libKPim5MessageViewer.so.5:_ZThn16_N13MessageViewer22MarkMessageReadHandlerD0Ev
libKPim5MessageViewer.so.5:_ZThn16_N13MessageViewer22MarkMessageReadHandlerD1Ev
libKPim5MessageViewer.so.5:_ZThn16_N13MessageViewer23DKIMManageRulesComboBoxD0Ev
libKPim5MessageViewer.so.5:_ZThn16_N13MessageViewer23DKIMManageRulesComboBoxD1Ev
libKPim5MessageViewer.so.5:_ZThn16_N13MessageViewer26ScamDetectionWarningWidgetD0Ev
libKPim5MessageViewer.so.5:_ZThn16_N13MessageViewer26ScamDetectionWarningWidgetD1Ev
libKPim5MessageViewer.so.5:_ZThn16_N13MessageViewer28RemoteContentConfigureDialogD0Ev
libKPim5MessageViewer.so.5:_ZThn16_N13MessageViewer28RemoteContentConfigureDialogD1Ev
libKPim5MessageViewer.so.5:_ZThn16_N13MessageViewer28RemoteContentConfigureWidgetD0Ev
libKPim5MessageViewer.so.5:_ZThn16_N13MessageViewer28RemoteContentConfigureWidgetD1Ev
libKPim5MessageViewer.so.5:_ZThn16_N13MessageViewer31RemoteContentStatusTypeComboBoxD0Ev
libKPim5MessageViewer.so.5:_ZThn16_N13MessageViewer31RemoteContentStatusTypeComboBoxD1Ev
libKPim5MessageViewer.so.5:_ZThn16_N13MessageViewer42MessageViewerConfigureSettingsPluginWidgetD0Ev
libKPim5MessageViewer.so.5:_ZThn16_N13MessageViewer42MessageViewerConfigureSettingsPluginWidgetD1Ev
libKPim5MessageViewer.so.5:_ZThn16_N13MessageViewer44MessageViewerCheckBeforeDeletingPluginWidgetD0Ev
libKPim5MessageViewer.so.5:_ZThn16_N13MessageViewer44MessageViewerCheckBeforeDeletingPluginWidgetD1Ev
libKPim5MessageViewer.so.5:_ZThn16_N13MessageViewer6ViewerD0Ev
libKPim5MessageViewer.so.5:_ZThn16_N13MessageViewer6ViewerD1Ev
libKPim5MessageViewer.so.5:_Zls6QDebugRKN13MessageViewer13DKIMKeyRecordE
libKPim5MessageViewer.so.5:_Zls6QDebugRKN13MessageViewer15OpenWithUrlInfoE
libKPim5MessageViewer.so.5:_Zls6QDebugRKN13MessageViewer17RemoteContentInfoE
libKPim5MessageViewer.so.5:_Zls6QDebugRKN13MessageViewer17ScamDetectionInfoE
libKPim5MessageViewer.so.5:_Zls6QDebugRKN13MessageViewer21DKIMCheckSignatureJob20CheckSignatureResultE
libKPim5MessageViewer.so.5:_Zls6QDebugRKN13MessageViewer21DKIMCheckSignatureJob38DKIMCheckSignatureAuthenticationResultE
libKPim5MessageViewer.so.5:_Zls6QDebugRKN13MessageViewer28DKIMAuthenticationStatusInfoE
libKPim5MessageViewer.so.5:_Zls6QDebugRKN13MessageViewer4Util15HtmlMessageInfoE
libKPim5MessageViewer.so.5:_Zls6QDebugRKN13MessageViewer7KeyInfoE
libKPim5MessageViewer.so.5:_Zls6QDebugRKN13MessageViewer8DKIMInfoE
libKPim5MessageViewer.so.5:_Zls6QDebugRKN13MessageViewer8DKIMRuleE
libKPim5MessageViewer.so.5:_Zls6QDebugRKN13MessageViewer9DMARCInfoE
libKPim5MimeTreeParser.so.5:_ZN14MimeTreeParser10NodeHelper11addTempFileERK7QString
libKPim5MimeTreeParser.so.5:_ZN14MimeTreeParser10NodeHelper11fixEncodingERK7QString
libKPim5MimeTreeParser.so.5:_ZN14MimeTreeParser10NodeHelper11qt_metacallEN11QMetaObject4CallEiPPv
libKPim5MimeTreeParser.so.5:_ZN14MimeTreeParser10NodeHelper11qt_metacastEPKc
libKPim5MimeTreeParser.so.5:_ZN14MimeTreeParser10NodeHelper12codecForNameERK10QByteArray
libKPim5MimeTreeParser.so.5:_ZN14MimeTreeParser10NodeHelper12magicSetTypeEPN5KMime7ContentEb
libKPim5MimeTreeParser.so.5:_ZN14MimeTreeParser10NodeHelper12partMetaDataEPN5KMime7ContentE
libKPim5MimeTreeParser.so.5:_ZN14MimeTreeParser10NodeHelper13createTempDirERK7QString
libKPim5MimeTreeParser.so.5:_ZN14MimeTreeParser10NodeHelper15encodingForNameERK7QString
libKPim5MimeTreeParser.so.5:_ZN14MimeTreeParser10NodeHelper15removeTempFilesEv
libKPim5MimeTreeParser.so.5:_ZN14MimeTreeParser10NodeHelper15setPartMetaDataEPN5KMime7ContentERKNS_12PartMetaDataE
libKPim5MimeTreeParser.so.5:_ZN14MimeTreeParser10NodeHelper16setNodeProcessedEPN5KMime7ContentEb
libKPim5MimeTreeParser.so.5:_ZN14MimeTreeParser10NodeHelper16setOverrideCodecEPN5KMime7ContentEPK10QTextCodec
libKPim5MimeTreeParser.so.5:_ZN14MimeTreeParser10NodeHelper17cleanExtraContentEPN5KMime7ContentE
libKPim5MimeTreeParser.so.5:_ZN14MimeTreeParser10NodeHelper17setSignatureStateEPKN5KMime7ContentENS_19KMMsgSignatureStateE
libKPim5MimeTreeParser.so.5:_ZN14MimeTreeParser10NodeHelper18attachExtraContentEPN5KMime7ContentES3_
libKPim5MimeTreeParser.so.5:_ZN14MimeTreeParser10NodeHelper18setBodyPartMementoEPN5KMime7ContentERK10QByteArrayPNS_9Interface15BodyPartMementoE
libKPim5MimeTreeParser.so.5:_ZN14MimeTreeParser10NodeHelper18setEncryptionStateEPKN5KMime7ContentENS_20KMMsgEncryptionStateE
libKPim5MimeTreeParser.so.5:_ZN14MimeTreeParser10NodeHelper18setNodeUnprocessedEPN5KMime7ContentEb
libKPim5MimeTreeParser.so.5:_ZN14MimeTreeParser10NodeHelper18supportedEncodingsEb
libKPim5MimeTreeParser.so.5:_ZN14MimeTreeParser10NodeHelper18unencryptedMessageERK14QSharedPointerIN5KMime7MessageEE
libKPim5MimeTreeParser.so.5:_ZN14MimeTreeParser10NodeHelper19forceCleanTempFilesEv
libKPim5MimeTreeParser.so.5:_ZN14MimeTreeParser10NodeHelper19tempFileUrlFromNodeEPKN5KMime7ContentE
libKPim5MimeTreeParser.so.5:_ZN14MimeTreeParser10NodeHelper19writeFileToTempFileEPN5KMime7ContentERK7QString
libKPim5MimeTreeParser.so.5:_ZN14MimeTreeParser10NodeHelper19writeNodeToTempFileEPN5KMime7ContentE
libKPim5MimeTreeParser.so.5:_ZN14MimeTreeParser10NodeHelper20clearOverrideHeadersEv
libKPim5MimeTreeParser.so.5:_ZN14MimeTreeParser10NodeHelper22registerOverrideHeaderEPN5KMime7ContentE14QSharedPointerINS_11MessagePartEE
libKPim5MimeTreeParser.so.5:_ZN14MimeTreeParser10NodeHelper22setNodeDisplayedHiddenEPN5KMime7ContentEb
libKPim5MimeTreeParser.so.5:_ZN14MimeTreeParser10NodeHelper23isInEncapsulatedMessageEPN5KMime7ContentE
libKPim5MimeTreeParser.so.5:_ZN14MimeTreeParser10NodeHelper23messageWithExtraContentEPN5KMime7ContentE
libKPim5MimeTreeParser.so.5:_ZN14MimeTreeParser10NodeHelper24setNodeDisplayedEmbeddedEPN5KMime7ContentEb
libKPim5MimeTreeParser.so.5:_ZN14MimeTreeParser10NodeHelper25unencryptedMessage_helperEPN5KMime7ContentER10QByteArraybi
libKPim5MimeTreeParser.so.5:_ZN14MimeTreeParser10NodeHelper5clearEv
libKPim5MimeTreeParser.so.5:_ZN14MimeTreeParser10NodeHelper5codecEPN5KMime7ContentE
libKPim5MimeTreeParser.so.5:_ZN14MimeTreeParser10NodeHelper6updateENS_10UpdateModeE
libKPim5MimeTreeParser.so.5:_ZN14MimeTreeParser10NodeHelper7charsetEPN5KMime7ContentE
libKPim5MimeTreeParser.so.5:_ZN14MimeTreeParser10NodeHelper7headersEPKcPKN5KMime7ContentE
libKPim5MimeTreeParser.so.5:_ZN14MimeTreeParser10NodeHelper8fileNameEPKN5KMime7ContentE
libKPim5MimeTreeParser.so.5:_ZN14MimeTreeParser10NodeHelperC1Ev
libKPim5MimeTreeParser.so.5:_ZN14MimeTreeParser10NodeHelperC2Ev
libKPim5MimeTreeParser.so.5:_ZN14MimeTreeParser10NodeHelperD0Ev
libKPim5MimeTreeParser.so.5:_ZN14MimeTreeParser10NodeHelperD1Ev
libKPim5MimeTreeParser.so.5:_ZN14MimeTreeParser10NodeHelperD2Ev
libKPim5MimeTreeParser.so.5:_ZN14MimeTreeParser11MessagePart10setContentEPN5KMime7ContentE
libKPim5MimeTreeParser.so.5:_ZN14MimeTreeParser11MessagePart10setIsImageEb
libKPim5MimeTreeParser.so.5:_ZN14MimeTreeParser11MessagePart10setMementoEPNS_9Interface15BodyPartMementoE
libKPim5MimeTreeParser.so.5:_ZN14MimeTreeParser11MessagePart11qt_metacallEN11QMetaObject4CallEiPPv
libKPim5MimeTreeParser.so.5:_ZN14MimeTreeParser11MessagePart11qt_metacastEPKc
libKPim5MimeTreeParser.so.5:_ZN14MimeTreeParser11MessagePart13appendSubPartERK14QSharedPointerIS0_E
libKPim5MimeTreeParser.so.5:_ZN14MimeTreeParser11MessagePart13clearSubPartsEv
libKPim5MimeTreeParser.so.5:_ZN14MimeTreeParser11MessagePart13parseInternalEPN5KMime7ContentEb
libKPim5MimeTreeParser.so.5:_ZN14MimeTreeParser11MessagePart13setParentPartEPS0_
libKPim5MimeTreeParser.so.5:_ZN14MimeTreeParser11MessagePart20setAttachmentContentEPN5KMime7ContentE
libKPim5MimeTreeParser.so.5:_ZN14MimeTreeParser11MessagePart21setNeverDisplayInlineEb
libKPim5MimeTreeParser.so.5:_ZN14MimeTreeParser11MessagePart7setTextERK7QString
libKPim5MimeTreeParser.so.5:_ZN14MimeTreeParser11MessagePart9setIsRootEb
libKPim5MimeTreeParser.so.5:_ZN14MimeTreeParser11MessagePartC1EPNS_16ObjectTreeParserERK7QString
libKPim5MimeTreeParser.so.5:_ZN14MimeTreeParser11MessagePartC2EPNS_16ObjectTreeParserERK7QString
libKPim5MimeTreeParser.so.5:_ZN14MimeTreeParser11MessagePartD0Ev
libKPim5MimeTreeParser.so.5:_ZN14MimeTreeParser11MessagePartD1Ev
libKPim5MimeTreeParser.so.5:_ZN14MimeTreeParser11MessagePartD2Ev
libKPim5MimeTreeParser.so.5:_ZN14MimeTreeParser13ProcessResult21setNeverDisplayInlineEb
libKPim5MimeTreeParser.so.5:_ZN14MimeTreeParser13ProcessResult23setInlineSignatureStateENS_19KMMsgSignatureStateE
libKPim5MimeTreeParser.so.5:_ZN14MimeTreeParser13ProcessResult24setInlineEncryptionStateENS_20KMMsgEncryptionStateE
libKPim5MimeTreeParser.so.5:_ZN14MimeTreeParser15CertMessagePart11qt_metacallEN11QMetaObject4CallEiPPv
libKPim5MimeTreeParser.so.5:_ZN14MimeTreeParser15CertMessagePart11qt_metacastEPKc
libKPim5MimeTreeParser.so.5:_ZN14MimeTreeParser15CertMessagePartC1EPNS_16ObjectTreeParserEPN5KMime7ContentEPKN6QGpgME8ProtocolEb
libKPim5MimeTreeParser.so.5:_ZN14MimeTreeParser15CertMessagePartC2EPNS_16ObjectTreeParserEPN5KMime7ContentEPKN6QGpgME8ProtocolEb
libKPim5MimeTreeParser.so.5:_ZN14MimeTreeParser15CertMessagePartD0Ev
libKPim5MimeTreeParser.so.5:_ZN14MimeTreeParser15CertMessagePartD1Ev
libKPim5MimeTreeParser.so.5:_ZN14MimeTreeParser15CertMessagePartD2Ev
libKPim5MimeTreeParser.so.5:_ZN14MimeTreeParser15HtmlMessagePart11qt_metacallEN11QMetaObject4CallEiPPv
libKPim5MimeTreeParser.so.5:_ZN14MimeTreeParser15HtmlMessagePart11qt_metacastEPKc
libKPim5MimeTreeParser.so.5:_ZN14MimeTreeParser15HtmlMessagePartC1EPNS_16ObjectTreeParserEPN5KMime7ContentEPNS_9Interface16ObjectTreeSourceE
libKPim5MimeTreeParser.so.5:_ZN14MimeTreeParser15HtmlMessagePartC2EPNS_16ObjectTreeParserEPN5KMime7ContentEPNS_9Interface16ObjectTreeSourceE
libKPim5MimeTreeParser.so.5:_ZN14MimeTreeParser15HtmlMessagePartD0Ev
libKPim5MimeTreeParser.so.5:_ZN14MimeTreeParser15HtmlMessagePartD1Ev
libKPim5MimeTreeParser.so.5:_ZN14MimeTreeParser15HtmlMessagePartD2Ev
libKPim5MimeTreeParser.so.5:_ZN14MimeTreeParser15MessagePartList11qt_metacallEN11QMetaObject4CallEiPPv
libKPim5MimeTreeParser.so.5:_ZN14MimeTreeParser15MessagePartList11qt_metacastEPKc
libKPim5MimeTreeParser.so.5:_ZN14MimeTreeParser15MessagePartListC1EPNS_16ObjectTreeParserE
libKPim5MimeTreeParser.so.5:_ZN14MimeTreeParser15MessagePartListC2EPNS_16ObjectTreeParserE
libKPim5MimeTreeParser.so.5:_ZN14MimeTreeParser15MessagePartListD0Ev
libKPim5MimeTreeParser.so.5:_ZN14MimeTreeParser15MessagePartListD1Ev
libKPim5MimeTreeParser.so.5:_ZN14MimeTreeParser15MessagePartListD2Ev
libKPim5MimeTreeParser.so.5:_ZN14MimeTreeParser15MimeMessagePart11qt_metacallEN11QMetaObject4CallEiPPv
libKPim5MimeTreeParser.so.5:_ZN14MimeTreeParser15MimeMessagePart11qt_metacastEPKc
libKPim5MimeTreeParser.so.5:_ZN14MimeTreeParser15MimeMessagePartC1EPNS_16ObjectTreeParserEPN5KMime7ContentEb
libKPim5MimeTreeParser.so.5:_ZN14MimeTreeParser15MimeMessagePartC2EPNS_16ObjectTreeParserEPN5KMime7ContentEb
libKPim5MimeTreeParser.so.5:_ZN14MimeTreeParser15MimeMessagePartD0Ev
libKPim5MimeTreeParser.so.5:_ZN14MimeTreeParser15MimeMessagePartD1Ev
libKPim5MimeTreeParser.so.5:_ZN14MimeTreeParser15MimeMessagePartD2Ev
libKPim5MimeTreeParser.so.5:_ZN14MimeTreeParser15TextMessagePart11qt_metacallEN11QMetaObject4CallEiPPv
libKPim5MimeTreeParser.so.5:_ZN14MimeTreeParser15TextMessagePart11qt_metacastEPKc
libKPim5MimeTreeParser.so.5:_ZN14MimeTreeParser15TextMessagePartC1EPNS_16ObjectTreeParserEPN5KMime7ContentEb
libKPim5MimeTreeParser.so.5:_ZN14MimeTreeParser15TextMessagePartC2EPNS_16ObjectTreeParserEPN5KMime7ContentEb
libKPim5MimeTreeParser.so.5:_ZN14MimeTreeParser15TextMessagePartD0Ev
libKPim5MimeTreeParser.so.5:_ZN14MimeTreeParser15TextMessagePartD1Ev
libKPim5MimeTreeParser.so.5:_ZN14MimeTreeParser15TextMessagePartD2Ev
libKPim5MimeTreeParser.so.5:_ZN14MimeTreeParser16ObjectTreeParser11processTypeEPN5KMime7ContentERNS_13ProcessResultERK10QByteArray
libKPim5MimeTreeParser.so.5:_ZN14MimeTreeParser16ObjectTreeParser13setAllowAsyncEb
libKPim5MimeTreeParser.so.5:_ZN14MimeTreeParser16ObjectTreeParser15parseObjectTreeEPN5KMime7ContentEb
libKPim5MimeTreeParser.so.5:_ZN14MimeTreeParser16ObjectTreeParser16extractNodeInfosEPN5KMime7ContentEb
libKPim5MimeTreeParser.so.5:_ZN14MimeTreeParser16ObjectTreeParser19setPlainTextContentERK7QString
libKPim5MimeTreeParser.so.5:_ZN14MimeTreeParser16ObjectTreeParser23parseObjectTreeInternalEPN5KMime7ContentEb
libKPim5MimeTreeParser.so.5:_ZN14MimeTreeParser16ObjectTreeParser4initEv
libKPim5MimeTreeParser.so.5:_ZN14MimeTreeParser16ObjectTreeParserC1EPKS0_
libKPim5MimeTreeParser.so.5:_ZN14MimeTreeParser16ObjectTreeParserC1EPNS_9Interface16ObjectTreeSourceEPNS_10NodeHelperE
libKPim5MimeTreeParser.so.5:_ZN14MimeTreeParser16ObjectTreeParserC1ERKS0_
libKPim5MimeTreeParser.so.5:_ZN14MimeTreeParser16ObjectTreeParserC2EPKS0_
libKPim5MimeTreeParser.so.5:_ZN14MimeTreeParser16ObjectTreeParserC2EPNS_9Interface16ObjectTreeSourceEPNS_10NodeHelperE
libKPim5MimeTreeParser.so.5:_ZN14MimeTreeParser16ObjectTreeParserC2ERKS0_
libKPim5MimeTreeParser.so.5:_ZN14MimeTreeParser16ObjectTreeParserD0Ev
libKPim5MimeTreeParser.so.5:_ZN14MimeTreeParser16ObjectTreeParserD1Ev
libKPim5MimeTreeParser.so.5:_ZN14MimeTreeParser16ObjectTreeParserD2Ev
libKPim5MimeTreeParser.so.5:_ZN14MimeTreeParser16PartNodeBodyPartC1EPNS_16ObjectTreeParserEPNS_13ProcessResultEPN5KMime7ContentES7_PNS_10NodeHelperE
libKPim5MimeTreeParser.so.5:_ZN14MimeTreeParser16PartNodeBodyPartC2EPNS_16ObjectTreeParserEPNS_13ProcessResultEPN5KMime7ContentES7_PNS_10NodeHelperE
libKPim5MimeTreeParser.so.5:_ZN14MimeTreeParser17SignedMessagePart11qt_metacallEN11QMetaObject4CallEiPPv
libKPim5MimeTreeParser.so.5:_ZN14MimeTreeParser17SignedMessagePart11qt_metacastEPKc
libKPim5MimeTreeParser.so.5:_ZN14MimeTreeParser17SignedMessagePart11setIsSignedEb
libKPim5MimeTreeParser.so.5:_ZN14MimeTreeParser17SignedMessagePart14setMementoNameERK10QByteArray
libKPim5MimeTreeParser.so.5:_ZN14MimeTreeParser17SignedMessagePart17startVerificationERK10QByteArrayPK10QTextCodec
libKPim5MimeTreeParser.so.5:_ZN14MimeTreeParser17SignedMessagePart21setVerificationResultEPKNS_16CompositeMementoEPN5KMime7ContentE
libKPim5MimeTreeParser.so.5:_ZN14MimeTreeParser17SignedMessagePart25startVerificationDetachedERK10QByteArrayPN5KMime7ContentES3_
libKPim5MimeTreeParser.so.5:_ZN14MimeTreeParser17SignedMessagePart8okVerifyERK10QByteArrayS3_PN5KMime7ContentE
libKPim5MimeTreeParser.so.5:_ZN14MimeTreeParser17SignedMessagePartC1EPNS_16ObjectTreeParserERK7QStringPKN6QGpgME8ProtocolES5_PN5KMime7ContentE
libKPim5MimeTreeParser.so.5:_ZN14MimeTreeParser17SignedMessagePartC2EPNS_16ObjectTreeParserERK7QStringPKN6QGpgME8ProtocolES5_PN5KMime7ContentE
libKPim5MimeTreeParser.so.5:_ZN14MimeTreeParser17SignedMessagePartD0Ev
libKPim5MimeTreeParser.so.5:_ZN14MimeTreeParser17SignedMessagePartD1Ev
libKPim5MimeTreeParser.so.5:_ZN14MimeTreeParser17SignedMessagePartD2Ev
libKPim5MimeTreeParser.so.5:_ZN14MimeTreeParser20EncryptedMessagePart11qt_metacallEN11QMetaObject4CallEiPPv
libKPim5MimeTreeParser.so.5:_ZN14MimeTreeParser20EncryptedMessagePart11qt_metacastEPKc
libKPim5MimeTreeParser.so.5:_ZN14MimeTreeParser20EncryptedMessagePart13okDecryptMIMEERN5KMime7ContentE
libKPim5MimeTreeParser.so.5:_ZN14MimeTreeParser20EncryptedMessagePart14setIsEncryptedEb
libKPim5MimeTreeParser.so.5:_ZN14MimeTreeParser20EncryptedMessagePart14setMementoNameERK10QByteArray
libKPim5MimeTreeParser.so.5:_ZN14MimeTreeParser20EncryptedMessagePart15startDecryptionEPN5KMime7ContentE
libKPim5MimeTreeParser.so.5:_ZN14MimeTreeParser20EncryptedMessagePart15startDecryptionERK10QByteArrayPK10QTextCodec
libKPim5MimeTreeParser.so.5:_ZN14MimeTreeParser20EncryptedMessagePart17setDecryptMessageEb
libKPim5MimeTreeParser.so.5:_ZN14MimeTreeParser20EncryptedMessagePartC1EPNS_16ObjectTreeParserERK7QStringPKN6QGpgME8ProtocolES5_PN5KMime7ContentE
libKPim5MimeTreeParser.so.5:_ZN14MimeTreeParser20EncryptedMessagePartC2EPNS_16ObjectTreeParserERK7QStringPKN6QGpgME8ProtocolES5_PN5KMime7ContentE
libKPim5MimeTreeParser.so.5:_ZN14MimeTreeParser20EncryptedMessagePartD0Ev
libKPim5MimeTreeParser.so.5:_ZN14MimeTreeParser20EncryptedMessagePartD1Ev
libKPim5MimeTreeParser.so.5:_ZN14MimeTreeParser20EncryptedMessagePartD2Ev
libKPim5MimeTreeParser.so.5:_ZN14MimeTreeParser21AttachmentMessagePart11qt_metacallEN11QMetaObject4CallEiPPv
libKPim5MimeTreeParser.so.5:_ZN14MimeTreeParser21AttachmentMessagePart11qt_metacastEPKc
libKPim5MimeTreeParser.so.5:_ZN14MimeTreeParser21AttachmentMessagePartC1EPNS_16ObjectTreeParserEPN5KMime7ContentEb
libKPim5MimeTreeParser.so.5:_ZN14MimeTreeParser21AttachmentMessagePartC2EPNS_16ObjectTreeParserEPN5KMime7ContentEb
libKPim5MimeTreeParser.so.5:_ZN14MimeTreeParser21AttachmentMessagePartD0Ev
libKPim5MimeTreeParser.so.5:_ZN14MimeTreeParser21AttachmentMessagePartD1Ev
libKPim5MimeTreeParser.so.5:_ZN14MimeTreeParser21AttachmentMessagePartD2Ev
libKPim5MimeTreeParser.so.5:_ZN14MimeTreeParser22AlternativeMessagePart11qt_metacallEN11QMetaObject4CallEiPPv
libKPim5MimeTreeParser.so.5:_ZN14MimeTreeParser22AlternativeMessagePart11qt_metacastEPKc
libKPim5MimeTreeParser.so.5:_ZN14MimeTreeParser22AlternativeMessagePart14availableModesEv
libKPim5MimeTreeParser.so.5:_ZN14MimeTreeParser22AlternativeMessagePart16setPreferredModeENS_4Util8HtmlModeE
libKPim5MimeTreeParser.so.5:_ZN14MimeTreeParser22AlternativeMessagePartC1EPNS_16ObjectTreeParserEPN5KMime7ContentENS_4Util8HtmlModeE
libKPim5MimeTreeParser.so.5:_ZN14MimeTreeParser22AlternativeMessagePartC2EPNS_16ObjectTreeParserEPN5KMime7ContentENS_4Util8HtmlModeE
libKPim5MimeTreeParser.so.5:_ZN14MimeTreeParser22AlternativeMessagePartD0Ev
libKPim5MimeTreeParser.so.5:_ZN14MimeTreeParser22AlternativeMessagePartD1Ev
libKPim5MimeTreeParser.so.5:_ZN14MimeTreeParser22AlternativeMessagePartD2Ev
libKPim5MimeTreeParser.so.5:_ZN14MimeTreeParser22SimpleObjectTreeSource11setHtmlModeENS_4Util8HtmlModeERK5QListIS2_E
libKPim5MimeTreeParser.so.5:_ZN14MimeTreeParser22SimpleObjectTreeSource13overrideCodecEv
libKPim5MimeTreeParser.so.5:_ZN14MimeTreeParser22SimpleObjectTreeSource16setOverrideCodecEP10QTextCodec
libKPim5MimeTreeParser.so.5:_ZN14MimeTreeParser22SimpleObjectTreeSource16setPreferredModeENS_4Util8HtmlModeE
libKPim5MimeTreeParser.so.5:_ZN14MimeTreeParser22SimpleObjectTreeSource17setDecryptMessageEb
libKPim5MimeTreeParser.so.5:_ZN14MimeTreeParser22SimpleObjectTreeSource24bodyPartFormatterFactoryEv
libKPim5MimeTreeParser.so.5:_ZN14MimeTreeParser22SimpleObjectTreeSourceC1Ev
libKPim5MimeTreeParser.so.5:_ZN14MimeTreeParser22SimpleObjectTreeSourceC2Ev
libKPim5MimeTreeParser.so.5:_ZN14MimeTreeParser22SimpleObjectTreeSourceD0Ev
libKPim5MimeTreeParser.so.5:_ZN14MimeTreeParser22SimpleObjectTreeSourceD1Ev
libKPim5MimeTreeParser.so.5:_ZN14MimeTreeParser22SimpleObjectTreeSourceD2Ev
libKPim5MimeTreeParser.so.5:_ZN14MimeTreeParser24BodyPartFormatterFactory11loadPluginsEv
libKPim5MimeTreeParser.so.5:_ZN14MimeTreeParser24BodyPartFormatterFactory6insertERK7QStringPKNS_9Interface17BodyPartFormatterEi
libKPim5MimeTreeParser.so.5:_ZN14MimeTreeParser24BodyPartFormatterFactory8instanceEv
libKPim5MimeTreeParser.so.5:_ZN14MimeTreeParser24BodyPartFormatterFactoryC1Ev
libKPim5MimeTreeParser.so.5:_ZN14MimeTreeParser24BodyPartFormatterFactoryC2Ev
libKPim5MimeTreeParser.so.5:_ZN14MimeTreeParser24BodyPartFormatterFactoryD0Ev
libKPim5MimeTreeParser.so.5:_ZN14MimeTreeParser24BodyPartFormatterFactoryD1Ev
libKPim5MimeTreeParser.so.5:_ZN14MimeTreeParser24BodyPartFormatterFactoryD2Ev
libKPim5MimeTreeParser.so.5:_ZN14MimeTreeParser28AttachmentTemporaryFilesDirs10addTempDirERK7QString
libKPim5MimeTreeParser.so.5:_ZN14MimeTreeParser28AttachmentTemporaryFilesDirs11addTempFileERK7QString
libKPim5MimeTreeParser.so.5:_ZN14MimeTreeParser28AttachmentTemporaryFilesDirs11qt_metacallEN11QMetaObject4CallEiPPv
libKPim5MimeTreeParser.so.5:_ZN14MimeTreeParser28AttachmentTemporaryFilesDirs11qt_metacastEPKc
libKPim5MimeTreeParser.so.5:_ZN14MimeTreeParser28AttachmentTemporaryFilesDirs15removeTempFilesEv
libKPim5MimeTreeParser.so.5:_ZN14MimeTreeParser28AttachmentTemporaryFilesDirs19forceCleanTempFilesEv
libKPim5MimeTreeParser.so.5:_ZN14MimeTreeParser28AttachmentTemporaryFilesDirs21setDelayRemoveAllInMsEi
libKPim5MimeTreeParser.so.5:_ZN14MimeTreeParser28AttachmentTemporaryFilesDirsC1EP7QObject
libKPim5MimeTreeParser.so.5:_ZN14MimeTreeParser28AttachmentTemporaryFilesDirsC2EP7QObject
libKPim5MimeTreeParser.so.5:_ZN14MimeTreeParser28AttachmentTemporaryFilesDirsD0Ev
libKPim5MimeTreeParser.so.5:_ZN14MimeTreeParser28AttachmentTemporaryFilesDirsD1Ev
libKPim5MimeTreeParser.so.5:_ZN14MimeTreeParser28AttachmentTemporaryFilesDirsD2Ev
libKPim5MimeTreeParser.so.5:_ZN14MimeTreeParser29EncapsulatedRfc822MessagePart11qt_metacallEN11QMetaObject4CallEiPPv
libKPim5MimeTreeParser.so.5:_ZN14MimeTreeParser29EncapsulatedRfc822MessagePart11qt_metacastEPKc
libKPim5MimeTreeParser.so.5:_ZN14MimeTreeParser29EncapsulatedRfc822MessagePartC1EPNS_16ObjectTreeParserEPN5KMime7ContentERK14QSharedPointerINS3_7MessageEE
libKPim5MimeTreeParser.so.5:_ZN14MimeTreeParser29EncapsulatedRfc822MessagePartC2EPNS_16ObjectTreeParserEPN5KMime7ContentERK14QSharedPointerINS3_7MessageEE
libKPim5MimeTreeParser.so.5:_ZN14MimeTreeParser29EncapsulatedRfc822MessagePartD0Ev
libKPim5MimeTreeParser.so.5:_ZN14MimeTreeParser29EncapsulatedRfc822MessagePartD1Ev
libKPim5MimeTreeParser.so.5:_ZN14MimeTreeParser29EncapsulatedRfc822MessagePartD2Ev
libKPim5MimeTreeParser.so.5:_ZN14MimeTreeParser4Util15labelForContentEPN5KMime7ContentE
libKPim5MimeTreeParser.so.5:_ZN14MimeTreeParser4Util16htmlModeToStringENS0_8HtmlModeE
libKPim5MimeTreeParser.so.5:_ZN14MimeTreeParser4Util17isTypeBlacklistedEPN5KMime7ContentE
libKPim5MimeTreeParser.so.5:_ZN14MimeTreeParser4Util18iconNameForContentEPN5KMime7ContentE
libKPim5MimeTreeParser.so.5:_ZN14MimeTreeParser4Util19iconNameForMimetypeERK7QStringS3_S3_
libKPim5MimeTreeParser.so.5:_ZN14MimeTreeParser4Util8mimetypeERK7QString
libKPim5MimeTreeParser.so.5:_ZN14MimeTreeParser9Interface15BodyPartMementoD0Ev
libKPim5MimeTreeParser.so.5:_ZN14MimeTreeParser9Interface15BodyPartMementoD1Ev
libKPim5MimeTreeParser.so.5:_ZN14MimeTreeParser9Interface15BodyPartMementoD2Ev
libKPim5MimeTreeParser.so.5:_ZN14MimeTreeParser9Interface16ObjectTreeSourceC1Ev
libKPim5MimeTreeParser.so.5:_ZN14MimeTreeParser9Interface16ObjectTreeSourceC2Ev
libKPim5MimeTreeParser.so.5:_ZN14MimeTreeParser9Interface16ObjectTreeSourceD0Ev
libKPim5MimeTreeParser.so.5:_ZN14MimeTreeParser9Interface16ObjectTreeSourceD1Ev
libKPim5MimeTreeParser.so.5:_ZN14MimeTreeParser9Interface16ObjectTreeSourceD2Ev
libKPim5MimeTreeParser.so.5:_ZN14MimeTreeParser9Interface17BodyPartFormatterD0Ev
libKPim5MimeTreeParser.so.5:_ZN14MimeTreeParser9Interface17BodyPartFormatterD1Ev
libKPim5MimeTreeParser.so.5:_ZN14MimeTreeParser9Interface17BodyPartFormatterD2Ev
libKPim5MimeTreeParser.so.5:_ZN14MimeTreeParser9Interface23BodyPartFormatterPluginD0Ev
libKPim5MimeTreeParser.so.5:_ZN14MimeTreeParser9Interface23BodyPartFormatterPluginD1Ev
libKPim5MimeTreeParser.so.5:_ZN14MimeTreeParser9Interface23BodyPartFormatterPluginD2Ev
libKPim5MimeTreeParser.so.5:_ZN14MimeTreeParser9Interface8BodyPartD0Ev
libKPim5MimeTreeParser.so.5:_ZN14MimeTreeParser9Interface8BodyPartD1Ev
libKPim5MimeTreeParser.so.5:_ZN14MimeTreeParser9Interface8BodyPartD2Ev
libKPim5MimeTreeParser.so.5:_ZNK14MimeTreeParser10NodeHelper10dateHeaderEPN5KMime7ContentE
libKPim5MimeTreeParser.so.5:_ZNK14MimeTreeParser10NodeHelper10metaObjectEv
libKPim5MimeTreeParser.so.5:_ZNK14MimeTreeParser10NodeHelper12fromAsStringEPN5KMime7ContentE
libKPim5MimeTreeParser.so.5:_ZNK14MimeTreeParser10NodeHelper13extraContentsEPN5KMime7ContentE
libKPim5MimeTreeParser.so.5:_ZNK14MimeTreeParser10NodeHelper13hasMailHeaderEPKcPKN5KMime7ContentE
libKPim5MimeTreeParser.so.5:_ZNK14MimeTreeParser10NodeHelper13nodeProcessedEPN5KMime7ContentE
libKPim5MimeTreeParser.so.5:_ZNK14MimeTreeParser10NodeHelper14signatureStateEPKN5KMime7ContentE
libKPim5MimeTreeParser.so.5:_ZNK14MimeTreeParser10NodeHelper15bodyPartMementoEPN5KMime7ContentERK10QByteArray
libKPim5MimeTreeParser.so.5:_ZNK14MimeTreeParser10NodeHelper15encryptionStateEPKN5KMime7ContentE
libKPim5MimeTreeParser.so.5:_ZNK14MimeTreeParser10NodeHelper15persistentIndexEPKN5KMime7ContentE
libKPim5MimeTreeParser.so.5:_ZNK14MimeTreeParser10NodeHelper16contentFromIndexEPN5KMime7ContentERK7QString
libKPim5MimeTreeParser.so.5:_ZNK14MimeTreeParser10NodeHelper16mailHeaderAsBaseEPKcPKN5KMime7ContentE
libKPim5MimeTreeParser.so.5:_ZNK14MimeTreeParser10NodeHelper21isNodeDisplayedHiddenEPN5KMime7ContentE
libKPim5MimeTreeParser.so.5:_ZNK14MimeTreeParser10NodeHelper21overallSignatureStateEPN5KMime7ContentE
libKPim5MimeTreeParser.so.5:_ZNK14MimeTreeParser10NodeHelper22extractAttachmentIndexERK7QString
libKPim5MimeTreeParser.so.5:_ZNK14MimeTreeParser10NodeHelper22overallEncryptionStateEPN5KMime7ContentE
libKPim5MimeTreeParser.so.5:_ZNK14MimeTreeParser10NodeHelper23decryptedNodeForContentEPN5KMime7ContentE
libKPim5MimeTreeParser.so.5:_ZNK14MimeTreeParser10NodeHelper23isNodeDisplayedEmbeddedEPN5KMime7ContentE
libKPim5MimeTreeParser.so.5:_ZNK14MimeTreeParser10NodeHelper23mailHeaderAsAddressListEPKcPKN5KMime7ContentE
libKPim5MimeTreeParser.so.5:_ZNK14MimeTreeParser10NodeHelper24messagePartsOfMailHeaderEPKcPKN5KMime7ContentE
libKPim5MimeTreeParser.so.5:_ZNK14MimeTreeParser10NodeHelper26attachmentsOfExtraContentsEv
libKPim5MimeTreeParser.so.5:_ZNK14MimeTreeParser10NodeHelper6asHREFEPKN5KMime7ContentE
libKPim5MimeTreeParser.so.5:_ZNK14MimeTreeParser10NodeHelper6asHREFEPKN5KMime7ContentERK7QString
libKPim5MimeTreeParser.so.5:_ZNK14MimeTreeParser10NodeHelper8fromHREFERK14QSharedPointerIN5KMime7MessageEERK4QUrl
libKPim5MimeTreeParser.so.5:_ZNK14MimeTreeParser11MessagePart10metaObjectEv
libKPim5MimeTreeParser.so.5:_ZNK14MimeTreeParser11MessagePart10nodeHelperEv
libKPim5MimeTreeParser.so.5:_ZNK14MimeTreeParser11MessagePart10parentPartEv
libKPim5MimeTreeParser.so.5:_ZNK14MimeTreeParser11MessagePart11hasSubPartsEv
libKPim5MimeTreeParser.so.5:_ZNK14MimeTreeParser11MessagePart11htmlContentEv
libKPim5MimeTreeParser.so.5:_ZNK14MimeTreeParser11MessagePart12isAttachmentEv
libKPim5MimeTreeParser.so.5:_ZNK14MimeTreeParser11MessagePart12partMetaDataEv
libKPim5MimeTreeParser.so.5:_ZNK14MimeTreeParser11MessagePart14attachmentLinkEv
libKPim5MimeTreeParser.so.5:_ZNK14MimeTreeParser11MessagePart15attachmentIndexEv
libKPim5MimeTreeParser.so.5:_ZNK14MimeTreeParser11MessagePart16plaintextContentEv
libKPim5MimeTreeParser.so.5:_ZNK14MimeTreeParser11MessagePart17attachmentContentEv
libKPim5MimeTreeParser.so.5:_ZNK14MimeTreeParser11MessagePart18neverDisplayInlineEv
libKPim5MimeTreeParser.so.5:_ZNK14MimeTreeParser11MessagePart18renderInternalTextEv
libKPim5MimeTreeParser.so.5:_ZNK14MimeTreeParser11MessagePart3fixEv
libKPim5MimeTreeParser.so.5:_ZNK14MimeTreeParser11MessagePart4textEv
libKPim5MimeTreeParser.so.5:_ZNK14MimeTreeParser11MessagePart6headerEPKc
libKPim5MimeTreeParser.so.5:_ZNK14MimeTreeParser11MessagePart6isHtmlEv
libKPim5MimeTreeParser.so.5:_ZNK14MimeTreeParser11MessagePart6isRootEv
libKPim5MimeTreeParser.so.5:_ZNK14MimeTreeParser11MessagePart6sourceEv
libKPim5MimeTreeParser.so.5:_ZNK14MimeTreeParser11MessagePart7contentEv
libKPim5MimeTreeParser.so.5:_ZNK14MimeTreeParser11MessagePart7headersEPKc
libKPim5MimeTreeParser.so.5:_ZNK14MimeTreeParser11MessagePart7isImageEv
libKPim5MimeTreeParser.so.5:_ZNK14MimeTreeParser11MessagePart7mementoEv
libKPim5MimeTreeParser.so.5:_ZNK14MimeTreeParser11MessagePart8makeLinkERK7QString
libKPim5MimeTreeParser.so.5:_ZNK14MimeTreeParser11MessagePart8subPartsEv
libKPim5MimeTreeParser.so.5:_ZNK14MimeTreeParser11MessagePart9hasHeaderEPKc
libKPim5MimeTreeParser.so.5:_ZNK14MimeTreeParser13ProcessResult18neverDisplayInlineEv
libKPim5MimeTreeParser.so.5:_ZNK14MimeTreeParser13ProcessResult20inlineSignatureStateEv
libKPim5MimeTreeParser.so.5:_ZNK14MimeTreeParser13ProcessResult21inlineEncryptionStateEv
libKPim5MimeTreeParser.so.5:_ZNK14MimeTreeParser13ProcessResult24adjustCryptoStatesOfNodeEPKN5KMime7ContentE
libKPim5MimeTreeParser.so.5:_ZNK14MimeTreeParser15CertMessagePart10metaObjectEv
libKPim5MimeTreeParser.so.5:_ZNK14MimeTreeParser15CertMessagePart12importResultEv
libKPim5MimeTreeParser.so.5:_ZNK14MimeTreeParser15CertMessagePart4textEv
libKPim5MimeTreeParser.so.5:_ZNK14MimeTreeParser15HtmlMessagePart10metaObjectEv
libKPim5MimeTreeParser.so.5:_ZNK14MimeTreeParser15HtmlMessagePart16plaintextContentEv
libKPim5MimeTreeParser.so.5:_ZNK14MimeTreeParser15HtmlMessagePart3fixEv
libKPim5MimeTreeParser.so.5:_ZNK14MimeTreeParser15HtmlMessagePart4textEv
libKPim5MimeTreeParser.so.5:_ZNK14MimeTreeParser15HtmlMessagePart6isHtmlEv
libKPim5MimeTreeParser.so.5:_ZNK14MimeTreeParser15HtmlMessagePart8bodyHtmlEv
libKPim5MimeTreeParser.so.5:_ZNK14MimeTreeParser15MessagePartList10metaObjectEv
libKPim5MimeTreeParser.so.5:_ZNK14MimeTreeParser15MessagePartList11htmlContentEv
libKPim5MimeTreeParser.so.5:_ZNK14MimeTreeParser15MessagePartList16plaintextContentEv
libKPim5MimeTreeParser.so.5:_ZNK14MimeTreeParser15MessagePartList4textEv
libKPim5MimeTreeParser.so.5:_ZNK14MimeTreeParser15MimeMessagePart10metaObjectEv
libKPim5MimeTreeParser.so.5:_ZNK14MimeTreeParser15MimeMessagePart11htmlContentEv
libKPim5MimeTreeParser.so.5:_ZNK14MimeTreeParser15MimeMessagePart16plaintextContentEv
libKPim5MimeTreeParser.so.5:_ZNK14MimeTreeParser15MimeMessagePart4textEv
libKPim5MimeTreeParser.so.5:_ZNK14MimeTreeParser15TextMessagePart10metaObjectEv
libKPim5MimeTreeParser.so.5:_ZNK14MimeTreeParser15TextMessagePart14decryptMessageEv
libKPim5MimeTreeParser.so.5:_ZNK14MimeTreeParser15TextMessagePart14signatureStateEv
libKPim5MimeTreeParser.so.5:_ZNK14MimeTreeParser15TextMessagePart15encryptionStateEv
libKPim5MimeTreeParser.so.5:_ZNK14MimeTreeParser15TextMessagePart15isFirstTextPartEv
libKPim5MimeTreeParser.so.5:_ZNK14MimeTreeParser15TextMessagePart17temporaryFilePathEv
libKPim5MimeTreeParser.so.5:_ZNK14MimeTreeParser15TextMessagePart5labelEv
libKPim5MimeTreeParser.so.5:_ZNK14MimeTreeParser15TextMessagePart7commentEv
libKPim5MimeTreeParser.so.5:_ZNK14MimeTreeParser15TextMessagePart8hasLabelEv
libKPim5MimeTreeParser.so.5:_ZNK14MimeTreeParser15TextMessagePart8showLinkEv
libKPim5MimeTreeParser.so.5:_ZNK14MimeTreeParser16ObjectTreeParser10allowAsyncEv
libKPim5MimeTreeParser.so.5:_ZNK14MimeTreeParser16ObjectTreeParser10nodeHelperEv
libKPim5MimeTreeParser.so.5:_ZNK14MimeTreeParser16ObjectTreeParser10parsedPartEv
libKPim5MimeTreeParser.so.5:_ZNK14MimeTreeParser16ObjectTreeParser11htmlContentEv
libKPim5MimeTreeParser.so.5:_ZNK14MimeTreeParser16ObjectTreeParser16plainTextContentEv
libKPim5MimeTreeParser.so.5:_ZNK14MimeTreeParser16ObjectTreeParser18htmlContentCharsetEv
libKPim5MimeTreeParser.so.5:_ZNK14MimeTreeParser16ObjectTreeParser19hasPendingAsyncJobsEv
libKPim5MimeTreeParser.so.5:_ZNK14MimeTreeParser16ObjectTreeParser23plainTextContentCharsetEv
libKPim5MimeTreeParser.so.5:_ZNK14MimeTreeParser16ObjectTreeParser8codecForEPN5KMime7ContentE
libKPim5MimeTreeParser.so.5:_ZNK14MimeTreeParser16PartNodeBodyPart10nodeHelperEv
libKPim5MimeTreeParser.so.5:_ZNK14MimeTreeParser16PartNodeBodyPart13processResultEv
libKPim5MimeTreeParser.so.5:_ZNK14MimeTreeParser16PartNodeBodyPart15topLevelContentEv
libKPim5MimeTreeParser.so.5:_ZNK14MimeTreeParser16PartNodeBodyPart16objectTreeParserEv
libKPim5MimeTreeParser.so.5:_ZNK14MimeTreeParser16PartNodeBodyPart6sourceEv
libKPim5MimeTreeParser.so.5:_ZNK14MimeTreeParser16PartNodeBodyPart7contentEv
libKPim5MimeTreeParser.so.5:_ZNK14MimeTreeParser16PartNodeBodyPart7mementoEv
libKPim5MimeTreeParser.so.5:_ZNK14MimeTreeParser17SignedMessagePart10metaObjectEv
libKPim5MimeTreeParser.so.5:_ZNK14MimeTreeParser17SignedMessagePart11cryptoProtoEv
libKPim5MimeTreeParser.so.5:_ZNK14MimeTreeParser17SignedMessagePart11fromAddressEv
libKPim5MimeTreeParser.so.5:_ZNK14MimeTreeParser17SignedMessagePart11htmlContentEv
libKPim5MimeTreeParser.so.5:_ZNK14MimeTreeParser17SignedMessagePart11mementoNameEv
libKPim5MimeTreeParser.so.5:_ZNK14MimeTreeParser17SignedMessagePart16plaintextContentEv
libKPim5MimeTreeParser.so.5:_ZNK14MimeTreeParser17SignedMessagePart6headerEPKc
libKPim5MimeTreeParser.so.5:_ZNK14MimeTreeParser17SignedMessagePart7headersEPKc
libKPim5MimeTreeParser.so.5:_ZNK14MimeTreeParser17SignedMessagePart8isSignedEv
libKPim5MimeTreeParser.so.5:_ZNK14MimeTreeParser17SignedMessagePart9hasHeaderEPKc
libKPim5MimeTreeParser.so.5:_ZNK14MimeTreeParser20EncryptedMessagePart10isNoSecKeyEv
libKPim5MimeTreeParser.so.5:_ZNK14MimeTreeParser20EncryptedMessagePart10metaObjectEv
libKPim5MimeTreeParser.so.5:_ZNK14MimeTreeParser20EncryptedMessagePart11cryptoProtoEv
libKPim5MimeTreeParser.so.5:_ZNK14MimeTreeParser20EncryptedMessagePart11fromAddressEv
libKPim5MimeTreeParser.so.5:_ZNK14MimeTreeParser20EncryptedMessagePart11htmlContentEv
libKPim5MimeTreeParser.so.5:_ZNK14MimeTreeParser20EncryptedMessagePart11isEncryptedEv
libKPim5MimeTreeParser.so.5:_ZNK14MimeTreeParser20EncryptedMessagePart11mementoNameEv
libKPim5MimeTreeParser.so.5:_ZNK14MimeTreeParser20EncryptedMessagePart13isDecryptableEv
libKPim5MimeTreeParser.so.5:_ZNK14MimeTreeParser20EncryptedMessagePart14decryptMessageEv
libKPim5MimeTreeParser.so.5:_ZNK14MimeTreeParser20EncryptedMessagePart15passphraseErrorEv
libKPim5MimeTreeParser.so.5:_ZNK14MimeTreeParser20EncryptedMessagePart16plaintextContentEv
libKPim5MimeTreeParser.so.5:_ZNK14MimeTreeParser20EncryptedMessagePart17decryptRecipientsEv
libKPim5MimeTreeParser.so.5:_ZNK14MimeTreeParser20EncryptedMessagePart4textEv
libKPim5MimeTreeParser.so.5:_ZNK14MimeTreeParser20EncryptedMessagePart6headerEPKc
libKPim5MimeTreeParser.so.5:_ZNK14MimeTreeParser20EncryptedMessagePart7headersEPKc
libKPim5MimeTreeParser.so.5:_ZNK14MimeTreeParser20EncryptedMessagePart9hasHeaderEPKc
libKPim5MimeTreeParser.so.5:_ZNK14MimeTreeParser21AttachmentMessagePart10metaObjectEv
libKPim5MimeTreeParser.so.5:_ZNK14MimeTreeParser22AlternativeMessagePart10childPartsEv
libKPim5MimeTreeParser.so.5:_ZNK14MimeTreeParser22AlternativeMessagePart10metaObjectEv
libKPim5MimeTreeParser.so.5:_ZNK14MimeTreeParser22AlternativeMessagePart11htmlContentEv
libKPim5MimeTreeParser.so.5:_ZNK14MimeTreeParser22AlternativeMessagePart13preferredModeEv
libKPim5MimeTreeParser.so.5:_ZNK14MimeTreeParser22AlternativeMessagePart16plaintextContentEv
libKPim5MimeTreeParser.so.5:_ZNK14MimeTreeParser22AlternativeMessagePart3fixEv
libKPim5MimeTreeParser.so.5:_ZNK14MimeTreeParser22AlternativeMessagePart4textEv
libKPim5MimeTreeParser.so.5:_ZNK14MimeTreeParser22AlternativeMessagePart6isHtmlEv
libKPim5MimeTreeParser.so.5:_ZNK14MimeTreeParser22SimpleObjectTreeSource13preferredModeEv
libKPim5MimeTreeParser.so.5:_ZNK14MimeTreeParser22SimpleObjectTreeSource14autoImportKeysEv
libKPim5MimeTreeParser.so.5:_ZNK14MimeTreeParser22SimpleObjectTreeSource14decryptMessageEv
libKPim5MimeTreeParser.so.5:_ZNK14MimeTreeParser24BodyPartFormatterFactory17formattersForTypeERK7QString
libKPim5MimeTreeParser.so.5:_ZNK14MimeTreeParser28AttachmentTemporaryFilesDirs10metaObjectEv
libKPim5MimeTreeParser.so.5:_ZNK14MimeTreeParser28AttachmentTemporaryFilesDirs13temporaryDirsEv
libKPim5MimeTreeParser.so.5:_ZNK14MimeTreeParser28AttachmentTemporaryFilesDirs14temporaryFilesEv
libKPim5MimeTreeParser.so.5:_ZNK14MimeTreeParser29EncapsulatedRfc822MessagePart10metaObjectEv
libKPim5MimeTreeParser.so.5:_ZNK14MimeTreeParser29EncapsulatedRfc822MessagePart3fixEv
libKPim5MimeTreeParser.so.5:_ZNK14MimeTreeParser29EncapsulatedRfc822MessagePart4textEv
libKPim5MimeTreeParser.so.5:_ZNK14MimeTreeParser29EncapsulatedRfc822MessagePart7messageEv
libKPim5TemplateParser.so.5:_ZN14TemplateParser10CTemplatesC1ERK7QString
libKPim5TemplateParser.so.5:_ZN14TemplateParser10CTemplatesC2ERK7QString
libKPim5TemplateParser.so.5:_ZN14TemplateParser10CTemplatesD0Ev
libKPim5TemplateParser.so.5:_ZN14TemplateParser10CTemplatesD1Ev
libKPim5TemplateParser.so.5:_ZN14TemplateParser10CTemplatesD2Ev
libKPim5TemplateParser.so.5:_ZN14TemplateParser15CustomTemplates11qt_metacallEN11QMetaObject4CallEiPPv
libKPim5TemplateParser.so.5:_ZN14TemplateParser15CustomTemplates11qt_metacastEPKc
libKPim5TemplateParser.so.5:_ZN14TemplateParser15CustomTemplates16templatesUpdatedEv
libKPim5TemplateParser.so.5:_ZN14TemplateParser15CustomTemplates4loadEv
libKPim5TemplateParser.so.5:_ZN14TemplateParser15CustomTemplates4saveEv
libKPim5TemplateParser.so.5:_ZN14TemplateParser15CustomTemplates7changedEv
libKPim5TemplateParser.so.5:_ZN14TemplateParser15CustomTemplatesC1ERK5QListIP17KActionCollectionEP7QWidget
libKPim5TemplateParser.so.5:_ZN14TemplateParser15CustomTemplatesC2ERK5QListIP17KActionCollectionEP7QWidget
libKPim5TemplateParser.so.5:_ZN14TemplateParser15CustomTemplatesD0Ev
libKPim5TemplateParser.so.5:_ZN14TemplateParser15CustomTemplatesD1Ev
libKPim5TemplateParser.so.5:_ZN14TemplateParser15CustomTemplatesD2Ev
libKPim5TemplateParser.so.5:_ZN14TemplateParser16DefaultTemplates12defaultReplyEv
libKPim5TemplateParser.so.5:_ZN14TemplateParser16DefaultTemplates14defaultForwardEv
libKPim5TemplateParser.so.5:_ZN14TemplateParser16DefaultTemplates15defaultReplyAllEv
libKPim5TemplateParser.so.5:_ZN14TemplateParser16DefaultTemplates17defaultNewMessageEv
libKPim5TemplateParser.so.5:_ZN14TemplateParser16DefaultTemplates18defaultQuoteStringEv
libKPim5TemplateParser.so.5:_ZN14TemplateParser17TemplateParserJob11parseQuotesERK7QStringS3_RS1_
libKPim5TemplateParser.so.5:_ZN14TemplateParser17TemplateParserJob11parsingDoneEb
libKPim5TemplateParser.so.5:_ZN14TemplateParser17TemplateParserJob11qt_metacallEN11QMetaObject4CallEiPPv
libKPim5TemplateParser.so.5:_ZN14TemplateParser17TemplateParserJob11qt_metacastEPKc
libKPim5TemplateParser.so.5:_ZN14TemplateParser17TemplateParserJob11setCharsetsERK11QStringList
libKPim5TemplateParser.so.5:_ZN14TemplateParser17TemplateParserJob11setWordWrapEbi
libKPim5TemplateParser.so.5:_ZN14TemplateParser17TemplateParserJob12findTemplateEv
libKPim5TemplateParser.so.5:_ZN14TemplateParser17TemplateParserJob12setSelectionERK7QString
libKPim5TemplateParser.so.5:_ZN14TemplateParser17TemplateParserJob13makeValidHtmlER7QString
libKPim5TemplateParser.so.5:_ZN14TemplateParser17TemplateParserJob13parsingFailedEv
libKPim5TemplateParser.so.5:_ZN14TemplateParser17TemplateParserJob14setReplyAsHtmlEb
libKPim5TemplateParser.so.5:_ZN14TemplateParser17TemplateParserJob15htmlMessageTextEbNS0_14AllowSelectionE
libKPim5TemplateParser.so.5:_ZN14TemplateParser17TemplateParserJob15plainTextToHtmlERK7QString
libKPim5TemplateParser.so.5:_ZN14TemplateParser17TemplateParserJob18findCustomTemplateERK7QString
libKPim5TemplateParser.so.5:_ZN14TemplateParser17TemplateParserJob18setAllowDecryptionEb
libKPim5TemplateParser.so.5:_ZN14TemplateParser17TemplateParserJob18setIdentityManagerEPN19KIdentityManagement15IdentityManagerE
libKPim5TemplateParser.so.5:_ZN14TemplateParser17TemplateParserJob19processWithIdentityEjRK14QSharedPointerIN5KMime7MessageEEx
libKPim5TemplateParser.so.5:_ZN14TemplateParser17TemplateParserJob19processWithTemplateERK7QString
libKPim5TemplateParser.so.5:_ZN14TemplateParser17TemplateParserJob19slotExtractInfoDoneERK35TemplateParserExtractHtmlInfoResult
libKPim5TemplateParser.so.5:_ZN14TemplateParser17TemplateParserJob4pipeERK7QStringS3_
libKPim5TemplateParser.so.5:_ZN14TemplateParser17TemplateParserJob7processERK14QSharedPointerIN5KMime7MessageEEx
libKPim5TemplateParser.so.5:_ZN14TemplateParser17TemplateParserJob7processERK7QStringRK14QSharedPointerIN5KMime7MessageEEx
libKPim5TemplateParser.so.5:_ZN14TemplateParser17TemplateParserJobC1ERK14QSharedPointerIN5KMime7MessageEENS0_4ModeEP7QObject
libKPim5TemplateParser.so.5:_ZN14TemplateParser17TemplateParserJobC2ERK14QSharedPointerIN5KMime7MessageEENS0_4ModeEP7QObject
libKPim5TemplateParser.so.5:_ZN14TemplateParser17TemplateParserJobD0Ev
libKPim5TemplateParser.so.5:_ZN14TemplateParser17TemplateParserJobD1Ev
libKPim5TemplateParser.so.5:_ZN14TemplateParser17TemplateParserJobD2Ev
libKPim5TemplateParser.so.5:_ZN14TemplateParser17TemplatesTextEdit11qt_metacallEN11QMetaObject4CallEiPPv
libKPim5TemplateParser.so.5:_ZN14TemplateParser17TemplatesTextEdit11qt_metacastEPKc
libKPim5TemplateParser.so.5:_ZN14TemplateParser17TemplatesTextEditC1EP7QWidget
libKPim5TemplateParser.so.5:_ZN14TemplateParser17TemplatesTextEditC2EP7QWidget
libKPim5TemplateParser.so.5:_ZN14TemplateParser17TemplatesTextEditD0Ev
libKPim5TemplateParser.so.5:_ZN14TemplateParser17TemplatesTextEditD1Ev
libKPim5TemplateParser.so.5:_ZN14TemplateParser17TemplatesTextEditD2Ev
libKPim5TemplateParser.so.5:_ZN14TemplateParser19CustomTemplatesMenu11qt_metacallEN11QMetaObject4CallEiPPv
libKPim5TemplateParser.so.5:_ZN14TemplateParser19CustomTemplatesMenu11qt_metacastEPKc
libKPim5TemplateParser.so.5:_ZN14TemplateParser19CustomTemplatesMenu21replyTemplateSelectedERK7QString
libKPim5TemplateParser.so.5:_ZN14TemplateParser19CustomTemplatesMenu23forwardTemplateSelectedERK7QString
libKPim5TemplateParser.so.5:_ZN14TemplateParser19CustomTemplatesMenu24replyAllTemplateSelectedERK7QString
libKPim5TemplateParser.so.5:_ZN14TemplateParser19CustomTemplatesMenu6updateEv
libKPim5TemplateParser.so.5:_ZN14TemplateParser19CustomTemplatesMenuC1EP7QWidgetP17KActionCollection
libKPim5TemplateParser.so.5:_ZN14TemplateParser19CustomTemplatesMenuC2EP7QWidgetP17KActionCollection
libKPim5TemplateParser.so.5:_ZN14TemplateParser19CustomTemplatesMenuD0Ev
libKPim5TemplateParser.so.5:_ZN14TemplateParser19CustomTemplatesMenuD1Ev
libKPim5TemplateParser.so.5:_ZN14TemplateParser19CustomTemplatesMenuD2Ev
libKPim5TemplateParser.so.5:_ZN14TemplateParser20TemplatesCommandMenu11qt_metacallEN11QMetaObject4CallEiPPv
libKPim5TemplateParser.so.5:_ZN14TemplateParser20TemplatesCommandMenu11qt_metacastEPKc
libKPim5TemplateParser.so.5:_ZN14TemplateParser20TemplatesCommandMenu12fillSubMenusEv
libKPim5TemplateParser.so.5:_ZN14TemplateParser20TemplatesCommandMenu13insertCommandENS0_7CommandE
libKPim5TemplateParser.so.5:_ZN14TemplateParser20TemplatesCommandMenu13insertCommandERK7QStringi
libKPim5TemplateParser.so.5:_ZN14TemplateParser20TemplatesCommandMenu17slotInsertCommandENS0_7CommandE
libKPim5TemplateParser.so.5:_ZN14TemplateParser20TemplatesCommandMenu7setTypeE6QFlagsINS0_8MenuTypeEE
libKPim5TemplateParser.so.5:_ZN14TemplateParser20TemplatesCommandMenu8fillMenuEv
libKPim5TemplateParser.so.5:_ZN14TemplateParser20TemplatesCommandMenuC1EP7QObject
libKPim5TemplateParser.so.5:_ZN14TemplateParser20TemplatesCommandMenuC2EP7QObject
libKPim5TemplateParser.so.5:_ZN14TemplateParser20TemplatesCommandMenuD0Ev
libKPim5TemplateParser.so.5:_ZN14TemplateParser20TemplatesCommandMenuD1Ev
libKPim5TemplateParser.so.5:_ZN14TemplateParser20TemplatesCommandMenuD2Ev
libKPim5TemplateParser.so.5:_ZN14TemplateParser22TemplateParserSettings4selfEv
libKPim5TemplateParser.so.5:_ZN14TemplateParser22TemplateParserSettingsC1Ev
libKPim5TemplateParser.so.5:_ZN14TemplateParser22TemplateParserSettingsC2Ev
libKPim5TemplateParser.so.5:_ZN14TemplateParser22TemplateParserSettingsD0Ev
libKPim5TemplateParser.so.5:_ZN14TemplateParser22TemplateParserSettingsD1Ev
libKPim5TemplateParser.so.5:_ZN14TemplateParser22TemplateParserSettingsD2Ev
libKPim5TemplateParser.so.5:_ZN14TemplateParser22TemplatesConfiguration11qt_metacallEN11QMetaObject4CallEiPPv
libKPim5TemplateParser.so.5:_ZN14TemplateParser22TemplatesConfiguration11qt_metacastEPKc
libKPim5TemplateParser.so.5:_ZN14TemplateParser22TemplatesConfiguration12saveToFolderERK7QString
libKPim5TemplateParser.so.5:_ZN14TemplateParser22TemplatesConfiguration12saveToGlobalEv
libKPim5TemplateParser.so.5:_ZN14TemplateParser22TemplatesConfiguration14configIdStringEj
libKPim5TemplateParser.so.5:_ZN14TemplateParser22TemplatesConfiguration14loadFromFolderERK7QStringj
libKPim5TemplateParser.so.5:_ZN14TemplateParser22TemplatesConfiguration14loadFromGlobalEv
libKPim5TemplateParser.so.5:_ZN14TemplateParser22TemplatesConfiguration14resetToDefaultEv
libKPim5TemplateParser.so.5:_ZN14TemplateParser22TemplatesConfiguration14saveToIdentityEj
libKPim5TemplateParser.so.5:_ZN14TemplateParser22TemplatesConfiguration15slotTextChangedEv
libKPim5TemplateParser.so.5:_ZN14TemplateParser22TemplatesConfiguration16loadFromIdentityEj
libKPim5TemplateParser.so.5:_ZN14TemplateParser22TemplatesConfiguration17slotInsertCommandERK7QStringi
libKPim5TemplateParser.so.5:_ZN14TemplateParser22TemplatesConfiguration7changedEv
libKPim5TemplateParser.so.5:_ZN14TemplateParser22TemplatesConfigurationC1EP7QWidgetRK7QString
libKPim5TemplateParser.so.5:_ZN14TemplateParser22TemplatesConfigurationC2EP7QWidgetRK7QString
libKPim5TemplateParser.so.5:_ZN14TemplateParser22TemplatesConfigurationD0Ev
libKPim5TemplateParser.so.5:_ZN14TemplateParser22TemplatesConfigurationD1Ev
libKPim5TemplateParser.so.5:_ZN14TemplateParser22TemplatesConfigurationD2Ev
libKPim5TemplateParser.so.5:_ZN14TemplateParser25TemplateConvertCommandJob11convertTextEv
libKPim5TemplateParser.so.5:_ZN14TemplateParser25TemplateConvertCommandJob11qt_metacallEN11QMetaObject4CallEiPPv
libKPim5TemplateParser.so.5:_ZN14TemplateParser25TemplateConvertCommandJob11qt_metacastEPKc
libKPim5TemplateParser.so.5:_ZN14TemplateParser25TemplateConvertCommandJob14setCurrentTextERK7QString
libKPim5TemplateParser.so.5:_ZN14TemplateParser25TemplateConvertCommandJob18setOriginalMessageERK14QSharedPointerIN5KMime7MessageEE
libKPim5TemplateParser.so.5:_ZN14TemplateParser25TemplateConvertCommandJobC1EP7QObject
libKPim5TemplateParser.so.5:_ZN14TemplateParser25TemplateConvertCommandJobC2EP7QObject
libKPim5TemplateParser.so.5:_ZN14TemplateParser25TemplateConvertCommandJobD0Ev
libKPim5TemplateParser.so.5:_ZN14TemplateParser25TemplateConvertCommandJobD1Ev
libKPim5TemplateParser.so.5:_ZN14TemplateParser25TemplateConvertCommandJobD2Ev
libKPim5TemplateParser.so.5:_ZN14TemplateParser27TemplateExtractTextFromMail11qt_metacallEN11QMetaObject4CallEiPPv
libKPim5TemplateParser.so.5:_ZN14TemplateParser27TemplateExtractTextFromMail11qt_metacastEPKc
libKPim5TemplateParser.so.5:_ZN14TemplateParser27TemplateExtractTextFromMail14setHtmlContentERK7QString
libKPim5TemplateParser.so.5:_ZN14TemplateParser27TemplateExtractTextFromMail15loadContentDoneEb
libKPim5TemplateParser.so.5:_ZN14TemplateParser27TemplateExtractTextFromMailC1EP7QObject
libKPim5TemplateParser.so.5:_ZN14TemplateParser27TemplateExtractTextFromMailC2EP7QObject
libKPim5TemplateParser.so.5:_ZN14TemplateParser27TemplateExtractTextFromMailD0Ev
libKPim5TemplateParser.so.5:_ZN14TemplateParser27TemplateExtractTextFromMailD1Ev
libKPim5TemplateParser.so.5:_ZN14TemplateParser27TemplateExtractTextFromMailD2Ev
libKPim5TemplateParser.so.5:_ZN14TemplateParser28TemplatesInsertCommandAction11qt_metacallEN11QMetaObject4CallEiPPv
libKPim5TemplateParser.so.5:_ZN14TemplateParser28TemplatesInsertCommandAction11qt_metacastEPKc
libKPim5TemplateParser.so.5:_ZN14TemplateParser28TemplatesInsertCommandAction13insertCommandERK7QStringi
libKPim5TemplateParser.so.5:_ZN14TemplateParser28TemplatesInsertCommandAction7setTypeE6QFlagsINS_20TemplatesCommandMenu8MenuTypeEE
libKPim5TemplateParser.so.5:_ZN14TemplateParser28TemplatesInsertCommandActionC1EP7QObject
libKPim5TemplateParser.so.5:_ZN14TemplateParser28TemplatesInsertCommandActionC2EP7QObject
libKPim5TemplateParser.so.5:_ZN14TemplateParser28TemplatesInsertCommandActionD0Ev
libKPim5TemplateParser.so.5:_ZN14TemplateParser28TemplatesInsertCommandActionD1Ev
libKPim5TemplateParser.so.5:_ZN14TemplateParser28TemplatesInsertCommandActionD2Ev
libKPim5TemplateParser.so.5:_ZN14TemplateParser29TemplateParserExtractHtmlInfo11qt_metacallEN11QMetaObject4CallEiPPv
libKPim5TemplateParser.so.5:_ZN14TemplateParser29TemplateParserExtractHtmlInfo11qt_metacastEPKc
libKPim5TemplateParser.so.5:_ZN14TemplateParser29TemplateParserExtractHtmlInfo11setTemplateERK7QString
libKPim5TemplateParser.so.5:_ZN14TemplateParser29TemplateParserExtractHtmlInfo29setHtmlForExtractingTextPlainERK7QString
libKPim5TemplateParser.so.5:_ZN14TemplateParser29TemplateParserExtractHtmlInfo30slotExtractHtmlElementFinishedEb
libKPim5TemplateParser.so.5:_ZN14TemplateParser29TemplateParserExtractHtmlInfo30slotExtractToPlainTextFinishedEb
libKPim5TemplateParser.so.5:_ZN14TemplateParser29TemplateParserExtractHtmlInfo33setHtmlForExtractionHeaderAndBodyERK7QString
libKPim5TemplateParser.so.5:_ZN14TemplateParser29TemplateParserExtractHtmlInfo5startEv
libKPim5TemplateParser.so.5:_ZN14TemplateParser29TemplateParserExtractHtmlInfo8finishedERK35TemplateParserExtractHtmlInfoResult
libKPim5TemplateParser.so.5:_ZN14TemplateParser29TemplateParserExtractHtmlInfoC1EP7QObject
libKPim5TemplateParser.so.5:_ZN14TemplateParser29TemplateParserExtractHtmlInfoC2EP7QObject
libKPim5TemplateParser.so.5:_ZN14TemplateParser29TemplateParserExtractHtmlInfoD0Ev
libKPim5TemplateParser.so.5:_ZN14TemplateParser29TemplateParserExtractHtmlInfoD1Ev
libKPim5TemplateParser.so.5:_ZN14TemplateParser29TemplateParserExtractHtmlInfoD2Ev
libKPim5TemplateParser.so.5:_ZN14TemplateParser32TemplatesInsertCommandPushButton11qt_metacallEN11QMetaObject4CallEiPPv
libKPim5TemplateParser.so.5:_ZN14TemplateParser32TemplatesInsertCommandPushButton11qt_metacastEPKc
libKPim5TemplateParser.so.5:_ZN14TemplateParser32TemplatesInsertCommandPushButton13insertCommandERK7QStringi
libKPim5TemplateParser.so.5:_ZN14TemplateParser32TemplatesInsertCommandPushButton7setTypeE6QFlagsINS_20TemplatesCommandMenu8MenuTypeEE
libKPim5TemplateParser.so.5:_ZN14TemplateParser32TemplatesInsertCommandPushButtonC1EP7QWidgetRK7QString
libKPim5TemplateParser.so.5:_ZN14TemplateParser32TemplatesInsertCommandPushButtonC2EP7QWidgetRK7QString
libKPim5TemplateParser.so.5:_ZN14TemplateParser32TemplatesInsertCommandPushButtonD0Ev
libKPim5TemplateParser.so.5:_ZN14TemplateParser32TemplatesInsertCommandPushButtonD1Ev
libKPim5TemplateParser.so.5:_ZN14TemplateParser32TemplatesInsertCommandPushButtonD2Ev
libKPim5TemplateParser.so.5:_ZN14TemplateParser34TemplateExtractHtmlElementFromMail11qt_metacallEN11QMetaObject4CallEiPPv
libKPim5TemplateParser.so.5:_ZN14TemplateParser34TemplateExtractHtmlElementFromMail11qt_metacastEPKc
libKPim5TemplateParser.so.5:_ZN14TemplateParser34TemplateExtractHtmlElementFromMail14handleHtmlInfoERK8QVariant
libKPim5TemplateParser.so.5:_ZN14TemplateParser34TemplateExtractHtmlElementFromMail14setHtmlContentERK7QString
libKPim5TemplateParser.so.5:_ZN14TemplateParser34TemplateExtractHtmlElementFromMail15loadContentDoneEb
libKPim5TemplateParser.so.5:_ZN14TemplateParser34TemplateExtractHtmlElementFromMail16slotLoadFinishedEb
libKPim5TemplateParser.so.5:_ZN14TemplateParser34TemplateExtractHtmlElementFromMail5clearEv
libKPim5TemplateParser.so.5:_ZN14TemplateParser34TemplateExtractHtmlElementFromMailC1EP7QObject
libKPim5TemplateParser.so.5:_ZN14TemplateParser34TemplateExtractHtmlElementFromMailC2EP7QObject
libKPim5TemplateParser.so.5:_ZN14TemplateParser34TemplateExtractHtmlElementFromMailD0Ev
libKPim5TemplateParser.so.5:_ZN14TemplateParser34TemplateExtractHtmlElementFromMailD1Ev
libKPim5TemplateParser.so.5:_ZN14TemplateParser34TemplateExtractHtmlElementFromMailD2Ev
libKPim5TemplateParser.so.5:_ZN14TemplateParser39TemplateParserEmailAddressRequesterBase11qt_metacallEN11QMetaObject4CallEiPPv
libKPim5TemplateParser.so.5:_ZN14TemplateParser39TemplateParserEmailAddressRequesterBase11qt_metacastEPKc
libKPim5TemplateParser.so.5:_ZN14TemplateParser39TemplateParserEmailAddressRequesterBase11textChangedEv
libKPim5TemplateParser.so.5:_ZN14TemplateParser39TemplateParserEmailAddressRequesterBase5clearEv
libKPim5TemplateParser.so.5:_ZN14TemplateParser39TemplateParserEmailAddressRequesterBase7setTextERK7QString
libKPim5TemplateParser.so.5:_ZN14TemplateParser39TemplateParserEmailAddressRequesterBaseC1EP7QWidget
libKPim5TemplateParser.so.5:_ZN14TemplateParser39TemplateParserEmailAddressRequesterBaseC2EP7QWidget
libKPim5TemplateParser.so.5:_ZN14TemplateParser39TemplateParserEmailAddressRequesterBaseD0Ev
libKPim5TemplateParser.so.5:_ZN14TemplateParser39TemplateParserEmailAddressRequesterBaseD1Ev
libKPim5TemplateParser.so.5:_ZN14TemplateParser39TemplateParserEmailAddressRequesterBaseD2Ev
libKPim5TemplateParser.so.5:_ZN14TemplateParser43TemplateParserEmailAddressRequesterLineEdit11qt_metacallEN11QMetaObject4CallEiPPv
libKPim5TemplateParser.so.5:_ZN14TemplateParser43TemplateParserEmailAddressRequesterLineEdit11qt_metacastEPKc
libKPim5TemplateParser.so.5:_ZN14TemplateParser43TemplateParserEmailAddressRequesterLineEdit5clearEv
libKPim5TemplateParser.so.5:_ZN14TemplateParser43TemplateParserEmailAddressRequesterLineEdit7setTextERK7QString
libKPim5TemplateParser.so.5:_ZN14TemplateParser43TemplateParserEmailAddressRequesterLineEditC1EP7QWidget
libKPim5TemplateParser.so.5:_ZN14TemplateParser43TemplateParserEmailAddressRequesterLineEditC2EP7QWidget
libKPim5TemplateParser.so.5:_ZN14TemplateParser43TemplateParserEmailAddressRequesterLineEditD0Ev
libKPim5TemplateParser.so.5:_ZN14TemplateParser43TemplateParserEmailAddressRequesterLineEditD1Ev
libKPim5TemplateParser.so.5:_ZN14TemplateParser43TemplateParserEmailAddressRequesterLineEditD2Ev
libKPim5TemplateParser.so.5:_ZN14TemplateParser4Util14deleteTemplateERK7QString
libKPim5TemplateParser.so.5:_ZN14TemplateParser4Util16keywordsWithArgsEv
libKPim5TemplateParser.so.5:_ZN14TemplateParser4Util18removeSpaceAtBeginERK7QString
libKPim5TemplateParser.so.5:_ZN14TemplateParser4Util20getLastNameFromEmailERK7QString
libKPim5TemplateParser.so.5:_ZN14TemplateParser4Util21getFirstNameFromEmailERK7QString
libKPim5TemplateParser.so.5:_ZN14TemplateParser4Util8keywordsEv
libKPim5TemplateParser.so.5:_ZN14TemplateParser50TemplateParserEmailAddressRequesterInterfaceWidget11qt_metacallEN11QMetaObject4CallEiPPv
libKPim5TemplateParser.so.5:_ZN14TemplateParser50TemplateParserEmailAddressRequesterInterfaceWidget11qt_metacastEPKc
libKPim5TemplateParser.so.5:_ZN14TemplateParser50TemplateParserEmailAddressRequesterInterfaceWidget11textChangedEv
libKPim5TemplateParser.so.5:_ZN14TemplateParser50TemplateParserEmailAddressRequesterInterfaceWidget21initializeEmailWidgetEv
libKPim5TemplateParser.so.5:_ZN14TemplateParser50TemplateParserEmailAddressRequesterInterfaceWidget5clearEv
libKPim5TemplateParser.so.5:_ZN14TemplateParser50TemplateParserEmailAddressRequesterInterfaceWidget7setTextERK7QString
libKPim5TemplateParser.so.5:_ZN14TemplateParser50TemplateParserEmailAddressRequesterInterfaceWidgetC1EP7QWidget
libKPim5TemplateParser.so.5:_ZN14TemplateParser50TemplateParserEmailAddressRequesterInterfaceWidgetC2EP7QWidget
libKPim5TemplateParser.so.5:_ZN14TemplateParser9TemplatesC1ERK7QString
libKPim5TemplateParser.so.5:_ZN14TemplateParser9TemplatesC2ERK7QString
libKPim5TemplateParser.so.5:_ZN14TemplateParser9TemplatesD0Ev
libKPim5TemplateParser.so.5:_ZN14TemplateParser9TemplatesD1Ev
libKPim5TemplateParser.so.5:_ZN14TemplateParser9TemplatesD2Ev
libKPim5TemplateParser.so.5:_ZN35TemplateParserExtractHtmlInfoResult5clearEv
libKPim5TemplateParser.so.5:_ZNK14TemplateParser15CustomTemplates10metaObjectEv
libKPim5TemplateParser.so.5:_ZNK14TemplateParser17TemplateParserJob10metaObjectEv
libKPim5TemplateParser.so.5:_ZNK14TemplateParser17TemplateParserJob12identityUoidERK14QSharedPointerIN5KMime7MessageEE
libKPim5TemplateParser.so.5:_ZNK14TemplateParser17TemplateParserJob14quotedHtmlTextERK7QString
libKPim5TemplateParser.so.5:_ZNK14TemplateParser17TemplateParserJob15isHtmlSignatureEv
libKPim5TemplateParser.so.5:_ZNK14TemplateParser17TemplateParserJob15quotedPlainTextERK7QString
libKPim5TemplateParser.so.5:_ZNK14TemplateParser17TemplateParserJob16getHtmlSignatureEv
libKPim5TemplateParser.so.5:_ZNK14TemplateParser17TemplateParserJob16plainMessageTextEbNS0_14AllowSelectionE
libKPim5TemplateParser.so.5:_ZNK14TemplateParser17TemplateParserJob17getPlainSignatureEv
libKPim5TemplateParser.so.5:_ZNK14TemplateParser17TemplateParserJob20createMultipartMixedERK7QVectorIPN5KMime7ContentEES4_
libKPim5TemplateParser.so.5:_ZNK14TemplateParser17TemplateParserJob20shouldStripSignatureEv
libKPim5TemplateParser.so.5:_ZNK14TemplateParser17TemplateParserJob22createMultipartRelatedERKN11MessageCore14ImageCollectorEPN5KMime7ContentE
libKPim5TemplateParser.so.5:_ZNK14TemplateParser17TemplateParserJob22createPlainPartContentERK7QString
libKPim5TemplateParser.so.5:_ZNK14TemplateParser17TemplateParserJob25addProcessedBodyToMessageERK7QStringS3_
libKPim5TemplateParser.so.5:_ZNK14TemplateParser17TemplateParserJob33createMultipartAlternativeContentERK7QStringS3_
libKPim5TemplateParser.so.5:_ZNK14TemplateParser17TemplatesTextEdit10metaObjectEv
libKPim5TemplateParser.so.5:_ZNK14TemplateParser19CustomTemplatesMenu10metaObjectEv
libKPim5TemplateParser.so.5:_ZNK14TemplateParser19CustomTemplatesMenu15replyActionMenuEv
libKPim5TemplateParser.so.5:_ZNK14TemplateParser19CustomTemplatesMenu17forwardActionMenuEv
libKPim5TemplateParser.so.5:_ZNK14TemplateParser19CustomTemplatesMenu18replyAllActionMenuEv
libKPim5TemplateParser.so.5:_ZNK14TemplateParser20TemplatesCommandMenu10metaObjectEv
libKPim5TemplateParser.so.5:_ZNK14TemplateParser20TemplatesCommandMenu4menuEv
libKPim5TemplateParser.so.5:_ZNK14TemplateParser20TemplatesCommandMenu4typeEv
libKPim5TemplateParser.so.5:_ZNK14TemplateParser22TemplatesConfiguration10metaObjectEv
libKPim5TemplateParser.so.5:_ZNK14TemplateParser22TemplatesConfiguration9helpLabelEv
libKPim5TemplateParser.so.5:_ZNK14TemplateParser25TemplateConvertCommandJob10metaObjectEv
libKPim5TemplateParser.so.5:_ZNK14TemplateParser25TemplateConvertCommandJob11currentTextEv
libKPim5TemplateParser.so.5:_ZNK14TemplateParser25TemplateConvertCommandJob15originalMessageEv
libKPim5TemplateParser.so.5:_ZNK14TemplateParser27TemplateExtractTextFromMail10metaObjectEv
libKPim5TemplateParser.so.5:_ZNK14TemplateParser27TemplateExtractTextFromMail9plainTextEv
libKPim5TemplateParser.so.5:_ZNK14TemplateParser28TemplatesInsertCommandAction10metaObjectEv
libKPim5TemplateParser.so.5:_ZNK14TemplateParser28TemplatesInsertCommandAction4typeEv
libKPim5TemplateParser.so.5:_ZNK14TemplateParser29TemplateParserExtractHtmlInfo10metaObjectEv
libKPim5TemplateParser.so.5:_ZNK14TemplateParser32TemplatesInsertCommandPushButton10metaObjectEv
libKPim5TemplateParser.so.5:_ZNK14TemplateParser32TemplatesInsertCommandPushButton4typeEv
libKPim5TemplateParser.so.5:_ZNK14TemplateParser34TemplateExtractHtmlElementFromMail10metaObjectEv
libKPim5TemplateParser.so.5:_ZNK14TemplateParser34TemplateExtractHtmlElementFromMail11bodyElementEv
libKPim5TemplateParser.so.5:_ZNK14TemplateParser34TemplateExtractHtmlElementFromMail11htmlElementEv
libKPim5TemplateParser.so.5:_ZNK14TemplateParser34TemplateExtractHtmlElementFromMail13headerElementEv
libKPim5TemplateParser.so.5:_ZNK14TemplateParser39TemplateParserEmailAddressRequesterBase10metaObjectEv
libKPim5TemplateParser.so.5:_ZNK14TemplateParser39TemplateParserEmailAddressRequesterBase4textEv
libKPim5TemplateParser.so.5:_ZNK14TemplateParser43TemplateParserEmailAddressRequesterLineEdit10metaObjectEv
libKPim5TemplateParser.so.5:_ZNK14TemplateParser43TemplateParserEmailAddressRequesterLineEdit4textEv
libKPim5TemplateParser.so.5:_ZNK14TemplateParser50TemplateParserEmailAddressRequesterInterfaceWidget10metaObjectEv
libKPim5TemplateParser.so.5:_ZNK14TemplateParser50TemplateParserEmailAddressRequesterInterfaceWidget4textEv
libKPim5TemplateParser.so.5:_ZThn16_N14TemplateParser15CustomTemplatesD0Ev
libKPim5TemplateParser.so.5:_ZThn16_N14TemplateParser15CustomTemplatesD1Ev
libKPim5TemplateParser.so.5:_ZThn16_N14TemplateParser17TemplatesTextEditD0Ev
libKPim5TemplateParser.so.5:_ZThn16_N14TemplateParser17TemplatesTextEditD1Ev
libKPim5TemplateParser.so.5:_ZThn16_N14TemplateParser22TemplatesConfigurationD0Ev
libKPim5TemplateParser.so.5:_ZThn16_N14TemplateParser22TemplatesConfigurationD1Ev
libKPim5TemplateParser.so.5:_ZThn16_N14TemplateParser32TemplatesInsertCommandPushButtonD0Ev
libKPim5TemplateParser.so.5:_ZThn16_N14TemplateParser32TemplatesInsertCommandPushButtonD1Ev
libKPim5TemplateParser.so.5:_ZThn16_N14TemplateParser39TemplateParserEmailAddressRequesterBaseD0Ev
libKPim5TemplateParser.so.5:_ZThn16_N14TemplateParser39TemplateParserEmailAddressRequesterBaseD1Ev
libKPim5TemplateParser.so.5:_ZThn16_N14TemplateParser43TemplateParserEmailAddressRequesterLineEditD0Ev
libKPim5TemplateParser.so.5:_ZThn16_N14TemplateParser43TemplateParserEmailAddressRequesterLineEditD1Ev
libKPim5WebEngineViewer.so.5:_ZN15WebEngineViewer10UrlHashing15canonicalizeUrlE4QUrl
libKPim5WebEngineViewer.so.5:_ZN15WebEngineViewer10UrlHashing20generateHostsToCheckERK7QString
libKPim5WebEngineViewer.so.5:_ZN15WebEngineViewer10UrlHashing20generatePathsToCheckERK7QStringS3_
libKPim5WebEngineViewer.so.5:_ZN15WebEngineViewer10UrlHashingC1ERK4QUrl
libKPim5WebEngineViewer.so.5:_ZN15WebEngineViewer10UrlHashingC2ERK4QUrl
libKPim5WebEngineViewer.so.5:_ZN15WebEngineViewer10UrlHashingD1Ev
libKPim5WebEngineViewer.so.5:_ZN15WebEngineViewer10UrlHashingD2Ev
libKPim5WebEngineViewer.so.5:_ZN15WebEngineViewer10WebHitTest11qt_metacallEN11QMetaObject4CallEiPPv
libKPim5WebEngineViewer.so.5:_ZN15WebEngineViewer10WebHitTest11qt_metacastEPKc
libKPim5WebEngineViewer.so.5:_ZN15WebEngineViewer10WebHitTest8finishedERKNS_16WebHitTestResultE
libKPim5WebEngineViewer.so.5:_ZN15WebEngineViewer10WebHitTestC1EP14QWebEnginePageRK6QPointS5_P7QObject
libKPim5WebEngineViewer.so.5:_ZN15WebEngineViewer10WebHitTestC2EP14QWebEnginePageRK6QPointS5_P7QObject
libKPim5WebEngineViewer.so.5:_ZN15WebEngineViewer10WebHitTestD0Ev
libKPim5WebEngineViewer.so.5:_ZN15WebEngineViewer10WebHitTestD1Ev
libKPim5WebEngineViewer.so.5:_ZN15WebEngineViewer10WebHitTestD2Ev
libKPim5WebEngineViewer.so.5:_ZN15WebEngineViewer11FindBarBase10autoSearchERK7QString
libKPim5WebEngineViewer.so.5:_ZN15WebEngineViewer11FindBarBase10searchTextEbb
libKPim5WebEngineViewer.so.5:_ZN15WebEngineViewer11FindBarBase11hideFindBarEv
libKPim5WebEngineViewer.so.5:_ZN15WebEngineViewer11FindBarBase11qt_metacallEN11QMetaObject4CallEiPPv
libKPim5WebEngineViewer.so.5:_ZN15WebEngineViewer11FindBarBase11qt_metacastEPKc
libKPim5WebEngineViewer.so.5:_ZN15WebEngineViewer11FindBarBase13setFoundMatchEb
libKPim5WebEngineViewer.so.5:_ZN15WebEngineViewer11FindBarBase13updatePaletteEv
libKPim5WebEngineViewer.so.5:_ZN15WebEngineViewer11FindBarBase14slotSearchTextEbb
libKPim5WebEngineViewer.so.5:_ZN15WebEngineViewer11FindBarBase15addToCompletionERK7QString
libKPim5WebEngineViewer.so.5:_ZN15WebEngineViewer11FindBarBase15clearSelectionsEv
libKPim5WebEngineViewer.so.5:_ZN15WebEngineViewer11FindBarBase15slotClearSearchEv
libKPim5WebEngineViewer.so.5:_ZN15WebEngineViewer11FindBarBase15updateHighLightEb
libKPim5WebEngineViewer.so.5:_ZN15WebEngineViewer11FindBarBase17focusAndSetCursorEv
libKPim5WebEngineViewer.so.5:_ZN15WebEngineViewer11FindBarBase17updateSensitivityEb
libKPim5WebEngineViewer.so.5:_ZN15WebEngineViewer11FindBarBase22caseSensitivityChangedEb
libKPim5WebEngineViewer.so.5:_ZN15WebEngineViewer11FindBarBase23slotHighlightAllChangedEb
libKPim5WebEngineViewer.so.5:_ZN15WebEngineViewer11FindBarBase5eventEP6QEvent
libKPim5WebEngineViewer.so.5:_ZN15WebEngineViewer11FindBarBase7setTextERK7QString
libKPim5WebEngineViewer.so.5:_ZN15WebEngineViewer11FindBarBase8closeBarEv
libKPim5WebEngineViewer.so.5:_ZN15WebEngineViewer11FindBarBase8findNextEv
libKPim5WebEngineViewer.so.5:_ZN15WebEngineViewer11FindBarBase8findPrevEv
libKPim5WebEngineViewer.so.5:_ZN15WebEngineViewer11FindBarBaseC1EP7QWidget
libKPim5WebEngineViewer.so.5:_ZN15WebEngineViewer11FindBarBaseC2EP7QWidget
libKPim5WebEngineViewer.so.5:_ZN15WebEngineViewer11FindBarBaseD0Ev
libKPim5WebEngineViewer.so.5:_ZN15WebEngineViewer11FindBarBaseD1Ev
libKPim5WebEngineViewer.so.5:_ZN15WebEngineViewer11FindBarBaseD2Ev
libKPim5WebEngineViewer.so.5:_ZN15WebEngineViewer13WebEnginePage10urlClickedERK4QUrl
libKPim5WebEngineViewer.so.5:_ZN15WebEngineViewer13WebEnginePage11qt_metacallEN11QMetaObject4CallEiPPv
libKPim5WebEngineViewer.so.5:_ZN15WebEngineViewer13WebEnginePage11qt_metacastEPKc
libKPim5WebEngineViewer.so.5:_ZN15WebEngineViewer13WebEnginePage14hitTestContentERK6QPoint
libKPim5WebEngineViewer.so.5:_ZN15WebEngineViewer13WebEnginePage18showConsoleMessageERK7QString
libKPim5WebEngineViewer.so.5:_ZN15WebEngineViewer13WebEnginePage20execPrintPreviewPageEP8QPrinteri
libKPim5WebEngineViewer.so.5:_ZN15WebEngineViewer13WebEnginePage23acceptNavigationRequestERK4QUrlN14QWebEnginePage14NavigationTypeEb
libKPim5WebEngineViewer.so.5:_ZN15WebEngineViewer13WebEnginePage24javaScriptConsoleMessageEN14QWebEnginePage29JavaScriptConsoleMessageLevelERK7QStringiS5_
libKPim5WebEngineViewer.so.5:_ZN15WebEngineViewer13WebEnginePage8saveHtmlEP22QWebEngineDownloadItem
libKPim5WebEngineViewer.so.5:_ZN15WebEngineViewer13WebEnginePageC1EP17QWebEngineProfileP7QObject
libKPim5WebEngineViewer.so.5:_ZN15WebEngineViewer13WebEnginePageC1EP7QObject
libKPim5WebEngineViewer.so.5:_ZN15WebEngineViewer13WebEnginePageC2EP17QWebEngineProfileP7QObject
libKPim5WebEngineViewer.so.5:_ZN15WebEngineViewer13WebEnginePageC2EP7QObject
libKPim5WebEngineViewer.so.5:_ZN15WebEngineViewer13WebEngineView11eventFilterEP7QObjectP6QEvent
libKPim5WebEngineViewer.so.5:_ZN15WebEngineViewer13WebEngineView11qt_metacallEN11QMetaObject4CallEiPPv
libKPim5WebEngineViewer.so.5:_ZN15WebEngineViewer13WebEngineView11qt_metacastEPKc
libKPim5WebEngineViewer.so.5:_ZN15WebEngineViewer13WebEngineView12createWindowEN14QWebEnginePage13WebWindowTypeE
libKPim5WebEngineViewer.so.5:_ZN15WebEngineViewer13WebEngineView17forwardWheelEventEP11QWheelEvent
libKPim5WebEngineViewer.so.5:_ZN15WebEngineViewer13WebEngineView17mailTrackingFoundERKNS_27BlockTrackingUrlInterceptor16TrackerBlackListE
libKPim5WebEngineViewer.so.5:_ZN15WebEngineViewer13WebEngineView20forwardKeyPressEventEP9QKeyEvent
libKPim5WebEngineViewer.so.5:_ZN15WebEngineViewer13WebEngineView20saveRelativePositionEv
libKPim5WebEngineViewer.so.5:_ZN15WebEngineViewer13WebEngineView21clearRelativePositionEv
libKPim5WebEngineViewer.so.5:_ZN15WebEngineViewer13WebEngineView21forwardMouseMoveEventEP11QMouseEvent
libKPim5WebEngineViewer.so.5:_ZN15WebEngineViewer13WebEngineView22forwardKeyReleaseEventEP9QKeyEvent
libKPim5WebEngineViewer.so.5:_ZN15WebEngineViewer13WebEngineView22forwardMousePressEventEP11QMouseEvent
libKPim5WebEngineViewer.so.5:_ZN15WebEngineViewer13WebEngineView24forwardMouseReleaseEventEP11QMouseEvent
libKPim5WebEngineViewer.so.5:_ZN15WebEngineViewer13WebEngineViewC1EP7QWidget
libKPim5WebEngineViewer.so.5:_ZN15WebEngineViewer13WebEngineViewC2EP7QWidget
libKPim5WebEngineViewer.so.5:_ZN15WebEngineViewer13WebEngineViewD0Ev
libKPim5WebEngineViewer.so.5:_ZN15WebEngineViewer13WebEngineViewD1Ev
libKPim5WebEngineViewer.so.5:_ZN15WebEngineViewer13WebEngineViewD2Ev
libKPim5WebEngineViewer.so.5:_ZN15WebEngineViewer14ZoomActionMenu10slotZoomInEv
libKPim5WebEngineViewer.so.5:_ZN15WebEngineViewer14ZoomActionMenu11qt_metacallEN11QMetaObject4CallEiPPv
libKPim5WebEngineViewer.so.5:_ZN15WebEngineViewer14ZoomActionMenu11qt_metacastEPKc
libKPim5WebEngineViewer.so.5:_ZN15WebEngineViewer14ZoomActionMenu11slotZoomOutEv
libKPim5WebEngineViewer.so.5:_ZN15WebEngineViewer14ZoomActionMenu11zoomChangedEd
libKPim5WebEngineViewer.so.5:_ZN15WebEngineViewer14ZoomActionMenu13setZoomFactorEd
libKPim5WebEngineViewer.so.5:_ZN15WebEngineViewer14ZoomActionMenu13slotZoomResetEv
libKPim5WebEngineViewer.so.5:_ZN15WebEngineViewer14ZoomActionMenu17createZoomActionsEv
libKPim5WebEngineViewer.so.5:_ZN15WebEngineViewer14ZoomActionMenu19setActionCollectionEP17KActionCollection
libKPim5WebEngineViewer.so.5:_ZN15WebEngineViewer14ZoomActionMenu22setWebViewerZoomFactorEd
libKPim5WebEngineViewer.so.5:_ZN15WebEngineViewer14ZoomActionMenuC1EP7QObject
libKPim5WebEngineViewer.so.5:_ZN15WebEngineViewer14ZoomActionMenuC2EP7QObject
libKPim5WebEngineViewer.so.5:_ZN15WebEngineViewer14ZoomActionMenuD0Ev
libKPim5WebEngineViewer.so.5:_ZN15WebEngineViewer14ZoomActionMenuD1Ev
libKPim5WebEngineViewer.so.5:_ZN15WebEngineViewer14ZoomActionMenuD2Ev
libKPim5WebEngineViewer.so.5:_ZN15WebEngineViewer15WebEngineScript10scrollDownEi
libKPim5WebEngineViewer.so.5:_ZN15WebEngineViewer15WebEngineScript13findAllImagesEv
libKPim5WebEngineViewer.so.5:_ZN15WebEngineViewer15WebEngineScript14findAllAnchorsEv
libKPim5WebEngineViewer.so.5:_ZN15WebEngineViewer15WebEngineScript14findAllScriptsEv
libKPim5WebEngineViewer.so.5:_ZN15WebEngineViewer15WebEngineScript16scrollPercentageEi
libKPim5WebEngineViewer.so.5:_ZN15WebEngineViewer15WebEngineScript16scrollToPositionERK6QPoint
libKPim5WebEngineViewer.so.5:_ZN15WebEngineViewer15WebEngineScript17setStyleToElementERK7QStringS3_
libKPim5WebEngineViewer.so.5:_ZN15WebEngineViewer15WebEngineScript18isScrolledToBottomEv
libKPim5WebEngineViewer.so.5:_ZN15WebEngineViewer15WebEngineScript20removeStyleToElementERK7QString
libKPim5WebEngineViewer.so.5:_ZN15WebEngineViewer15WebEngineScript21searchElementPositionERK7QString
libKPim5WebEngineViewer.so.5:_ZN15WebEngineViewer15WebEngineScript21setElementByIdVisibleERK7QStringb
libKPim5WebEngineViewer.so.5:_ZN15WebEngineViewer15WebEngineScript22findAllAnchorsAndFormsEv
libKPim5WebEngineViewer.so.5:_ZN15WebEngineViewer15WebEngineScript24scrollToRelativePositionEd
libKPim5WebEngineViewer.so.5:_ZN15WebEngineViewer15WebEngineScript8scrollUpEi
libKPim5WebEngineViewer.so.5:_ZN15WebEngineViewer16HashCacheManager10clearCacheEv
libKPim5WebEngineViewer.so.5:_ZN15WebEngineViewer16HashCacheManager10hashStatusERK10QByteArray
libKPim5WebEngineViewer.so.5:_ZN15WebEngineViewer16HashCacheManager11qt_metacallEN11QMetaObject4CallEiPPv
libKPim5WebEngineViewer.so.5:_ZN15WebEngineViewer16HashCacheManager11qt_metacastEPKc
libKPim5WebEngineViewer.so.5:_ZN15WebEngineViewer16HashCacheManager13addHashStatusERK10QByteArrayNS0_9UrlStatusEj
libKPim5WebEngineViewer.so.5:_ZN15WebEngineViewer16HashCacheManager4selfEv
libKPim5WebEngineViewer.so.5:_ZN15WebEngineViewer16HashCacheManagerC1EP7QObject
libKPim5WebEngineViewer.so.5:_ZN15WebEngineViewer16HashCacheManagerC2EP7QObject
libKPim5WebEngineViewer.so.5:_ZN15WebEngineViewer16HashCacheManagerD0Ev
libKPim5WebEngineViewer.so.5:_ZN15WebEngineViewer16HashCacheManagerD1Ev
libKPim5WebEngineViewer.so.5:_ZN15WebEngineViewer16HashCacheManagerD2Ev
libKPim5WebEngineViewer.so.5:_ZN15WebEngineViewer16WebHitTestResultC1ERK6QPointRK4QUrlRK8QVariant
libKPim5WebEngineViewer.so.5:_ZN15WebEngineViewer16WebHitTestResultC1ERKS0_
libKPim5WebEngineViewer.so.5:_ZN15WebEngineViewer16WebHitTestResultC1Ev
libKPim5WebEngineViewer.so.5:_ZN15WebEngineViewer16WebHitTestResultC2ERK6QPointRK4QUrlRK8QVariant
libKPim5WebEngineViewer.so.5:_ZN15WebEngineViewer16WebHitTestResultC2ERKS0_
libKPim5WebEngineViewer.so.5:_ZN15WebEngineViewer16WebHitTestResultC2Ev
libKPim5WebEngineViewer.so.5:_ZN15WebEngineViewer16WebHitTestResultD1Ev
libKPim5WebEngineViewer.so.5:_ZN15WebEngineViewer16WebHitTestResultD2Ev
libKPim5WebEngineViewer.so.5:_ZN15WebEngineViewer16WebHitTestResultaSERKS0_
libKPim5WebEngineViewer.so.5:_ZN15WebEngineViewer17LocalDataBaseFile10searchHashERK10QByteArray
libKPim5WebEngineViewer.so.5:_ZN15WebEngineViewer17LocalDataBaseFile16checkFileChangedEv
libKPim5WebEngineViewer.so.5:_ZN15WebEngineViewer17LocalDataBaseFile5closeEv
libKPim5WebEngineViewer.so.5:_ZN15WebEngineViewer17LocalDataBaseFile6reloadEv
libKPim5WebEngineViewer.so.5:_ZN15WebEngineViewer17LocalDataBaseFileC1ERK7QString
libKPim5WebEngineViewer.so.5:_ZN15WebEngineViewer17LocalDataBaseFileC2ERK7QString
libKPim5WebEngineViewer.so.5:_ZN15WebEngineViewer17LocalDataBaseFileD1Ev
libKPim5WebEngineViewer.so.5:_ZN15WebEngineViewer17LocalDataBaseFileD2Ev
libKPim5WebEngineViewer.so.5:_ZN15WebEngineViewer17RiceDeltaEncodingC1Ev
libKPim5WebEngineViewer.so.5:_ZN15WebEngineViewer17RiceDeltaEncodingC2Ev
libKPim5WebEngineViewer.so.5:_ZN15WebEngineViewer17SearchFullHashJob11qt_metacallEN11QMetaObject4CallEiPPv
libKPim5WebEngineViewer.so.5:_ZN15WebEngineViewer17SearchFullHashJob11qt_metacastEPKc
libKPim5WebEngineViewer.so.5:_ZN15WebEngineViewer17SearchFullHashJob14setSearchHashsERK5QHashI10QByteArrayS2_E
libKPim5WebEngineViewer.so.5:_ZN15WebEngineViewer17SearchFullHashJob16setDatabaseStateERK11QStringList
libKPim5WebEngineViewer.so.5:_ZN15WebEngineViewer17SearchFullHashJob23setSearchFullHashForUrlERK4QUrl
libKPim5WebEngineViewer.so.5:_ZN15WebEngineViewer17SearchFullHashJob5parseERK10QByteArray
libKPim5WebEngineViewer.so.5:_ZN15WebEngineViewer17SearchFullHashJob5startEv
libKPim5WebEngineViewer.so.5:_ZN15WebEngineViewer17SearchFullHashJob6resultENS_20CheckPhishingUrlUtil9UrlStatusERK4QUrl
libKPim5WebEngineViewer.so.5:_ZN15WebEngineViewer17SearchFullHashJob9debugJsonERK10QByteArray
libKPim5WebEngineViewer.so.5:_ZN15WebEngineViewer17SearchFullHashJobC1EP7QObject
libKPim5WebEngineViewer.so.5:_ZN15WebEngineViewer17SearchFullHashJobC2EP7QObject
libKPim5WebEngineViewer.so.5:_ZN15WebEngineViewer17SearchFullHashJobD0Ev
libKPim5WebEngineViewer.so.5:_ZN15WebEngineViewer17SearchFullHashJobD1Ev
libKPim5WebEngineViewer.so.5:_ZN15WebEngineViewer17SearchFullHashJobD2Ev
libKPim5WebEngineViewer.so.5:_ZN15WebEngineViewer18BackOffModeManager12startOffModeEv
libKPim5WebEngineViewer.so.5:_ZN15WebEngineViewer18BackOffModeManager17slotTimerFinishedEv
libKPim5WebEngineViewer.so.5:_ZN15WebEngineViewer18BackOffModeManager4selfEv
libKPim5WebEngineViewer.so.5:_ZN15WebEngineViewer18BackOffModeManagerC1EP7QObject
libKPim5WebEngineViewer.so.5:_ZN15WebEngineViewer18BackOffModeManagerC2EP7QObject
libKPim5WebEngineViewer.so.5:_ZN15WebEngineViewer18BackOffModeManagerD0Ev
libKPim5WebEngineViewer.so.5:_ZN15WebEngineViewer18BackOffModeManagerD1Ev
libKPim5WebEngineViewer.so.5:_ZN15WebEngineViewer18BackOffModeManagerD2Ev
libKPim5WebEngineViewer.so.5:_ZN15WebEngineViewer18InterceptorManager11qt_metacallEN11QMetaObject4CallEiPPv
libKPim5WebEngineViewer.so.5:_ZN15WebEngineViewer18InterceptorManager11qt_metacastEPKc
libKPim5WebEngineViewer.so.5:_ZN15WebEngineViewer18InterceptorManager14addInterceptorEPNS_36NetworkPluginUrlInterceptorInterfaceE
libKPim5WebEngineViewer.so.5:_ZN15WebEngineViewer18InterceptorManager17removeInterceptorEPNS_36NetworkPluginUrlInterceptorInterfaceE
libKPim5WebEngineViewer.so.5:_ZN15WebEngineViewer18InterceptorManagerC1EP14QWebEngineViewP17KActionCollectionP7QObject
libKPim5WebEngineViewer.so.5:_ZN15WebEngineViewer18InterceptorManagerC2EP14QWebEngineViewP17KActionCollectionP7QObject
libKPim5WebEngineViewer.so.5:_ZN15WebEngineViewer18InterceptorManagerD0Ev
libKPim5WebEngineViewer.so.5:_ZN15WebEngineViewer18InterceptorManagerD1Ev
libKPim5WebEngineViewer.so.5:_ZN15WebEngineViewer18InterceptorManagerD2Ev
libKPim5WebEngineViewer.so.5:_ZN15WebEngineViewer18UpdateDataBaseInfo5clearEv
libKPim5WebEngineViewer.so.5:_ZN15WebEngineViewer18UpdateDataBaseInfoC1Ev
libKPim5WebEngineViewer.so.5:_ZN15WebEngineViewer18UpdateDataBaseInfoC2Ev
libKPim5WebEngineViewer.so.5:_ZN15WebEngineViewer18WebEngineAccessKey10wheelEventEP11QWheelEvent
libKPim5WebEngineViewer.so.5:_ZN15WebEngineViewer18WebEngineAccessKey11qt_metacallEN11QMetaObject4CallEiPPv
libKPim5WebEngineViewer.so.5:_ZN15WebEngineViewer18WebEngineAccessKey11qt_metacastEPKc
libKPim5WebEngineViewer.so.5:_ZN15WebEngineViewer18WebEngineAccessKey11resizeEventEP12QResizeEvent
libKPim5WebEngineViewer.so.5:_ZN15WebEngineViewer18WebEngineAccessKey13keyPressEventEP9QKeyEvent
libKPim5WebEngineViewer.so.5:_ZN15WebEngineViewer18WebEngineAccessKey14hideAccessKeysEv
libKPim5WebEngineViewer.so.5:_ZN15WebEngineViewer18WebEngineAccessKey14showAccessKeysEv
libKPim5WebEngineViewer.so.5:_ZN15WebEngineViewer18WebEngineAccessKey15keyReleaseEventEP9QKeyEvent
libKPim5WebEngineViewer.so.5:_ZN15WebEngineViewer18WebEngineAccessKey19setActionCollectionEP17KActionCollection
libKPim5WebEngineViewer.so.5:_ZN15WebEngineViewer18WebEngineAccessKey7openUrlERK4QUrl
libKPim5WebEngineViewer.so.5:_ZN15WebEngineViewer18WebEngineAccessKeyC1EP14QWebEngineViewP7QObject
libKPim5WebEngineViewer.so.5:_ZN15WebEngineViewer18WebEngineAccessKeyC2EP14QWebEngineViewP7QObject
libKPim5WebEngineViewer.so.5:_ZN15WebEngineViewer18WebEngineAccessKeyD0Ev
libKPim5WebEngineViewer.so.5:_ZN15WebEngineViewer18WebEngineAccessKeyD1Ev
libKPim5WebEngineViewer.so.5:_ZN15WebEngineViewer18WebEngineAccessKeyD2Ev
libKPim5WebEngineViewer.so.5:_ZN15WebEngineViewer19CheckPhishingUrlJob11qt_metacallEN11QMetaObject4CallEiPPv
libKPim5WebEngineViewer.so.5:_ZN15WebEngineViewer19CheckPhishingUrlJob11qt_metacastEPKc
libKPim5WebEngineViewer.so.5:_ZN15WebEngineViewer19CheckPhishingUrlJob5parseERK10QByteArray
libKPim5WebEngineViewer.so.5:_ZN15WebEngineViewer19CheckPhishingUrlJob5startEv
libKPim5WebEngineViewer.so.5:_ZN15WebEngineViewer19CheckPhishingUrlJob6resultENS_20CheckPhishingUrlUtil9UrlStatusERK4QUrlj
libKPim5WebEngineViewer.so.5:_ZN15WebEngineViewer19CheckPhishingUrlJob6setUrlERK4QUrl
libKPim5WebEngineViewer.so.5:_ZN15WebEngineViewer19CheckPhishingUrlJob9debugJsonERK10QByteArray
libKPim5WebEngineViewer.so.5:_ZN15WebEngineViewer19CheckPhishingUrlJobC1EP7QObject
libKPim5WebEngineViewer.so.5:_ZN15WebEngineViewer19CheckPhishingUrlJobC2EP7QObject
libKPim5WebEngineViewer.so.5:_ZN15WebEngineViewer19CheckPhishingUrlJobD0Ev
libKPim5WebEngineViewer.so.5:_ZN15WebEngineViewer19CheckPhishingUrlJobD1Ev
libKPim5WebEngineViewer.so.5:_ZN15WebEngineViewer19CheckPhishingUrlJobD2Ev
libKPim5WebEngineViewer.so.5:_ZN15WebEngineViewer19DeveloperToolDialog11qt_metacallEN11QMetaObject4CallEiPPv
libKPim5WebEngineViewer.so.5:_ZN15WebEngineViewer19DeveloperToolDialog11qt_metacastEPKc
libKPim5WebEngineViewer.so.5:_ZN15WebEngineViewer19DeveloperToolDialogC1EP7QWidget
libKPim5WebEngineViewer.so.5:_ZN15WebEngineViewer19DeveloperToolDialogC2EP7QWidget
libKPim5WebEngineViewer.so.5:_ZN15WebEngineViewer19DeveloperToolDialogD0Ev
libKPim5WebEngineViewer.so.5:_ZN15WebEngineViewer19DeveloperToolDialogD1Ev
libKPim5WebEngineViewer.so.5:_ZN15WebEngineViewer19DeveloperToolDialogD2Ev
libKPim5WebEngineViewer.so.5:_ZN15WebEngineViewer19DeveloperToolWidget11qt_metacallEN11QMetaObject4CallEiPPv
libKPim5WebEngineViewer.so.5:_ZN15WebEngineViewer19DeveloperToolWidget11qt_metacastEPKc
libKPim5WebEngineViewer.so.5:_ZN15WebEngineViewer19DeveloperToolWidget14closeRequestedEv
libKPim5WebEngineViewer.so.5:_ZN15WebEngineViewer19DeveloperToolWidgetC1EP7QWidget
libKPim5WebEngineViewer.so.5:_ZN15WebEngineViewer19DeveloperToolWidgetC2EP7QWidget
libKPim5WebEngineViewer.so.5:_ZN15WebEngineViewer19DeveloperToolWidgetD0Ev
libKPim5WebEngineViewer.so.5:_ZN15WebEngineViewer19DeveloperToolWidgetD1Ev
libKPim5WebEngineViewer.so.5:_ZN15WebEngineViewer19DeveloperToolWidgetD2Ev
libKPim5WebEngineViewer.so.5:_ZN15WebEngineViewer19RiceEncodingDecoder21decodeRiceHashesDeltaERKNS_17RiceDeltaEncodingE
libKPim5WebEngineViewer.so.5:_ZN15WebEngineViewer19RiceEncodingDecoder21decodeRiceIndiceDeltaERKNS_17RiceDeltaEncodingE
libKPim5WebEngineViewer.so.5:_ZN15WebEngineViewer19RiceEncodingDecoderC1Ev
libKPim5WebEngineViewer.so.5:_ZN15WebEngineViewer19RiceEncodingDecoderC2Ev
libKPim5WebEngineViewer.so.5:_ZN15WebEngineViewer19RiceEncodingDecoderD1Ev
libKPim5WebEngineViewer.so.5:_ZN15WebEngineViewer19RiceEncodingDecoderD2Ev
libKPim5WebEngineViewer.so.5:_ZN15WebEngineViewer20CheckPhishingUrlUtil11versionAppsEv
libKPim5WebEngineViewer.so.5:_ZN15WebEngineViewer20CheckPhishingUrlUtil12majorVersionEv
libKPim5WebEngineViewer.so.5:_ZN15WebEngineViewer20CheckPhishingUrlUtil12minorVersionEv
libKPim5WebEngineViewer.so.5:_ZN15WebEngineViewer20CheckPhishingUrlUtil14configFileNameEv
libKPim5WebEngineViewer.so.5:_ZN15WebEngineViewer20CheckPhishingUrlUtil15convertToSecondERK7QString
libKPim5WebEngineViewer.so.5:_ZN15WebEngineViewer20CheckPhishingUrlUtil21cachedValueStillValidEj
libKPim5WebEngineViewer.so.5:_ZN15WebEngineViewer20CheckPhishingUrlUtil25generateRandomSecondValueEi
libKPim5WebEngineViewer.so.5:_ZN15WebEngineViewer20CheckPhishingUrlUtil28refreshingCacheAfterThisTimeEd
libKPim5WebEngineViewer.so.5:_ZN15WebEngineViewer20FindBarWebEngineView11qt_metacallEN11QMetaObject4CallEiPPv
libKPim5WebEngineViewer.so.5:_ZN15WebEngineViewer20FindBarWebEngineView11qt_metacastEPKc
libKPim5WebEngineViewer.so.5:_ZN15WebEngineViewer20FindBarWebEngineViewC1EP14QWebEngineViewP7QWidget
libKPim5WebEngineViewer.so.5:_ZN15WebEngineViewer20FindBarWebEngineViewC2EP14QWebEngineViewP7QWidget
libKPim5WebEngineViewer.so.5:_ZN15WebEngineViewer20FindBarWebEngineViewD0Ev
libKPim5WebEngineViewer.so.5:_ZN15WebEngineViewer20FindBarWebEngineViewD1Ev
libKPim5WebEngineViewer.so.5:_ZN15WebEngineViewer20FindBarWebEngineViewD2Ev
libKPim5WebEngineViewer.so.5:_ZN15WebEngineViewer20LocalDataBaseManager10initializeEv
libKPim5WebEngineViewer.so.5:_ZN15WebEngineViewer20LocalDataBaseManager11qt_metacallEN11QMetaObject4CallEiPPv
libKPim5WebEngineViewer.so.5:_ZN15WebEngineViewer20LocalDataBaseManager11qt_metacastEPKc
libKPim5WebEngineViewer.so.5:_ZN15WebEngineViewer20LocalDataBaseManager16checkUrlFinishedERK4QUrlNS_20CheckPhishingUrlUtil9UrlStatusE
libKPim5WebEngineViewer.so.5:_ZN15WebEngineViewer20LocalDataBaseManager8checkUrlERK4QUrl
libKPim5WebEngineViewer.so.5:_ZN15WebEngineViewer20LocalDataBaseManagerC1EP7QObject
libKPim5WebEngineViewer.so.5:_ZN15WebEngineViewer20LocalDataBaseManagerC1EPNS_27LocalDataBaseManagerPrivateEP7QObject
libKPim5WebEngineViewer.so.5:_ZN15WebEngineViewer20LocalDataBaseManagerC2EP7QObject
libKPim5WebEngineViewer.so.5:_ZN15WebEngineViewer20LocalDataBaseManagerC2EPNS_27LocalDataBaseManagerPrivateEP7QObject
libKPim5WebEngineViewer.so.5:_ZN15WebEngineViewer20LocalDataBaseManagerD0Ev
libKPim5WebEngineViewer.so.5:_ZN15WebEngineViewer20LocalDataBaseManagerD1Ev
libKPim5WebEngineViewer.so.5:_ZN15WebEngineViewer20LocalDataBaseManagerD2Ev
libKPim5WebEngineViewer.so.5:_ZN15WebEngineViewer21CheckPhishingUrlCache10clearCacheEv
libKPim5WebEngineViewer.so.5:_ZN15WebEngineViewer21CheckPhishingUrlCache11qt_metacallEN11QMetaObject4CallEiPPv
libKPim5WebEngineViewer.so.5:_ZN15WebEngineViewer21CheckPhishingUrlCache11qt_metacastEPKc
libKPim5WebEngineViewer.so.5:_ZN15WebEngineViewer21CheckPhishingUrlCache20addCheckingUrlResultERK4QUrlbj
libKPim5WebEngineViewer.so.5:_ZN15WebEngineViewer21CheckPhishingUrlCache4selfEv
libKPim5WebEngineViewer.so.5:_ZN15WebEngineViewer21CheckPhishingUrlCache9urlStatusERK4QUrl
libKPim5WebEngineViewer.so.5:_ZN15WebEngineViewer21CheckPhishingUrlCacheC1EP7QObject
libKPim5WebEngineViewer.so.5:_ZN15WebEngineViewer21CheckPhishingUrlCacheC2EP7QObject
libKPim5WebEngineViewer.so.5:_ZN15WebEngineViewer21CheckPhishingUrlCacheD0Ev
libKPim5WebEngineViewer.so.5:_ZN15WebEngineViewer21CheckPhishingUrlCacheD1Ev
libKPim5WebEngineViewer.so.5:_ZN15WebEngineViewer21CheckPhishingUrlCacheD2Ev
libKPim5WebEngineViewer.so.5:_ZN15WebEngineViewer21CreateDatabaseFileJob11qt_metacallEN11QMetaObject4CallEiPPv
libKPim5WebEngineViewer.so.5:_ZN15WebEngineViewer21CreateDatabaseFileJob11qt_metacastEPKc
libKPim5WebEngineViewer.so.5:_ZN15WebEngineViewer21CreateDatabaseFileJob11setFileNameERK7QString
libKPim5WebEngineViewer.so.5:_ZN15WebEngineViewer21CreateDatabaseFileJob21setUpdateDataBaseInfoERKNS_18UpdateDataBaseInfoE
libKPim5WebEngineViewer.so.5:_ZN15WebEngineViewer21CreateDatabaseFileJob5startEv
libKPim5WebEngineViewer.so.5:_ZN15WebEngineViewer21CreateDatabaseFileJob8finishedEbRK7QStringS3_
libKPim5WebEngineViewer.so.5:_ZN15WebEngineViewer21CreateDatabaseFileJobC1EP7QObject
libKPim5WebEngineViewer.so.5:_ZN15WebEngineViewer21CreateDatabaseFileJobC2EP7QObject
libKPim5WebEngineViewer.so.5:_ZN15WebEngineViewer21CreateDatabaseFileJobD0Ev
libKPim5WebEngineViewer.so.5:_ZN15WebEngineViewer21CreateDatabaseFileJobD1Ev
libKPim5WebEngineViewer.so.5:_ZN15WebEngineViewer21CreateDatabaseFileJobD2Ev
libKPim5WebEngineViewer.so.5:_ZN15WebEngineViewer21NetworkUrlInterceptor11qt_metacallEN11QMetaObject4CallEiPPv
libKPim5WebEngineViewer.so.5:_ZN15WebEngineViewer21NetworkUrlInterceptor11qt_metacastEPKc
libKPim5WebEngineViewer.so.5:_ZN15WebEngineViewer21NetworkUrlInterceptor14addInterceptorEPNS_36NetworkPluginUrlInterceptorInterfaceE
libKPim5WebEngineViewer.so.5:_ZN15WebEngineViewer21NetworkUrlInterceptor16interceptRequestER24QWebEngineUrlRequestInfo
libKPim5WebEngineViewer.so.5:_ZN15WebEngineViewer21NetworkUrlInterceptor17removeInterceptorEPNS_36NetworkPluginUrlInterceptorInterfaceE
libKPim5WebEngineViewer.so.5:_ZN15WebEngineViewer21NetworkUrlInterceptorC1EP7QObject
libKPim5WebEngineViewer.so.5:_ZN15WebEngineViewer21NetworkUrlInterceptorC2EP7QObject
libKPim5WebEngineViewer.so.5:_ZN15WebEngineViewer21NetworkUrlInterceptorD0Ev
libKPim5WebEngineViewer.so.5:_ZN15WebEngineViewer21NetworkUrlInterceptorD1Ev
libKPim5WebEngineViewer.so.5:_ZN15WebEngineViewer21NetworkUrlInterceptorD2Ev
libKPim5WebEngineViewer.so.5:_ZN15WebEngineViewer21TrackingDetailsDialog10setDetailsERK7QString
libKPim5WebEngineViewer.so.5:_ZN15WebEngineViewer21TrackingDetailsDialog11qt_metacallEN11QMetaObject4CallEiPPv
libKPim5WebEngineViewer.so.5:_ZN15WebEngineViewer21TrackingDetailsDialog11qt_metacastEPKc
libKPim5WebEngineViewer.so.5:_ZN15WebEngineViewer21TrackingDetailsDialogC1EP7QWidget
libKPim5WebEngineViewer.so.5:_ZN15WebEngineViewer21TrackingDetailsDialogC2EP7QWidget
libKPim5WebEngineViewer.so.5:_ZN15WebEngineViewer21TrackingDetailsDialogD0Ev
libKPim5WebEngineViewer.so.5:_ZN15WebEngineViewer21TrackingDetailsDialogD1Ev
libKPim5WebEngineViewer.so.5:_ZN15WebEngineViewer21TrackingDetailsDialogD2Ev
libKPim5WebEngineViewer.so.5:_ZN15WebEngineViewer21TrackingWarningWidget10addTrackerERKNS_27BlockTrackingUrlInterceptor16TrackerBlackListE
libKPim5WebEngineViewer.so.5:_ZN15WebEngineViewer21TrackingWarningWidget11qt_metacallEN11QMetaObject4CallEiPPv
libKPim5WebEngineViewer.so.5:_ZN15WebEngineViewer21TrackingWarningWidget11qt_metacastEPKc
libKPim5WebEngineViewer.so.5:_ZN15WebEngineViewer21TrackingWarningWidget12hideAndClearEv
libKPim5WebEngineViewer.so.5:_ZN15WebEngineViewer21TrackingWarningWidgetC1EP7QWidget
libKPim5WebEngineViewer.so.5:_ZN15WebEngineViewer21TrackingWarningWidgetC2EP7QWidget
libKPim5WebEngineViewer.so.5:_ZN15WebEngineViewer21TrackingWarningWidgetD0Ev
libKPim5WebEngineViewer.so.5:_ZN15WebEngineViewer21TrackingWarningWidgetD1Ev
libKPim5WebEngineViewer.so.5:_ZN15WebEngineViewer21TrackingWarningWidgetD2Ev
libKPim5WebEngineViewer.so.5:_ZN15WebEngineViewer25WebEngineExportPdfPageJob10setPdfPathERK7QString
libKPim5WebEngineViewer.so.5:_ZN15WebEngineViewer25WebEngineExportPdfPageJob11qt_metacallEN11QMetaObject4CallEiPPv
libKPim5WebEngineViewer.so.5:_ZN15WebEngineViewer25WebEngineExportPdfPageJob11qt_metacastEPKc
libKPim5WebEngineViewer.so.5:_ZN15WebEngineViewer25WebEngineExportPdfPageJob13setEngineViewEP14QWebEngineView
libKPim5WebEngineViewer.so.5:_ZN15WebEngineViewer25WebEngineExportPdfPageJob15exportPdfFailedEv
libKPim5WebEngineViewer.so.5:_ZN15WebEngineViewer25WebEngineExportPdfPageJob18exportToPdfSuccessEv
libKPim5WebEngineViewer.so.5:_ZN15WebEngineViewer25WebEngineExportPdfPageJob5startEv
libKPim5WebEngineViewer.so.5:_ZN15WebEngineViewer25WebEngineExportPdfPageJobC1EP7QObject
libKPim5WebEngineViewer.so.5:_ZN15WebEngineViewer25WebEngineExportPdfPageJobC2EP7QObject
libKPim5WebEngineViewer.so.5:_ZN15WebEngineViewer25WebEngineExportPdfPageJobD0Ev
libKPim5WebEngineViewer.so.5:_ZN15WebEngineViewer25WebEngineExportPdfPageJobD1Ev
libKPim5WebEngineViewer.so.5:_ZN15WebEngineViewer25WebEngineExportPdfPageJobD2Ev
libKPim5WebEngineViewer.so.5:_ZN15WebEngineViewer26SubmittedFormWarningWidget11qt_metacallEN11QMetaObject4CallEiPPv
libKPim5WebEngineViewer.so.5:_ZN15WebEngineViewer26SubmittedFormWarningWidget11qt_metacastEPKc
libKPim5WebEngineViewer.so.5:_ZN15WebEngineViewer26SubmittedFormWarningWidget11showWarningEv
libKPim5WebEngineViewer.so.5:_ZN15WebEngineViewer26SubmittedFormWarningWidgetC1EP7QWidget
libKPim5WebEngineViewer.so.5:_ZN15WebEngineViewer26SubmittedFormWarningWidgetC2EP7QWidget
libKPim5WebEngineViewer.so.5:_ZN15WebEngineViewer26SubmittedFormWarningWidgetD0Ev
libKPim5WebEngineViewer.so.5:_ZN15WebEngineViewer26SubmittedFormWarningWidgetD1Ev
libKPim5WebEngineViewer.so.5:_ZN15WebEngineViewer26SubmittedFormWarningWidgetD2Ev
libKPim5WebEngineViewer.so.5:_ZN15WebEngineViewer26WebEngineExportHtmlPageJob11qt_metacallEN11QMetaObject4CallEiPPv
libKPim5WebEngineViewer.so.5:_ZN15WebEngineViewer26WebEngineExportHtmlPageJob11qt_metacastEPKc
libKPim5WebEngineViewer.so.5:_ZN15WebEngineViewer26WebEngineExportHtmlPageJob13setEngineViewEP14QWebEngineView
libKPim5WebEngineViewer.so.5:_ZN15WebEngineViewer26WebEngineExportHtmlPageJob5startEv
libKPim5WebEngineViewer.so.5:_ZN15WebEngineViewer26WebEngineExportHtmlPageJob6failedEv
libKPim5WebEngineViewer.so.5:_ZN15WebEngineViewer26WebEngineExportHtmlPageJob7successERK7QString
libKPim5WebEngineViewer.so.5:_ZN15WebEngineViewer26WebEngineExportHtmlPageJobC1EP7QObject
libKPim5WebEngineViewer.so.5:_ZN15WebEngineViewer26WebEngineExportHtmlPageJobC2EP7QObject
libKPim5WebEngineViewer.so.5:_ZN15WebEngineViewer26WebEngineExportHtmlPageJobD0Ev
libKPim5WebEngineViewer.so.5:_ZN15WebEngineViewer26WebEngineExportHtmlPageJobD1Ev
libKPim5WebEngineViewer.so.5:_ZN15WebEngineViewer26WebEngineExportHtmlPageJobD2Ev
libKPim5WebEngineViewer.so.5:_ZN15WebEngineViewer27BlockTrackingUrlInterceptor11qt_metacallEN11QMetaObject4CallEiPPv
libKPim5WebEngineViewer.so.5:_ZN15WebEngineViewer27BlockTrackingUrlInterceptor11qt_metacastEPKc
libKPim5WebEngineViewer.so.5:_ZN15WebEngineViewer27BlockTrackingUrlInterceptor13trackingFoundERKNS0_16TrackerBlackListE
libKPim5WebEngineViewer.so.5:_ZN15WebEngineViewer27BlockTrackingUrlInterceptor16interceptRequestER24QWebEngineUrlRequestInfo
libKPim5WebEngineViewer.so.5:_ZN15WebEngineViewer27BlockTrackingUrlInterceptor33setEnabledMailTrackingInterceptorEb
libKPim5WebEngineViewer.so.5:_ZN15WebEngineViewer27BlockTrackingUrlInterceptorC1EP7QObject
libKPim5WebEngineViewer.so.5:_ZN15WebEngineViewer27BlockTrackingUrlInterceptorC2EP7QObject
libKPim5WebEngineViewer.so.5:_ZN15WebEngineViewer27BlockTrackingUrlInterceptorD0Ev
libKPim5WebEngineViewer.so.5:_ZN15WebEngineViewer27BlockTrackingUrlInterceptorD1Ev
libKPim5WebEngineViewer.so.5:_ZN15WebEngineViewer27BlockTrackingUrlInterceptorD2Ev
libKPim5WebEngineViewer.so.5:_ZN15WebEngineViewer27DownloadLocalDatabaseThread11qt_metacallEN11QMetaObject4CallEiPPv
libKPim5WebEngineViewer.so.5:_ZN15WebEngineViewer27DownloadLocalDatabaseThread11qt_metacastEPKc
libKPim5WebEngineViewer.so.5:_ZN15WebEngineViewer27DownloadLocalDatabaseThread16setDataBaseStateERK7QString
libKPim5WebEngineViewer.so.5:_ZN15WebEngineViewer27DownloadLocalDatabaseThread18installNewDataBaseERKNS_18UpdateDataBaseInfoE
libKPim5WebEngineViewer.so.5:_ZN15WebEngineViewer27DownloadLocalDatabaseThread19setDatabaseFullPathERK7QString
libKPim5WebEngineViewer.so.5:_ZN15WebEngineViewer27DownloadLocalDatabaseThread20createDataBaseFailedEv
libKPim5WebEngineViewer.so.5:_ZN15WebEngineViewer27DownloadLocalDatabaseThread22createDataBaseFinishedEbRK7QStringS3_
libKPim5WebEngineViewer.so.5:_ZN15WebEngineViewer27DownloadLocalDatabaseThread28slotDownloadDataBaseFinishedERKNS_18UpdateDataBaseInfoENS_28CreatePhishingUrlDataBaseJob22DataBaseDownloadResultE
libKPim5WebEngineViewer.so.5:_ZN15WebEngineViewer27DownloadLocalDatabaseThread34slotCreateDataBaseFileNameFinishedEbRK7QStringS3_
libKPim5WebEngineViewer.so.5:_ZN15WebEngineViewer27DownloadLocalDatabaseThread3runEv
libKPim5WebEngineViewer.so.5:_ZN15WebEngineViewer27DownloadLocalDatabaseThreadC1EP7QObject
libKPim5WebEngineViewer.so.5:_ZN15WebEngineViewer27DownloadLocalDatabaseThreadC2EP7QObject
libKPim5WebEngineViewer.so.5:_ZN15WebEngineViewer27DownloadLocalDatabaseThreadD0Ev
libKPim5WebEngineViewer.so.5:_ZN15WebEngineViewer27DownloadLocalDatabaseThreadD1Ev
libKPim5WebEngineViewer.so.5:_ZN15WebEngineViewer27DownloadLocalDatabaseThreadD2Ev
libKPim5WebEngineViewer.so.5:_ZN15WebEngineViewer27NetworkPluginUrlInterceptor11qt_metacallEN11QMetaObject4CallEiPPv
libKPim5WebEngineViewer.so.5:_ZN15WebEngineViewer27NetworkPluginUrlInterceptor11qt_metacastEPKc
libKPim5WebEngineViewer.so.5:_ZN15WebEngineViewer27NetworkPluginUrlInterceptor12setIsEnabledEb
libKPim5WebEngineViewer.so.5:_ZN15WebEngineViewer27NetworkPluginUrlInterceptor19showConfigureDialogEP7QWidget
libKPim5WebEngineViewer.so.5:_ZN15WebEngineViewer27NetworkPluginUrlInterceptorC1EP7QObject
libKPim5WebEngineViewer.so.5:_ZN15WebEngineViewer27NetworkPluginUrlInterceptorC2EP7QObject
libKPim5WebEngineViewer.so.5:_ZN15WebEngineViewer27NetworkPluginUrlInterceptorD0Ev
libKPim5WebEngineViewer.so.5:_ZN15WebEngineViewer27NetworkPluginUrlInterceptorD1Ev
libKPim5WebEngineViewer.so.5:_ZN15WebEngineViewer27NetworkPluginUrlInterceptorD2Ev
libKPim5WebEngineViewer.so.5:_ZN15WebEngineViewer28CreatePhishingUrlDataBaseJob11parseResultERK10QByteArray
libKPim5WebEngineViewer.so.5:_ZN15WebEngineViewer28CreatePhishingUrlDataBaseJob11qt_metacallEN11QMetaObject4CallEiPPv
libKPim5WebEngineViewer.so.5:_ZN15WebEngineViewer28CreatePhishingUrlDataBaseJob11qt_metacastEPKc
libKPim5WebEngineViewer.so.5:_ZN15WebEngineViewer28CreatePhishingUrlDataBaseJob15debugJsonResultERK10QByteArray
libKPim5WebEngineViewer.so.5:_ZN15WebEngineViewer28CreatePhishingUrlDataBaseJob16setDataBaseStateERK7QString
libKPim5WebEngineViewer.so.5:_ZN15WebEngineViewer28CreatePhishingUrlDataBaseJob25setDataBaseDownloadNeededENS0_20DataBaseDownloadTypeE
libKPim5WebEngineViewer.so.5:_ZN15WebEngineViewer28CreatePhishingUrlDataBaseJob28setContraintsCompressionTypeENS0_25ContraintsCompressionTypeE
libKPim5WebEngineViewer.so.5:_ZN15WebEngineViewer28CreatePhishingUrlDataBaseJob5startEv
libKPim5WebEngineViewer.so.5:_ZN15WebEngineViewer28CreatePhishingUrlDataBaseJob8finishedERKNS_18UpdateDataBaseInfoENS0_22DataBaseDownloadResultE
libKPim5WebEngineViewer.so.5:_ZN15WebEngineViewer28CreatePhishingUrlDataBaseJob9debugJsonERK10QByteArray
libKPim5WebEngineViewer.so.5:_ZN15WebEngineViewer28CreatePhishingUrlDataBaseJobC1EP7QObject
libKPim5WebEngineViewer.so.5:_ZN15WebEngineViewer28CreatePhishingUrlDataBaseJobC2EP7QObject
libKPim5WebEngineViewer.so.5:_ZN15WebEngineViewer28CreatePhishingUrlDataBaseJobD0Ev
libKPim5WebEngineViewer.so.5:_ZN15WebEngineViewer28CreatePhishingUrlDataBaseJobD1Ev
libKPim5WebEngineViewer.so.5:_ZN15WebEngineViewer28CreatePhishingUrlDataBaseJobD2Ev
libKPim5WebEngineViewer.so.5:_ZN15WebEngineViewer28NetworkUrlInterceptorManager11qt_metacallEN11QMetaObject4CallEiPPv
libKPim5WebEngineViewer.so.5:_ZN15WebEngineViewer28NetworkUrlInterceptorManager11qt_metacastEPKc
libKPim5WebEngineViewer.so.5:_ZN15WebEngineViewer28NetworkUrlInterceptorManagerC1EP14QWebEngineViewP17KActionCollectionP7QObject
libKPim5WebEngineViewer.so.5:_ZN15WebEngineViewer28NetworkUrlInterceptorManagerC2EP14QWebEngineViewP17KActionCollectionP7QObject
libKPim5WebEngineViewer.so.5:_ZN15WebEngineViewer28NetworkUrlInterceptorManagerD0Ev
libKPim5WebEngineViewer.so.5:_ZN15WebEngineViewer28NetworkUrlInterceptorManagerD1Ev
libKPim5WebEngineViewer.so.5:_ZN15WebEngineViewer28NetworkUrlInterceptorManagerD2Ev
libKPim5WebEngineViewer.so.5:_ZN15WebEngineViewer34NetworkUrlInterceptorPluginManager11qt_metacallEN11QMetaObject4CallEiPPv
libKPim5WebEngineViewer.so.5:_ZN15WebEngineViewer34NetworkUrlInterceptorPluginManager11qt_metacastEPKc
libKPim5WebEngineViewer.so.5:_ZN15WebEngineViewer34NetworkUrlInterceptorPluginManager20pluginFromIdentifierERK7QString
libKPim5WebEngineViewer.so.5:_ZN15WebEngineViewer34NetworkUrlInterceptorPluginManager4selfEv
libKPim5WebEngineViewer.so.5:_ZN15WebEngineViewer34NetworkUrlInterceptorPluginManagerC1EP7QObject
libKPim5WebEngineViewer.so.5:_ZN15WebEngineViewer34NetworkUrlInterceptorPluginManagerC2EP7QObject
libKPim5WebEngineViewer.so.5:_ZN15WebEngineViewer34NetworkUrlInterceptorPluginManagerD0Ev
libKPim5WebEngineViewer.so.5:_ZN15WebEngineViewer34NetworkUrlInterceptorPluginManagerD1Ev
libKPim5WebEngineViewer.so.5:_ZN15WebEngineViewer34NetworkUrlInterceptorPluginManagerD2Ev
libKPim5WebEngineViewer.so.5:_ZN15WebEngineViewer36BlockExternalResourcesUrlInterceptor10setEnabledEb
libKPim5WebEngineViewer.so.5:_ZN15WebEngineViewer36BlockExternalResourcesUrlInterceptor11qt_metacallEN11QMetaObject4CallEiPPv
libKPim5WebEngineViewer.so.5:_ZN15WebEngineViewer36BlockExternalResourcesUrlInterceptor11qt_metacastEPKc
libKPim5WebEngineViewer.so.5:_ZN15WebEngineViewer36BlockExternalResourcesUrlInterceptor16interceptRequestER24QWebEngineUrlRequestInfo
libKPim5WebEngineViewer.so.5:_ZN15WebEngineViewer36BlockExternalResourcesUrlInterceptor16interceptRequestERK4QUrlN24QWebEngineUrlRequestInfo12ResourceTypeENS4_14NavigationTypeE
libKPim5WebEngineViewer.so.5:_ZN15WebEngineViewer36BlockExternalResourcesUrlInterceptor22formSubmittedForbiddenEv
libKPim5WebEngineViewer.so.5:_ZN15WebEngineViewer36BlockExternalResourcesUrlInterceptorC1EP7QObject
libKPim5WebEngineViewer.so.5:_ZN15WebEngineViewer36BlockExternalResourcesUrlInterceptorC2EP7QObject
libKPim5WebEngineViewer.so.5:_ZN15WebEngineViewer36BlockExternalResourcesUrlInterceptorD0Ev
libKPim5WebEngineViewer.so.5:_ZN15WebEngineViewer36BlockExternalResourcesUrlInterceptorD1Ev
libKPim5WebEngineViewer.so.5:_ZN15WebEngineViewer36BlockExternalResourcesUrlInterceptorD2Ev
libKPim5WebEngineViewer.so.5:_ZN15WebEngineViewer36LoadExternalReferencesUrlInterceptor10urlBlockedERK4QUrl
libKPim5WebEngineViewer.so.5:_ZN15WebEngineViewer36LoadExternalReferencesUrlInterceptor11qt_metacallEN11QMetaObject4CallEiPPv
libKPim5WebEngineViewer.so.5:_ZN15WebEngineViewer36LoadExternalReferencesUrlInterceptor11qt_metacastEPKc
libKPim5WebEngineViewer.so.5:_ZN15WebEngineViewer36LoadExternalReferencesUrlInterceptor12urlIsBlockedERK4QUrl
libKPim5WebEngineViewer.so.5:_ZN15WebEngineViewer36LoadExternalReferencesUrlInterceptor15urlIsAuthorizedERK4QUrl
libKPim5WebEngineViewer.so.5:_ZN15WebEngineViewer36LoadExternalReferencesUrlInterceptor16interceptRequestER24QWebEngineUrlRequestInfo
libKPim5WebEngineViewer.so.5:_ZN15WebEngineViewer36LoadExternalReferencesUrlInterceptor23setAllowExternalContentEb
libKPim5WebEngineViewer.so.5:_ZN15WebEngineViewer36LoadExternalReferencesUrlInterceptorC1EP7QObject
libKPim5WebEngineViewer.so.5:_ZN15WebEngineViewer36LoadExternalReferencesUrlInterceptorC2EP7QObject
libKPim5WebEngineViewer.so.5:_ZN15WebEngineViewer36LoadExternalReferencesUrlInterceptorD0Ev
libKPim5WebEngineViewer.so.5:_ZN15WebEngineViewer36LoadExternalReferencesUrlInterceptorD1Ev
libKPim5WebEngineViewer.so.5:_ZN15WebEngineViewer36LoadExternalReferencesUrlInterceptorD2Ev
libKPim5WebEngineViewer.so.5:_ZN15WebEngineViewer36NetworkPluginUrlInterceptorInterface11qt_metacallEN11QMetaObject4CallEiPPv
libKPim5WebEngineViewer.so.5:_ZN15WebEngineViewer36NetworkPluginUrlInterceptorInterface11qt_metacastEPKc
libKPim5WebEngineViewer.so.5:_ZN15WebEngineViewer36NetworkPluginUrlInterceptorInterface13createActionsEP17KActionCollection
libKPim5WebEngineViewer.so.5:_ZN15WebEngineViewer36NetworkPluginUrlInterceptorInterfaceC1EP7QObject
libKPim5WebEngineViewer.so.5:_ZN15WebEngineViewer36NetworkPluginUrlInterceptorInterfaceC2EP7QObject
libKPim5WebEngineViewer.so.5:_ZN15WebEngineViewer36NetworkPluginUrlInterceptorInterfaceD0Ev
libKPim5WebEngineViewer.so.5:_ZN15WebEngineViewer36NetworkPluginUrlInterceptorInterfaceD1Ev
libKPim5WebEngineViewer.so.5:_ZN15WebEngineViewer36NetworkPluginUrlInterceptorInterfaceD2Ev
libKPim5WebEngineViewer.so.5:_ZN15WebEngineViewer42NetworkPluginUrlInterceptorConfigureWidget11qt_metacallEN11QMetaObject4CallEiPPv
libKPim5WebEngineViewer.so.5:_ZN15WebEngineViewer42NetworkPluginUrlInterceptorConfigureWidget11qt_metacastEPKc
libKPim5WebEngineViewer.so.5:_ZN15WebEngineViewer42NetworkPluginUrlInterceptorConfigureWidget16configureChangedEv
libKPim5WebEngineViewer.so.5:_ZN15WebEngineViewer42NetworkPluginUrlInterceptorConfigureWidgetC1EP7QWidget
libKPim5WebEngineViewer.so.5:_ZN15WebEngineViewer42NetworkPluginUrlInterceptorConfigureWidgetC2EP7QWidget
libKPim5WebEngineViewer.so.5:_ZN15WebEngineViewer42NetworkPluginUrlInterceptorConfigureWidgetD0Ev
libKPim5WebEngineViewer.so.5:_ZN15WebEngineViewer42NetworkPluginUrlInterceptorConfigureWidgetD1Ev
libKPim5WebEngineViewer.so.5:_ZN15WebEngineViewer42NetworkPluginUrlInterceptorConfigureWidgetD2Ev
libKPim5WebEngineViewer.so.5:_ZN15WebEngineViewer7RemovalC1Ev
libKPim5WebEngineViewer.so.5:_ZN15WebEngineViewer7RemovalC2Ev
libKPim5WebEngineViewer.so.5:_ZN15WebEngineViewer8Addition8lessThanERKS0_S2_
libKPim5WebEngineViewer.so.5:_ZN15WebEngineViewer8AdditionC1Ev
libKPim5WebEngineViewer.so.5:_ZN15WebEngineViewer8AdditionC2Ev
libKPim5WebEngineViewer.so.5:_ZNK15WebEngineViewer10UrlHashing8hashListEv
libKPim5WebEngineViewer.so.5:_ZNK15WebEngineViewer10WebHitTest10metaObjectEv
libKPim5WebEngineViewer.so.5:_ZNK15WebEngineViewer11FindBarBase10metaObjectEv
libKPim5WebEngineViewer.so.5:_ZNK15WebEngineViewer11FindBarBase11optionsMenuEv
libKPim5WebEngineViewer.so.5:_ZNK15WebEngineViewer11FindBarBase4textEv
libKPim5WebEngineViewer.so.5:_ZNK15WebEngineViewer13WebEnginePage10metaObjectEv
libKPim5WebEngineViewer.so.5:_ZNK15WebEngineViewer13WebEnginePage13mapToViewportERK6QPoint
libKPim5WebEngineViewer.so.5:_ZNK15WebEngineViewer13WebEngineView10metaObjectEv
libKPim5WebEngineViewer.so.5:_ZNK15WebEngineViewer13WebEngineView16phishingDatabaseEv
libKPim5WebEngineViewer.so.5:_ZNK15WebEngineViewer13WebEngineView16relativePositionEv
libKPim5WebEngineViewer.so.5:_ZNK15WebEngineViewer14ZoomActionMenu10metaObjectEv
libKPim5WebEngineViewer.so.5:_ZNK15WebEngineViewer14ZoomActionMenu10zoomFactorEv
libKPim5WebEngineViewer.so.5:_ZNK15WebEngineViewer14ZoomActionMenu12zoomInActionEv
libKPim5WebEngineViewer.so.5:_ZNK15WebEngineViewer14ZoomActionMenu13zoomOutActionEv
libKPim5WebEngineViewer.so.5:_ZNK15WebEngineViewer14ZoomActionMenu15zoomResetActionEv
libKPim5WebEngineViewer.so.5:_ZNK15WebEngineViewer16HashCacheManager10metaObjectEv
libKPim5WebEngineViewer.so.5:_ZNK15WebEngineViewer16WebHitTestResult10mediaMutedEv
libKPim5WebEngineViewer.so.5:_ZNK15WebEngineViewer16WebHitTestResult11mediaPausedEv
libKPim5WebEngineViewer.so.5:_ZNK15WebEngineViewer16WebHitTestResult12boundingRectEv
libKPim5WebEngineViewer.so.5:_ZNK15WebEngineViewer16WebHitTestResult13alternateTextEv
libKPim5WebEngineViewer.so.5:_ZNK15WebEngineViewer16WebHitTestResult17isContentEditableEv
libKPim5WebEngineViewer.so.5:_ZNK15WebEngineViewer16WebHitTestResult17isContentSelectedEv
libKPim5WebEngineViewer.so.5:_ZNK15WebEngineViewer16WebHitTestResult3posEv
libKPim5WebEngineViewer.so.5:_ZNK15WebEngineViewer16WebHitTestResult6isNullEv
libKPim5WebEngineViewer.so.5:_ZNK15WebEngineViewer16WebHitTestResult7linkUrlEv
libKPim5WebEngineViewer.so.5:_ZNK15WebEngineViewer16WebHitTestResult7pageUrlEv
libKPim5WebEngineViewer.so.5:_ZNK15WebEngineViewer16WebHitTestResult7tagNameEv
libKPim5WebEngineViewer.so.5:_ZNK15WebEngineViewer16WebHitTestResult8imageUrlEv
libKPim5WebEngineViewer.so.5:_ZNK15WebEngineViewer16WebHitTestResult8mediaUrlEv
libKPim5WebEngineViewer.so.5:_ZNK15WebEngineViewer16WebHitTestResult9linkTitleEv
libKPim5WebEngineViewer.so.5:_ZNK15WebEngineViewer17LocalDataBaseFile10fileExistsEv
libKPim5WebEngineViewer.so.5:_ZNK15WebEngineViewer17LocalDataBaseFile11getCharStarEi
libKPim5WebEngineViewer.so.5:_ZNK15WebEngineViewer17LocalDataBaseFile11shouldCheckEv
libKPim5WebEngineViewer.so.5:_ZNK15WebEngineViewer17LocalDataBaseFile14extractAllInfoEv
libKPim5WebEngineViewer.so.5:_ZNK15WebEngineViewer17LocalDataBaseFile7isValidEv
libKPim5WebEngineViewer.so.5:_ZNK15WebEngineViewer17LocalDataBaseFile9getUint16Ei
libKPim5WebEngineViewer.so.5:_ZNK15WebEngineViewer17LocalDataBaseFile9getUint32Ei
libKPim5WebEngineViewer.so.5:_ZNK15WebEngineViewer17LocalDataBaseFile9getUint64Ei
libKPim5WebEngineViewer.so.5:_ZNK15WebEngineViewer17RiceDeltaEncoding7isValidEv
libKPim5WebEngineViewer.so.5:_ZNK15WebEngineViewer17RiceDeltaEncodingeqERKS0_
libKPim5WebEngineViewer.so.5:_ZNK15WebEngineViewer17SearchFullHashJob10metaObjectEv
libKPim5WebEngineViewer.so.5:_ZNK15WebEngineViewer17SearchFullHashJob11jsonRequestEv
libKPim5WebEngineViewer.so.5:_ZNK15WebEngineViewer17SearchFullHashJob8canStartEv
libKPim5WebEngineViewer.so.5:_ZNK15WebEngineViewer18BackOffModeManager15isInBackOffModeEv
libKPim5WebEngineViewer.so.5:_ZNK15WebEngineViewer18BackOffModeManager18numberOfHttpFailedEv
libKPim5WebEngineViewer.so.5:_ZNK15WebEngineViewer18InterceptorManager10metaObjectEv
libKPim5WebEngineViewer.so.5:_ZNK15WebEngineViewer18InterceptorManager21interceptorUrlActionsERKNS_16WebHitTestResultE
libKPim5WebEngineViewer.so.5:_ZNK15WebEngineViewer18UpdateDataBaseInfo7isValidEv
libKPim5WebEngineViewer.so.5:_ZNK15WebEngineViewer18UpdateDataBaseInfoeqERKS0_
libKPim5WebEngineViewer.so.5:_ZNK15WebEngineViewer18WebEngineAccessKey10metaObjectEv
libKPim5WebEngineViewer.so.5:_ZNK15WebEngineViewer19CheckPhishingUrlJob10metaObjectEv
libKPim5WebEngineViewer.so.5:_ZNK15WebEngineViewer19CheckPhishingUrlJob11jsonRequestEv
libKPim5WebEngineViewer.so.5:_ZNK15WebEngineViewer19CheckPhishingUrlJob8canStartEv
libKPim5WebEngineViewer.so.5:_ZNK15WebEngineViewer19DeveloperToolDialog10enginePageEv
libKPim5WebEngineViewer.so.5:_ZNK15WebEngineViewer19DeveloperToolDialog10metaObjectEv
libKPim5WebEngineViewer.so.5:_ZNK15WebEngineViewer19DeveloperToolWidget10enginePageEv
libKPim5WebEngineViewer.so.5:_ZNK15WebEngineViewer19DeveloperToolWidget10metaObjectEv
libKPim5WebEngineViewer.so.5:_ZNK15WebEngineViewer20FindBarWebEngineView10metaObjectEv
libKPim5WebEngineViewer.so.5:_ZNK15WebEngineViewer20LocalDataBaseManager10metaObjectEv
libKPim5WebEngineViewer.so.5:_ZNK15WebEngineViewer21CheckPhishingUrlCache10metaObjectEv
libKPim5WebEngineViewer.so.5:_ZNK15WebEngineViewer21CreateDatabaseFileJob10metaObjectEv
libKPim5WebEngineViewer.so.5:_ZNK15WebEngineViewer21CreateDatabaseFileJob8canStartEv
libKPim5WebEngineViewer.so.5:_ZNK15WebEngineViewer21NetworkUrlInterceptor10metaObjectEv
libKPim5WebEngineViewer.so.5:_ZNK15WebEngineViewer21TrackingDetailsDialog10metaObjectEv
libKPim5WebEngineViewer.so.5:_ZNK15WebEngineViewer21TrackingWarningWidget10metaObjectEv
libKPim5WebEngineViewer.so.5:_ZNK15WebEngineViewer25WebEngineExportPdfPageJob10engineViewEv
libKPim5WebEngineViewer.so.5:_ZNK15WebEngineViewer25WebEngineExportPdfPageJob10metaObjectEv
libKPim5WebEngineViewer.so.5:_ZNK15WebEngineViewer25WebEngineExportPdfPageJob7pdfPathEv
libKPim5WebEngineViewer.so.5:_ZNK15WebEngineViewer25WebEngineExportPdfPageJob8canStartEv
libKPim5WebEngineViewer.so.5:_ZNK15WebEngineViewer26SubmittedFormWarningWidget10metaObjectEv
libKPim5WebEngineViewer.so.5:_ZNK15WebEngineViewer26WebEngineExportHtmlPageJob10engineViewEv
libKPim5WebEngineViewer.so.5:_ZNK15WebEngineViewer26WebEngineExportHtmlPageJob10metaObjectEv
libKPim5WebEngineViewer.so.5:_ZNK15WebEngineViewer27BlockTrackingUrlInterceptor10metaObjectEv
libKPim5WebEngineViewer.so.5:_ZNK15WebEngineViewer27BlockTrackingUrlInterceptor30enabledMailTrackingInterceptorEv
libKPim5WebEngineViewer.so.5:_ZNK15WebEngineViewer27DownloadLocalDatabaseThread10metaObjectEv
libKPim5WebEngineViewer.so.5:_ZNK15WebEngineViewer27NetworkPluginUrlInterceptor10metaObjectEv
libKPim5WebEngineViewer.so.5:_ZNK15WebEngineViewer27NetworkPluginUrlInterceptor18hasConfigureDialogEv
libKPim5WebEngineViewer.so.5:_ZNK15WebEngineViewer27NetworkPluginUrlInterceptor9isEnabledEv
libKPim5WebEngineViewer.so.5:_ZNK15WebEngineViewer28CreatePhishingUrlDataBaseJob10metaObjectEv
libKPim5WebEngineViewer.so.5:_ZNK15WebEngineViewer28CreatePhishingUrlDataBaseJob11jsonRequestEv
libKPim5WebEngineViewer.so.5:_ZNK15WebEngineViewer28NetworkUrlInterceptorManager10metaObjectEv
libKPim5WebEngineViewer.so.5:_ZNK15WebEngineViewer28NetworkUrlInterceptorManager13interfaceListEv
libKPim5WebEngineViewer.so.5:_ZNK15WebEngineViewer28NetworkUrlInterceptorManager21interceptorUrlActionsERKNS_16WebHitTestResultE
libKPim5WebEngineViewer.so.5:_ZNK15WebEngineViewer34NetworkUrlInterceptorPluginManager10metaObjectEv
libKPim5WebEngineViewer.so.5:_ZNK15WebEngineViewer34NetworkUrlInterceptorPluginManager11pluginsListEv
libKPim5WebEngineViewer.so.5:_ZNK15WebEngineViewer34NetworkUrlInterceptorPluginManager15configGroupNameEv
libKPim5WebEngineViewer.so.5:_ZNK15WebEngineViewer34NetworkUrlInterceptorPluginManager15pluginsDataListEv
libKPim5WebEngineViewer.so.5:_ZNK15WebEngineViewer34NetworkUrlInterceptorPluginManager22configPrefixSettingKeyEv
libKPim5WebEngineViewer.so.5:_ZNK15WebEngineViewer36BlockExternalResourcesUrlInterceptor10metaObjectEv
libKPim5WebEngineViewer.so.5:_ZNK15WebEngineViewer36LoadExternalReferencesUrlInterceptor10metaObjectEv
libKPim5WebEngineViewer.so.5:_ZNK15WebEngineViewer36LoadExternalReferencesUrlInterceptor20allowExternalContentEv
libKPim5WebEngineViewer.so.5:_ZNK15WebEngineViewer36NetworkPluginUrlInterceptorInterface10metaObjectEv
libKPim5WebEngineViewer.so.5:_ZNK15WebEngineViewer36NetworkPluginUrlInterceptorInterface21interceptorUrlActionsERKNS_16WebHitTestResultE
libKPim5WebEngineViewer.so.5:_ZNK15WebEngineViewer42NetworkPluginUrlInterceptorConfigureWidget10helpAnchorEv
libKPim5WebEngineViewer.so.5:_ZNK15WebEngineViewer42NetworkPluginUrlInterceptorConfigureWidget10metaObjectEv
libKPim5WebEngineViewer.so.5:_ZNK15WebEngineViewer7Removal7isValidEv
libKPim5WebEngineViewer.so.5:_ZNK15WebEngineViewer7RemovaleqERKS0_
libKPim5WebEngineViewer.so.5:_ZNK15WebEngineViewer8Addition7isValidEv
libKPim5WebEngineViewer.so.5:_ZNK15WebEngineViewer8AdditioneqERKS0_
libKPim5WebEngineViewer.so.5:_ZThn16_N15WebEngineViewer11FindBarBaseD0Ev
libKPim5WebEngineViewer.so.5:_ZThn16_N15WebEngineViewer11FindBarBaseD1Ev
libKPim5WebEngineViewer.so.5:_ZThn16_N15WebEngineViewer13WebEngineViewD0Ev
libKPim5WebEngineViewer.so.5:_ZThn16_N15WebEngineViewer13WebEngineViewD1Ev
libKPim5WebEngineViewer.so.5:_ZThn16_N15WebEngineViewer19DeveloperToolDialogD0Ev
libKPim5WebEngineViewer.so.5:_ZThn16_N15WebEngineViewer19DeveloperToolDialogD1Ev
libKPim5WebEngineViewer.so.5:_ZThn16_N15WebEngineViewer19DeveloperToolWidgetD0Ev
libKPim5WebEngineViewer.so.5:_ZThn16_N15WebEngineViewer19DeveloperToolWidgetD1Ev
libKPim5WebEngineViewer.so.5:_ZThn16_N15WebEngineViewer20FindBarWebEngineViewD0Ev
libKPim5WebEngineViewer.so.5:_ZThn16_N15WebEngineViewer20FindBarWebEngineViewD1Ev
libKPim5WebEngineViewer.so.5:_ZThn16_N15WebEngineViewer21TrackingDetailsDialogD0Ev
libKPim5WebEngineViewer.so.5:_ZThn16_N15WebEngineViewer21TrackingDetailsDialogD1Ev
libKPim5WebEngineViewer.so.5:_ZThn16_N15WebEngineViewer21TrackingWarningWidgetD0Ev
libKPim5WebEngineViewer.so.5:_ZThn16_N15WebEngineViewer21TrackingWarningWidgetD1Ev
libKPim5WebEngineViewer.so.5:_ZThn16_N15WebEngineViewer26SubmittedFormWarningWidgetD0Ev
libKPim5WebEngineViewer.so.5:_ZThn16_N15WebEngineViewer26SubmittedFormWarningWidgetD1Ev
libKPim5WebEngineViewer.so.5:_ZThn16_N15WebEngineViewer42NetworkPluginUrlInterceptorConfigureWidgetD0Ev
libKPim5WebEngineViewer.so.5:_ZThn16_N15WebEngineViewer42NetworkPluginUrlInterceptorConfigureWidgetD1Ev
libKPim5WebEngineViewer.so.5:_Zls6QDebugRKN15WebEngineViewer27BlockTrackingUrlInterceptor16TrackerBlackListE
